
demo:     file format elf32-tradlittlemips


Disassembly of section .text:

bfc00000 <_start>:
D:\loongson\projects\ls1d_ucos/start.S:29
	 */
_start:
	/*
	 *	初始化CPU核，关闭8M定时器，初始化CP0控制部件和硬件浮点部件。
	 */
	li		t0, 0x8000000   #disable cp0_count
bfc00000:	00 08 08 3c 00 68 88 40 40 30 08 3c 00 60 88 40     ...<.h.@@0.<.`.@
D:\loongson\projects\ls1d_ucos/start.S:34
	mtc0	t0, CP0_CAUSE
	li      t0, 0x30400000
    mtc0    t0, CP0_STATUS

	li		t0, 0x00000000  #set fp reg, it's necessory
bfc00010:	00 00 08 24 00 f8 c8 44 ea bf 08 3c 10 80 08 35     ...$...D...<...5
D:\loongson\projects\ls1d_ucos/start.S:39
	ctc1	t0, $31

	/* disable NMI */
	li		t0, 0xbfea8010
	li		t1, 0x5a
bfc00020:	5a 00 09 24 00 00 09 a1 a5 00 09 24 00 00 09 a1     Z..$.......$....
D:\loongson\projects\ls1d_ucos/start.S:43
	sb		t1, 0(t0)
	li		t1, 0xa5
	sb		t1, 0(t0)
	li		t1, 0x0
bfc00030:	00 00 09 24 00 00 09 a1 eb bf 08 3c 10 00 09 8d     ...$.......<....
D:\loongson\projects\ls1d_ucos/start.S:53
	 *	如果为低电平，则芯片是执行片内flash中的程序，
	 *	如果为高电平，则芯片是执行片外spi-flash中的程序，则配置SPI控制器的PARAM寄存器，加快取指速度。
	 */
	li		t0, 0xbfeb0000
	lw		t1, 0x10(t0)
	li		t2, 0xfffbffff
bfc00040:	fb ff 0a 3c ff ff 4a 35 24 58 2a 01 10 00 0b ad     ...<..J5$X*.....
D:\loongson\projects\ls1d_ucos/start.S:57
	and		t3, t1, t2
	sw		t3, 0x10(t0)

	lw		t1, 0x18(t0)
bfc00050:	18 00 09 8d 04 00 0a 3c 24 58 2a 01 04 00 0b 10     .......<$X*.....
D:\loongson\projects\ls1d_ucos/start.S:61
	li		t2, 0x40000
	and		t3, t1, t2
	beq		zero, t3, 1f
	nop
bfc00060:	00 00 00 00 e7 bf 08 3c 17 00 09 24 04 00 09 a1     .......<...$....
D:\loongson\projects\ls1d_ucos/start.S:72
1:
	/*
	 *	检测 soft-flag 标志位，系统复位后所有寄存器恢复默认值，此时 soft-flag为0；
	 *	系统每次休眠之前，软件会保证 soft-flag 为一非0值，因此如果系统从休眠中唤醒，此时 soft-flag不为0。
	 */
	li		t0, 0xbfeb0000
bfc00070:	eb bf 08 3c 0c 00 09 8d 00 f8 0a 3c 24 58 2a 01     ...<.......<$X*.
D:\loongson\projects\ls1d_ucos/start.S:76
	lw		t1, 0xc(t0)
	li		t2, 0xf8000000		#check soft-flag
	and		t3, t1, t2
	bne		zero, t3, 100f		#如果是从休眠中唤醒，则不初始化不掉电的 1K SRAM
bfc00080:	0a 00 0b 14 00 00 00 00 00 a0 09 3c 00 10 29 35     ...........<..)5
D:\loongson\projects\ls1d_ucos/start.S:84
	/*
	 *	系统复位操作之后，需要对不掉电的 1K SRAM 做初始化操作，即清零操作；
	 *	一般这段空间用来保存全局变量和一些关键数据。
	 */
	li		t1, 0xa0001000
	li		t2, 0x400
bfc00090:	00 04 0a 24 21 10 00 00 00 00 22 ad 04 00 29 25     ...$!....."...)%
D:\loongson\projects\ls1d_ucos/start.S:89
10:
	move	v0, zero
	sw		v0, 0x0(t1)
	addu	t1, 4
	addu	t2, -4
bfc000a0:	fc ff 4a 25 fb ff 0a 14 00 00 00 00 00 a0 08 3c     ..J%...........<
D:\loongson\projects\ls1d_ucos/start.S:97

100:
	/*
	 *	初始化堆栈寄存器，一般堆栈使用掉电的4K SRAM
	 */
	li		t0, SRAM_BASEADDR+0xffc
bfc000b0:	fc 0f 08 35 00 00 1d 25 c0 bf 19 3c a4 0b 39 27     ...5...%...<..9'
D:\loongson\projects\ls1d_ucos/start.S:104

	/*
	 *	jump to C code
	 */
	la		t9, main
	jr		t9
bfc000c0:	08 00 20 03 00 00 00 00 ff ff 00 10 00 00 00 00     .. .............

bfc000d0 <_finish>:
D:\loongson\projects\ls1d_ucos/start.S:116
/*******************************************************************/

/*******************************************************************/

_finish:
	nop
bfc000d0:	00000000 	nop
bfc000d4:	00000000 	nop
bfc000d8:	00000000 	nop
bfc000dc:	00000000 	nop
bfc000e0:	00000000 	nop
bfc000e4:	00000000 	nop
bfc000e8:	00000000 	nop
bfc000ec:	00000000 	nop
bfc000f0:	00000000 	nop
bfc000f4:	00000000 	nop
bfc000f8:	00000000 	nop
bfc000fc:	00000000 	nop
bfc00100:	00000000 	nop
bfc00104:	00000000 	nop
bfc00108:	00000000 	nop
bfc0010c:	00000000 	nop
bfc00110:	00000000 	nop
bfc00114:	00000000 	nop
bfc00118:	00000000 	nop
bfc0011c:	00000000 	nop
bfc00120:	00000000 	nop
bfc00124:	00000000 	nop
bfc00128:	00000000 	nop
bfc0012c:	00000000 	nop
bfc00130:	00000000 	nop
bfc00134:	00000000 	nop
bfc00138:	00000000 	nop
bfc0013c:	00000000 	nop
bfc00140:	00000000 	nop
bfc00144:	00000000 	nop
bfc00148:	00000000 	nop
bfc0014c:	00000000 	nop
bfc00150:	00000000 	nop
bfc00154:	00000000 	nop
bfc00158:	00000000 	nop
bfc0015c:	00000000 	nop
bfc00160:	00000000 	nop
bfc00164:	00000000 	nop
bfc00168:	00000000 	nop
bfc0016c:	00000000 	nop
bfc00170:	00000000 	nop
bfc00174:	00000000 	nop
bfc00178:	00000000 	nop
bfc0017c:	00000000 	nop
bfc00180:	00000000 	nop
bfc00184:	00000000 	nop
bfc00188:	00000000 	nop
bfc0018c:	00000000 	nop
bfc00190:	00000000 	nop
bfc00194:	00000000 	nop
bfc00198:	00000000 	nop
bfc0019c:	00000000 	nop
bfc001a0:	00000000 	nop
bfc001a4:	00000000 	nop
bfc001a8:	00000000 	nop
bfc001ac:	00000000 	nop
bfc001b0:	00000000 	nop
bfc001b4:	00000000 	nop
bfc001b8:	00000000 	nop
bfc001bc:	00000000 	nop
bfc001c0:	00000000 	nop
bfc001c4:	00000000 	nop
bfc001c8:	00000000 	nop
bfc001cc:	00000000 	nop
bfc001d0:	00000000 	nop
bfc001d4:	00000000 	nop
bfc001d8:	00000000 	nop
bfc001dc:	00000000 	nop
bfc001e0:	00000000 	nop
bfc001e4:	00000000 	nop
bfc001e8:	00000000 	nop
bfc001ec:	00000000 	nop
bfc001f0:	00000000 	nop
bfc001f4:	00000000 	nop
bfc001f8:	00000000 	nop
bfc001fc:	00000000 	nop
D:\loongson\projects\ls1d_ucos/start.S:122

/*
	将中断异常地址对齐到指定位置
*/
    .align 9
    nop
bfc00200:	00000000 	nop
bfc00204:	00000000 	nop
bfc00208:	00000000 	nop
bfc0020c:	00000000 	nop
bfc00210:	00000000 	nop
bfc00214:	00000000 	nop
bfc00218:	00000000 	nop
bfc0021c:	00000000 	nop
bfc00220:	00000000 	nop
bfc00224:	00000000 	nop
bfc00228:	00000000 	nop
bfc0022c:	00000000 	nop
bfc00230:	00000000 	nop
bfc00234:	00000000 	nop
bfc00238:	00000000 	nop
bfc0023c:	00000000 	nop
bfc00240:	00000000 	nop
bfc00244:	00000000 	nop
bfc00248:	00000000 	nop
bfc0024c:	00000000 	nop
bfc00250:	00000000 	nop
bfc00254:	00000000 	nop
bfc00258:	00000000 	nop
bfc0025c:	00000000 	nop
bfc00260:	00000000 	nop
bfc00264:	00000000 	nop
bfc00268:	00000000 	nop
bfc0026c:	00000000 	nop
bfc00270:	00000000 	nop
bfc00274:	00000000 	nop
bfc00278:	00000000 	nop
bfc0027c:	00000000 	nop
bfc00280:	00000000 	nop
bfc00284:	00000000 	nop
bfc00288:	00000000 	nop
bfc0028c:	00000000 	nop
bfc00290:	00000000 	nop
bfc00294:	00000000 	nop
bfc00298:	00000000 	nop
bfc0029c:	00000000 	nop
bfc002a0:	00000000 	nop
bfc002a4:	00000000 	nop
bfc002a8:	00000000 	nop
bfc002ac:	00000000 	nop
bfc002b0:	00000000 	nop
bfc002b4:	00000000 	nop
bfc002b8:	00000000 	nop
bfc002bc:	00000000 	nop
bfc002c0:	00000000 	nop
bfc002c4:	00000000 	nop
bfc002c8:	00000000 	nop
bfc002cc:	00000000 	nop
bfc002d0:	00000000 	nop
bfc002d4:	00000000 	nop
bfc002d8:	00000000 	nop
bfc002dc:	00000000 	nop
bfc002e0:	00000000 	nop
bfc002e4:	00000000 	nop
bfc002e8:	00000000 	nop
bfc002ec:	00000000 	nop
bfc002f0:	00000000 	nop
bfc002f4:	00000000 	nop
bfc002f8:	00000000 	nop
bfc002fc:	00000000 	nop
D:\loongson\projects\ls1d_ucos/start.S:124
    .align 8
    nop
bfc00300:	00000000 	nop
bfc00304:	00000000 	nop
bfc00308:	00000000 	nop
bfc0030c:	00000000 	nop
bfc00310:	00000000 	nop
bfc00314:	00000000 	nop
bfc00318:	00000000 	nop
bfc0031c:	00000000 	nop
bfc00320:	00000000 	nop
bfc00324:	00000000 	nop
bfc00328:	00000000 	nop
bfc0032c:	00000000 	nop
bfc00330:	00000000 	nop
bfc00334:	00000000 	nop
bfc00338:	00000000 	nop
bfc0033c:	00000000 	nop
bfc00340:	00000000 	nop
bfc00344:	00000000 	nop
bfc00348:	00000000 	nop
bfc0034c:	00000000 	nop
bfc00350:	00000000 	nop
bfc00354:	00000000 	nop
bfc00358:	00000000 	nop
bfc0035c:	00000000 	nop
bfc00360:	00000000 	nop
bfc00364:	00000000 	nop
bfc00368:	00000000 	nop
bfc0036c:	00000000 	nop
bfc00370:	00000000 	nop
bfc00374:	00000000 	nop
bfc00378:	00000000 	nop
bfc0037c:	00000000 	nop

bfc00380 <IntHandle>:
D:\loongson\projects\ls1d_ucos/start.S:135
	 *	通用异常入口
	 */
IntHandle:
	//.set noat
	.set noreorder
	mfc0  k0,CP0_EPC
bfc00380:	401a7000 	mfc0	k0,c0_epc
D:\loongson\projects\ls1d_ucos/start.S:136
	STORE_REG_ERET(k0)
bfc00384:	27bdff88 	addiu	sp,sp,-120
bfc00388:	afbf0000 	sw	ra,0(sp)
bfc0038c:	afbe0004 	sw	s8,4(sp)
bfc00390:	afbc0008 	sw	gp,8(sp)
bfc00394:	afb9000c 	sw	t9,12(sp)
bfc00398:	afb80010 	sw	t8,16(sp)
bfc0039c:	afb70014 	sw	s7,20(sp)
bfc003a0:	afb60018 	sw	s6,24(sp)
bfc003a4:	afb5001c 	sw	s5,28(sp)
bfc003a8:	afb40020 	sw	s4,32(sp)
bfc003ac:	afb30024 	sw	s3,36(sp)
bfc003b0:	afb20028 	sw	s2,40(sp)
bfc003b4:	afb1002c 	sw	s1,44(sp)
bfc003b8:	afb00030 	sw	s0,48(sp)
bfc003bc:	afaf0034 	sw	t7,52(sp)
bfc003c0:	afae0038 	sw	t6,56(sp)
bfc003c4:	afad003c 	sw	t5,60(sp)
bfc003c8:	afac0040 	sw	t4,64(sp)
bfc003cc:	afab0044 	sw	t3,68(sp)
bfc003d0:	afaa0048 	sw	t2,72(sp)
bfc003d4:	afa9004c 	sw	t1,76(sp)
bfc003d8:	afa80050 	sw	t0,80(sp)
bfc003dc:	afa70054 	sw	a3,84(sp)
bfc003e0:	afa60058 	sw	a2,88(sp)
bfc003e4:	afa5005c 	sw	a1,92(sp)
bfc003e8:	afa40060 	sw	a0,96(sp)
bfc003ec:	afa30064 	sw	v1,100(sp)
bfc003f0:	afa20068 	sw	v0,104(sp)
bfc003f4:	afa1006c 	sw	at,108(sp)
bfc003f8:	40086000 	mfc0	t0,c0_status
bfc003fc:	2409fffd 	li	t1,-3
bfc00400:	01094024 	and	t0,t0,t1
bfc00404:	afa80070 	sw	t0,112(sp)
bfc00408:	afba0074 	sw	k0,116(sp)
D:\loongson\projects\ls1d_ucos/start.S:138

	la t0,OSRunning						/// 注意到 被唤醒的时候，在系统启动之前也会产生中断！！
bfc0040c:	3c08a000 	lui	t0,0xa000
bfc00410:	25081002 	addiu	t0,t0,4098
D:\loongson\projects\ls1d_ucos/start.S:139
	lb t0,0(t0)
bfc00414:	81080000 	lb	t0,0(t0)
D:\loongson\projects\ls1d_ucos/start.S:140
	beq	zero,t0,20f
bfc00418:	1008000d 	beq	zero,t0,bfc00450 <IntHandle+0xd0>
D:\loongson\projects\ls1d_ucos/start.S:141
	nop									/// 否则会 有警告： Macro instruction expanded into multiple
bfc0041c:	00000000 	nop
D:\loongson\projects\ls1d_ucos/start.S:144
										/// instructions in a branch delay slot

	la t0,OSIntNesting
bfc00420:	3c08a000 	lui	t0,0xa000
bfc00424:	25081098 	addiu	t0,t0,4248
D:\loongson\projects\ls1d_ucos/start.S:145
	lb t1,0(t0)
bfc00428:	81090000 	lb	t1,0(t0)
D:\loongson\projects\ls1d_ucos/start.S:146
	addu	t1,1
bfc0042c:	25290001 	addiu	t1,t1,1
D:\loongson\projects\ls1d_ucos/start.S:147
	sb	t1,0(t0)
bfc00430:	a1090000 	sb	t1,0(t0)
D:\loongson\projects\ls1d_ucos/start.S:148
	addu	t1,-1
bfc00434:	2529ffff 	addiu	t1,t1,-1
D:\loongson\projects\ls1d_ucos/start.S:149
	bne	zero,t1,20f
bfc00438:	14090005 	bne	zero,t1,bfc00450 <IntHandle+0xd0>
D:\loongson\projects\ls1d_ucos/start.S:150
	nop
bfc0043c:	00000000 	nop
D:\loongson\projects\ls1d_ucos/start.S:153

	/* Get current task TCB address */
	la t0,OSTCBCur
bfc00440:	3c08a000 	lui	t0,0xa000
bfc00444:	250810a0 	addiu	t0,t0,4256
D:\loongson\projects\ls1d_ucos/start.S:154
	lw t1,0(t0)
bfc00448:	8d090000 	lw	t1,0(t0)
D:\loongson\projects\ls1d_ucos/start.S:155
	sw sp,0(t1)
bfc0044c:	ad3d0000 	sw	sp,0(t1)
D:\loongson\projects\ls1d_ucos/start.S:157
20:
	jal IRQ_Exception
bfc00450:	0ff01b5e 	jal	bfc06d78 <IRQ_Exception>
D:\loongson\projects\ls1d_ucos/start.S:158
	move t1,t1
bfc00454:	01204821 	move	t1,t1
D:\loongson\projects\ls1d_ucos/start.S:159
	move t0,t0
bfc00458:	01004021 	move	t0,t0
D:\loongson\projects\ls1d_ucos/start.S:161

	jal OSIntExit
bfc0045c:	0ff0147a 	jal	bfc051e8 <OSIntExit>
D:\loongson\projects\ls1d_ucos/start.S:162
	nop
bfc00460:	00000000 	nop
D:\loongson\projects\ls1d_ucos/start.S:164

	RESTORE_REG_ERET()
bfc00464:	8fbf0000 	lw	ra,0(sp)
bfc00468:	8fbe0004 	lw	s8,4(sp)
bfc0046c:	8fbc0008 	lw	gp,8(sp)
bfc00470:	8fb9000c 	lw	t9,12(sp)
bfc00474:	8fb80010 	lw	t8,16(sp)
bfc00478:	8fb70014 	lw	s7,20(sp)
bfc0047c:	8fb60018 	lw	s6,24(sp)
bfc00480:	8fb5001c 	lw	s5,28(sp)
bfc00484:	8fb40020 	lw	s4,32(sp)
bfc00488:	8fb30024 	lw	s3,36(sp)
bfc0048c:	8fb20028 	lw	s2,40(sp)
bfc00490:	8fb1002c 	lw	s1,44(sp)
bfc00494:	8fb00030 	lw	s0,48(sp)
bfc00498:	8faf0034 	lw	t7,52(sp)
bfc0049c:	8fae0038 	lw	t6,56(sp)
bfc004a0:	8fad003c 	lw	t5,60(sp)
bfc004a4:	8fac0040 	lw	t4,64(sp)
bfc004a8:	8fab0044 	lw	t3,68(sp)
bfc004ac:	8faa0048 	lw	t2,72(sp)
bfc004b0:	8fa9004c 	lw	t1,76(sp)
bfc004b4:	8fa80050 	lw	t0,80(sp)
bfc004b8:	8fa70054 	lw	a3,84(sp)
bfc004bc:	8fa60058 	lw	a2,88(sp)
bfc004c0:	8fa5005c 	lw	a1,92(sp)
bfc004c4:	8fa40060 	lw	a0,96(sp)
bfc004c8:	8fa30064 	lw	v1,100(sp)
bfc004cc:	8fa20068 	lw	v0,104(sp)
bfc004d0:	8fa1006c 	lw	at,108(sp)
bfc004d4:	8fba0070 	lw	k0,112(sp)
bfc004d8:	375a0002 	ori	k0,k0,0x2
bfc004dc:	409a6000 	mtc0	k0,c0_status
bfc004e0:	8fba0074 	lw	k0,116(sp)
bfc004e4:	409a7000 	mtc0	k0,c0_epc
bfc004e8:	27bd0078 	addiu	sp,sp,120
bfc004ec:	42000018 	eret
bfc004f0:	00000000 	nop

bfc004f4 <_end>:
D:\loongson\projects\ls1d_ucos/start.S:168
	//.set at

_end:
	nop
bfc004f4:	00000000 	nop
D:\loongson\projects\ls1d_ucos/start.S:169
	nop
bfc004f8:	00000000 	nop
_end():
bfc004fc:	00000000 	nop
bfc00500:	00000000 	nop
bfc00504:	00000000 	nop
bfc00508:	00000000 	nop
bfc0050c:	00000000 	nop
bfc00510:	00000000 	nop
bfc00514:	00000000 	nop
bfc00518:	00000000 	nop
bfc0051c:	00000000 	nop
bfc00520:	00000000 	nop
bfc00524:	00000000 	nop
bfc00528:	00000000 	nop
bfc0052c:	00000000 	nop
bfc00530:	00000000 	nop
bfc00534:	00000000 	nop
bfc00538:	00000000 	nop
bfc0053c:	00000000 	nop
bfc00540:	00000000 	nop
bfc00544:	00000000 	nop
bfc00548:	00000000 	nop
bfc0054c:	00000000 	nop
bfc00550:	00000000 	nop
bfc00554:	00000000 	nop
bfc00558:	00000000 	nop
bfc0055c:	00000000 	nop
bfc00560:	00000000 	nop
bfc00564:	00000000 	nop
bfc00568:	00000000 	nop
bfc0056c:	00000000 	nop
bfc00570:	00000000 	nop
bfc00574:	00000000 	nop
bfc00578:	00000000 	nop
bfc0057c:	00000000 	nop
bfc00580:	00000000 	nop
bfc00584:	00000000 	nop
bfc00588:	00000000 	nop
bfc0058c:	00000000 	nop
bfc00590:	00000000 	nop
bfc00594:	00000000 	nop
bfc00598:	00000000 	nop
bfc0059c:	00000000 	nop
bfc005a0:	00000000 	nop
bfc005a4:	00000000 	nop
bfc005a8:	00000000 	nop
bfc005ac:	00000000 	nop
bfc005b0:	00000000 	nop
bfc005b4:	00000000 	nop
bfc005b8:	00000000 	nop
bfc005bc:	00000000 	nop
bfc005c0:	00000000 	nop
bfc005c4:	00000000 	nop
bfc005c8:	00000000 	nop
bfc005cc:	00000000 	nop
bfc005d0:	00000000 	nop
bfc005d4:	00000000 	nop
bfc005d8:	00000000 	nop
bfc005dc:	00000000 	nop
bfc005e0:	00000000 	nop
bfc005e4:	00000000 	nop
bfc005e8:	00000000 	nop
bfc005ec:	00000000 	nop
bfc005f0:	00000000 	nop
bfc005f4:	00000000 	nop
bfc005f8:	00000000 	nop
bfc005fc:	00000000 	nop

bfc00600 <TaskKey>:
TaskKey():
D:\loongson\projects\ls1d_ucos/main.c:26
 *不应该调用 DisWake，因为不确定用户是否按下按键。    不可能不按键
 *就不让cpu休眠，实际上这样会导致这个任务在 pend 的时候 进入空闲进程导致cpu休眠！！
 *几乎不可能发生 pend  1分钟而不休眠的~
 ****************************************************/
void  TaskKey (void *pdata)
{
bfc00600:	27bdffe8 	addiu	sp,sp,-24
bfc00604:	afbf0014 	sw	ra,20(sp)
bfc00608:	afbe0010 	sw	s8,16(sp)
bfc0060c:	03a0f021 	move	s8,sp
bfc00610:	afc40018 	sw	a0,24(s8)
D:\loongson\projects\ls1d_ucos/main.c:28
	while(1) {
		KeyTime		= KeyProc(pGMboxKey,KeyTime);
bfc00614:	3c02a000 	lui	v0,0xa000
bfc00618:	8c4310a4 	lw	v1,4260(v0)
bfc0061c:	3c02a000 	lui	v0,0xa000
bfc00620:	8c42109c 	lw	v0,4252(v0)
bfc00624:	00602021 	move	a0,v1
bfc00628:	00402821 	move	a1,v0
bfc0062c:	3c02bfc0 	lui	v0,0xbfc0
bfc00630:	245918f4 	addiu	t9,v0,6388
bfc00634:	0320f809 	jalr	t9
bfc00638:	00000000 	nop
bfc0063c:	00401821 	move	v1,v0
bfc00640:	3c02a000 	lui	v0,0xa000
bfc00644:	ac43109c 	sw	v1,4252(v0)
D:\loongson\projects\ls1d_ucos/main.c:29
		OSTimeDly(50 * 8000 / TIMERDLY );		/// 50ms
bfc00648:	24040019 	li	a0,25
bfc0064c:	3c02bfc0 	lui	v0,0xbfc0
bfc00650:	245963a0 	addiu	t9,v0,25504
bfc00654:	0320f809 	jalr	t9
bfc00658:	00000000 	nop
bfc0065c:	0bf00185 	j	bfc00614 <TaskKey+0x14>
bfc00660:	00000000 	nop

bfc00664 <TaskLcd>:
TaskLcd():
D:\loongson\projects\ls1d_ucos/main.c:38

/**TaskLcd 跟  TaskTDC 任务优先级 和执行流 需要仔细安排下，
 * 在  TaskTDC 里面补偿了全局变量  OSTime 之后  ，还需要SystemClock 更新下
 *  才能在lcd上显示    **/
void  TaskLcd (void *pdata)
{
bfc00664:	27bdffe0 	addiu	sp,sp,-32
bfc00668:	afbf001c 	sw	ra,28(sp)
bfc0066c:	afbe0018 	sw	s8,24(sp)
bfc00670:	03a0f021 	move	s8,sp
bfc00674:	afc40020 	sw	a0,32(s8)
D:\loongson\projects\ls1d_ucos/main.c:40
	INT8U	err;
	LcdPoweron();
bfc00678:	3c02bfc1 	lui	v0,0xbfc1
bfc0067c:	24599010 	addiu	t9,v0,-28656
bfc00680:	0320f809 	jalr	t9
bfc00684:	00000000 	nop
D:\loongson\projects\ls1d_ucos/main.c:41
	OSSemPend(pGSemSynch,0,&err);			/// lcd 进程优先级高所以需要等待 tdc 进程 补偿了时间之后才做 SystemClock 操作。
bfc00688:	3c02a000 	lui	v0,0xa000
bfc0068c:	8c42108c 	lw	v0,4236(v0)
bfc00690:	00402021 	move	a0,v0
bfc00694:	00002821 	move	a1,zero
bfc00698:	27c20010 	addiu	v0,s8,16
bfc0069c:	00403021 	move	a2,v0
bfc006a0:	3c02bfc0 	lui	v0,0xbfc0
bfc006a4:	24594a94 	addiu	t9,v0,19092
bfc006a8:	0320f809 	jalr	t9
bfc006ac:	00000000 	nop
D:\loongson\projects\ls1d_ucos/main.c:43
	while(1) {
		while(!SystemClock());
bfc006b0:	3c02bfc0 	lui	v0,0xbfc0
bfc006b4:	245946d4 	addiu	t9,v0,18132
bfc006b8:	0320f809 	jalr	t9
bfc006bc:	00000000 	nop
bfc006c0:	1040fffb 	beqz	v0,bfc006b0 <TaskLcd+0x4c>
bfc006c4:	00000000 	nop
D:\loongson\projects\ls1d_ucos/main.c:44
		OSTimeDly(100 * 8000/TIMERDLY);
bfc006c8:	24040032 	li	a0,50
bfc006cc:	3c02bfc0 	lui	v0,0xbfc0
bfc006d0:	245963a0 	addiu	t9,v0,25504
bfc006d4:	0320f809 	jalr	t9
bfc006d8:	00000000 	nop
bfc006dc:	0bf001ac 	j	bfc006b0 <TaskLcd+0x4c>
bfc006e0:	00000000 	nop

bfc006e4 <TaskTDC>:
TaskTDC():
D:\loongson\projects\ls1d_ucos/main.c:51
}


/** 这个任务  要做大量的浮点计算， 整个系统只有一个任务可以使用浮点寄存器 **/
void  TaskTDC (void *pdata)
{
bfc006e4:	27bdffe8 	addiu	sp,sp,-24
bfc006e8:	afbf0014 	sw	ra,20(sp)
bfc006ec:	afbe0010 	sw	s8,16(sp)
bfc006f0:	03a0f021 	move	s8,sp
bfc006f4:	afc40018 	sw	a0,24(s8)
D:\loongson\projects\ls1d_ucos/main.c:52
	DisSleep();
bfc006f8:	3c02bfc1 	lui	v0,0xbfc1
bfc006fc:	24598fa4 	addiu	t9,v0,-28764
bfc00700:	0320f809 	jalr	t9
bfc00704:	00000000 	nop
D:\loongson\projects\ls1d_ucos/main.c:53
	WakeCompen();
bfc00708:	3c02bfc1 	lui	v0,0xbfc1
bfc0070c:	24598d28 	addiu	t9,v0,-29400
bfc00710:	0320f809 	jalr	t9
bfc00714:	00000000 	nop
D:\loongson\projects\ls1d_ucos/main.c:54
	OSSemPost(pGSemSynch);
bfc00718:	3c02a000 	lui	v0,0xa000
bfc0071c:	8c42108c 	lw	v0,4236(v0)
bfc00720:	00402021 	move	a0,v0
bfc00724:	3c02bfc0 	lui	v0,0xbfc0
bfc00728:	24594c4c 	addiu	t9,v0,19532
bfc0072c:	0320f809 	jalr	t9
bfc00730:	00000000 	nop
D:\loongson\projects\ls1d_ucos/main.c:59
	//if(CapaciDetec(pGSemTdcInt,CAPADETEC)){
		////		这个绝大部分检测都是错误的！！！	TODO
	//}
	while(1) {
		TdcSampProc(pGSemTdcInt);
bfc00734:	3c02a000 	lui	v0,0xa000
bfc00738:	8c421054 	lw	v0,4180(v0)
bfc0073c:	00402021 	move	a0,v0
bfc00740:	3c02bfc0 	lui	v0,0xbfc0
bfc00744:	24593fd8 	addiu	t9,v0,16344
bfc00748:	0320f809 	jalr	t9
bfc0074c:	00000000 	nop
D:\loongson\projects\ls1d_ucos/main.c:61

		Float2LCDBuf();
bfc00750:	3c02bfc0 	lui	v0,0xbfc0
bfc00754:	24591d58 	addiu	t9,v0,7512
bfc00758:	0320f809 	jalr	t9
bfc0075c:	00000000 	nop
D:\loongson\projects\ls1d_ucos/main.c:62
		PrintLcd();
bfc00760:	3c02bfc0 	lui	v0,0xbfc0
bfc00764:	24591144 	addiu	t9,v0,4420
bfc00768:	0320f809 	jalr	t9
bfc0076c:	00000000 	nop
D:\loongson\projects\ls1d_ucos/main.c:64

		EnSleep();
bfc00770:	3c02bfc1 	lui	v0,0xbfc1
bfc00774:	24598f38 	addiu	t9,v0,-28872
bfc00778:	0320f809 	jalr	t9
bfc0077c:	00000000 	nop
D:\loongson\projects\ls1d_ucos/main.c:65
		OSTimeDly(20 * 8000/TIMERDLY);
bfc00780:	2404000a 	li	a0,10
bfc00784:	3c02bfc0 	lui	v0,0xbfc0
bfc00788:	245963a0 	addiu	t9,v0,25504
bfc0078c:	0320f809 	jalr	t9
bfc00790:	00000000 	nop
D:\loongson\projects\ls1d_ucos/main.c:66
		DisSleep();
bfc00794:	3c02bfc1 	lui	v0,0xbfc1
bfc00798:	24598fa4 	addiu	t9,v0,-28764
bfc0079c:	0320f809 	jalr	t9
bfc007a0:	00000000 	nop
bfc007a4:	0bf001cd 	j	bfc00734 <TaskTDC+0x50>
bfc007a8:	00000000 	nop

bfc007ac <TaskInfra>:
TaskInfra():
D:\loongson\projects\ls1d_ucos/main.c:71
	}
}

void TaskInfra (void *pdata)
{
bfc007ac:	27bdffe0 	addiu	sp,sp,-32
bfc007b0:	afbf001c 	sw	ra,28(sp)
bfc007b4:	afbe0018 	sw	s8,24(sp)
bfc007b8:	03a0f021 	move	s8,sp
bfc007bc:	afc40020 	sw	a0,32(s8)
D:\loongson\projects\ls1d_ucos/main.c:74
	INT8U		err;

	OSSemPend(pGSemKeyToInfra,0,&err);
bfc007c0:	3c02a000 	lui	v0,0xa000
bfc007c4:	8c421088 	lw	v0,4232(v0)
bfc007c8:	00402021 	move	a0,v0
bfc007cc:	00002821 	move	a1,zero
bfc007d0:	27c20010 	addiu	v0,s8,16
bfc007d4:	00403021 	move	a2,v0
bfc007d8:	3c02bfc0 	lui	v0,0xbfc0
bfc007dc:	24594a94 	addiu	t9,v0,19092
bfc007e0:	0320f809 	jalr	t9
bfc007e4:	00000000 	nop
D:\loongson\projects\ls1d_ucos/main.c:76
	while(1){
		DisSleep();
bfc007e8:	3c02bfc1 	lui	v0,0xbfc1
bfc007ec:	24598fa4 	addiu	t9,v0,-28764
bfc007f0:	0320f809 	jalr	t9
bfc007f4:	00000000 	nop
D:\loongson\projects\ls1d_ucos/main.c:78
		while(1){
			Infrared1Init();
bfc007f8:	3c02bfc1 	lui	v0,0xbfc1
bfc007fc:	24599574 	addiu	t9,v0,-27276
bfc00800:	0320f809 	jalr	t9
bfc00804:	00000000 	nop
D:\loongson\projects\ls1d_ucos/main.c:79
			OSSemPend(pGSemInfraRev,30 * 8000000/ TIMERDLY,&err);
bfc00808:	3c02a000 	lui	v0,0xa000
bfc0080c:	8c42100c 	lw	v0,4108(v0)
bfc00810:	00402021 	move	a0,v0
bfc00814:	24053a98 	li	a1,15000
bfc00818:	27c20010 	addiu	v0,s8,16
bfc0081c:	00403021 	move	a2,v0
bfc00820:	3c02bfc0 	lui	v0,0xbfc0
bfc00824:	24594a94 	addiu	t9,v0,19092
bfc00828:	0320f809 	jalr	t9
bfc0082c:	00000000 	nop
D:\loongson\projects\ls1d_ucos/main.c:80
			if(err == OS_TIMEOUT){
bfc00830:	93c30010 	lbu	v1,16(s8)
bfc00834:	2402000a 	li	v0,10
bfc00838:	14620016 	bne	v1,v0,bfc00894 <TaskInfra+0xe8>
bfc0083c:	00000000 	nop
D:\loongson\projects\ls1d_ucos/main.c:81
				puts("tout");
bfc00840:	3c02bfc1 	lui	v0,0xbfc1
bfc00844:	2444976c 	addiu	a0,v0,-26772
bfc00848:	3c02bfc1 	lui	v0,0xbfc1
bfc0084c:	24599390 	addiu	t9,v0,-27760
bfc00850:	0320f809 	jalr	t9
bfc00854:	00000000 	nop
D:\loongson\projects\ls1d_ucos/main.c:82
				Infrared1Disable();
bfc00858:	3c02bfc1 	lui	v0,0xbfc1
bfc0085c:	2459962c 	addiu	t9,v0,-27092
bfc00860:	0320f809 	jalr	t9
bfc00864:	00000000 	nop
D:\loongson\projects\ls1d_ucos/main.c:83
				EnSleep();
bfc00868:	3c02bfc1 	lui	v0,0xbfc1
bfc0086c:	24598f38 	addiu	t9,v0,-28872
bfc00870:	0320f809 	jalr	t9
bfc00874:	00000000 	nop
D:\loongson\projects\ls1d_ucos/main.c:92
				//puts("received");
				InfraredBuf[19] = 0;
				puts((char *)InfraredBuf);
			}
		}
		OSTimeDly(300 * 8000/TIMERDLY);		/// 300ms
bfc00878:	24040096 	li	a0,150
bfc0087c:	3c02bfc0 	lui	v0,0xbfc0
bfc00880:	245963a0 	addiu	t9,v0,25504
bfc00884:	0320f809 	jalr	t9
bfc00888:	00000000 	nop
bfc0088c:	0bf001fa 	j	bfc007e8 <TaskInfra+0x3c>
bfc00890:	00000000 	nop
D:\loongson\projects\ls1d_ucos/main.c:85
			if(err == OS_TIMEOUT){
				puts("tout");
				Infrared1Disable();
				EnSleep();
				break;
			}else if(err == OS_NO_ERR){
bfc00894:	93c20010 	lbu	v0,16(s8)
bfc00898:	1440ffd7 	bnez	v0,bfc007f8 <TaskInfra+0x4c>
bfc0089c:	00000000 	nop
D:\loongson\projects\ls1d_ucos/main.c:88
				//InfraProc();
				//puts("received");
				InfraredBuf[19] = 0;
bfc008a0:	3c02a000 	lui	v0,0xa000
bfc008a4:	24421268 	addiu	v0,v0,4712
bfc008a8:	a0400013 	sb	zero,19(v0)
D:\loongson\projects\ls1d_ucos/main.c:89
				puts((char *)InfraredBuf);
bfc008ac:	3c02a000 	lui	v0,0xa000
bfc008b0:	24421268 	addiu	v0,v0,4712
bfc008b4:	00402021 	move	a0,v0
bfc008b8:	3c02bfc1 	lui	v0,0xbfc1
bfc008bc:	24599390 	addiu	t9,v0,-27760
bfc008c0:	0320f809 	jalr	t9
bfc008c4:	00000000 	nop
bfc008c8:	0bf001fe 	j	bfc007f8 <TaskInfra+0x4c>
bfc008cc:	00000000 	nop

bfc008d0 <TaskStartCreateTasks>:
TaskStartCreateTasks():
D:\loongson\projects\ls1d_ucos/main.c:97
		OSTimeDly(300 * 8000/TIMERDLY);		/// 300ms
	}
}

static  void  TaskStartCreateTasks (void)
{
bfc008d0:	27bdffe8 	addiu	sp,sp,-24
bfc008d4:	afbf0014 	sw	ra,20(sp)
bfc008d8:	afbe0010 	sw	s8,16(sp)
bfc008dc:	03a0f021 	move	s8,sp
D:\loongson\projects\ls1d_ucos/main.c:98
    OSTaskCreate(TaskKey, (void *)0, (OS_STK *)OSTASKSKEY, 5);
bfc008e0:	3c02bfc0 	lui	v0,0xbfc0
bfc008e4:	24440600 	addiu	a0,v0,1536
bfc008e8:	00002821 	move	a1,zero
bfc008ec:	3c02a000 	lui	v0,0xa000
bfc008f0:	34460a00 	ori	a2,v0,0xa00
bfc008f4:	24070005 	li	a3,5
bfc008f8:	3c02bfc0 	lui	v0,0xbfc0
bfc008fc:	24594f10 	addiu	t9,v0,20240
bfc00900:	0320f809 	jalr	t9
bfc00904:	00000000 	nop
D:\loongson\projects\ls1d_ucos/main.c:99
    OSTaskCreate(TaskLcd, (void *)0, (OS_STK *)OSTASKSLCD, 6);
bfc00908:	3c02bfc0 	lui	v0,0xbfc0
bfc0090c:	24440664 	addiu	a0,v0,1636
bfc00910:	00002821 	move	a1,zero
bfc00914:	3c02a000 	lui	v0,0xa000
bfc00918:	34460800 	ori	a2,v0,0x800
bfc0091c:	24070006 	li	a3,6
bfc00920:	3c02bfc0 	lui	v0,0xbfc0
bfc00924:	24594f10 	addiu	t9,v0,20240
bfc00928:	0320f809 	jalr	t9
bfc0092c:	00000000 	nop
D:\loongson\projects\ls1d_ucos/main.c:100
    OSTaskCreate(TaskTDC, (void *)0, (OS_STK *)OSTASKSTDC, 10);
bfc00930:	3c02bfc0 	lui	v0,0xbfc0
bfc00934:	244406e4 	addiu	a0,v0,1764
bfc00938:	00002821 	move	a1,zero
bfc0093c:	3c02a000 	lui	v0,0xa000
bfc00940:	34460600 	ori	a2,v0,0x600
bfc00944:	2407000a 	li	a3,10
bfc00948:	3c02bfc0 	lui	v0,0xbfc0
bfc0094c:	24594f10 	addiu	t9,v0,20240
bfc00950:	0320f809 	jalr	t9
bfc00954:	00000000 	nop
D:\loongson\projects\ls1d_ucos/main.c:101
    OSTaskCreate(TaskInfra, (void *)0, (OS_STK *)OSTASKSINFRA, 9);
bfc00958:	3c02bfc0 	lui	v0,0xbfc0
bfc0095c:	244407ac 	addiu	a0,v0,1964
bfc00960:	00002821 	move	a1,zero
bfc00964:	3c02a000 	lui	v0,0xa000
bfc00968:	34460400 	ori	a2,v0,0x400
bfc0096c:	24070009 	li	a3,9
bfc00970:	3c02bfc0 	lui	v0,0xbfc0
bfc00974:	24594f10 	addiu	t9,v0,20240
bfc00978:	0320f809 	jalr	t9
bfc0097c:	00000000 	nop
D:\loongson\projects\ls1d_ucos/main.c:102
}
bfc00980:	03c0e821 	move	sp,s8
bfc00984:	8fbf0014 	lw	ra,20(sp)
bfc00988:	8fbe0010 	lw	s8,16(sp)
bfc0098c:	27bd0018 	addiu	sp,sp,24
bfc00990:	03e00008 	jr	ra
bfc00994:	00000000 	nop

bfc00998 <TaskStart>:
TaskStart():
D:\loongson\projects\ls1d_ucos/main.c:109

/**********************************************************************************************************
*                                              STARTUP TASK
**********************************************************************************************************/
void  TaskStart (void *pdata)
{
bfc00998:	27bdffe8 	addiu	sp,sp,-24
bfc0099c:	afbf0014 	sw	ra,20(sp)
bfc009a0:	afbe0010 	sw	s8,16(sp)
bfc009a4:	03a0f021 	move	s8,sp
bfc009a8:	afc40018 	sw	a0,24(s8)
D:\loongson\projects\ls1d_ucos/main.c:110
	Lcd_HW_Init();
bfc009ac:	3c02bfc1 	lui	v0,0xbfc1
bfc009b0:	24599124 	addiu	t9,v0,-28380
bfc009b4:	0320f809 	jalr	t9
bfc009b8:	00000000 	nop
D:\loongson\projects\ls1d_ucos/main.c:111
	Uart0_38400B();
bfc009bc:	3c02bfc1 	lui	v0,0xbfc1
bfc009c0:	24599220 	addiu	t9,v0,-28128
bfc009c4:	0320f809 	jalr	t9
bfc009c8:	00000000 	nop
D:\loongson\projects\ls1d_ucos/main.c:114

	/** 后面的  InitWaker  用到了 pGMboxKey  pGSemTdcInt 所以需要提前创建！**/
	pGMboxKey		= OSMboxCreate(NULL);
bfc009cc:	00002021 	move	a0,zero
bfc009d0:	3c02bfc0 	lui	v0,0xbfc0
bfc009d4:	245965c0 	addiu	t9,v0,26048
bfc009d8:	0320f809 	jalr	t9
bfc009dc:	00000000 	nop
bfc009e0:	00401821 	move	v1,v0
bfc009e4:	3c02a000 	lui	v0,0xa000
bfc009e8:	ac4310a4 	sw	v1,4260(v0)
D:\loongson\projects\ls1d_ucos/main.c:115
	pGSemTdcInt		= OSSemCreate(0);
bfc009ec:	00002021 	move	a0,zero
bfc009f0:	3c02bfc0 	lui	v0,0xbfc0
bfc009f4:	245949a0 	addiu	t9,v0,18848
bfc009f8:	0320f809 	jalr	t9
bfc009fc:	00000000 	nop
bfc00a00:	00401821 	move	v1,v0
bfc00a04:	3c02a000 	lui	v0,0xa000
bfc00a08:	ac431054 	sw	v1,4180(v0)
D:\loongson\projects\ls1d_ucos/main.c:117

	InitWaker();
bfc00a0c:	3c02bfc1 	lui	v0,0xbfc1
bfc00a10:	24598ad8 	addiu	t9,v0,-29992
bfc00a14:	0320f809 	jalr	t9
bfc00a18:	00000000 	nop
D:\loongson\projects\ls1d_ucos/main.c:119

	pGSemKeyToInfra	= OSSemCreate(0);
bfc00a1c:	00002021 	move	a0,zero
bfc00a20:	3c02bfc0 	lui	v0,0xbfc0
bfc00a24:	245949a0 	addiu	t9,v0,18848
bfc00a28:	0320f809 	jalr	t9
bfc00a2c:	00000000 	nop
bfc00a30:	00401821 	move	v1,v0
bfc00a34:	3c02a000 	lui	v0,0xa000
bfc00a38:	ac431088 	sw	v1,4232(v0)
D:\loongson\projects\ls1d_ucos/main.c:120
	pGSemInfraRev	= OSSemCreate(0);
bfc00a3c:	00002021 	move	a0,zero
bfc00a40:	3c02bfc0 	lui	v0,0xbfc0
bfc00a44:	245949a0 	addiu	t9,v0,18848
bfc00a48:	0320f809 	jalr	t9
bfc00a4c:	00000000 	nop
bfc00a50:	00401821 	move	v1,v0
bfc00a54:	3c02a000 	lui	v0,0xa000
bfc00a58:	ac43100c 	sw	v1,4108(v0)
D:\loongson\projects\ls1d_ucos/main.c:121
	pGSemSynch		= OSSemCreate(0);
bfc00a5c:	00002021 	move	a0,zero
bfc00a60:	3c02bfc0 	lui	v0,0xbfc0
bfc00a64:	245949a0 	addiu	t9,v0,18848
bfc00a68:	0320f809 	jalr	t9
bfc00a6c:	00000000 	nop
bfc00a70:	00401821 	move	v1,v0
bfc00a74:	3c02a000 	lui	v0,0xa000
bfc00a78:	ac43108c 	sw	v1,4236(v0)
D:\loongson\projects\ls1d_ucos/main.c:123

    TaskStartCreateTasks();                                /* Create all the application tasks         */
bfc00a7c:	0ff00234 	jal	bfc008d0 <TaskStartCreateTasks>
bfc00a80:	00000000 	nop
D:\loongson\projects\ls1d_ucos/main.c:130
    for (;;) {
    	//if(BatFailErased <8){
    	//	Flash_Erase_page((_u32)(BATFailAddr + (BatFailErased << 7)));
    	//	BatFailErased ++;
    	//}
    	OSTimeDly(300 * 8000/TIMERDLY );
bfc00a84:	24040096 	li	a0,150
bfc00a88:	3c02bfc0 	lui	v0,0xbfc0
bfc00a8c:	245963a0 	addiu	t9,v0,25504
bfc00a90:	0320f809 	jalr	t9
bfc00a94:	00000000 	nop
bfc00a98:	0bf002a1 	j	bfc00a84 <TaskStart+0xec>
bfc00a9c:	00000000 	nop

bfc00aa0 <OSTaskIdleHook>:
OSTaskIdleHook():
D:\loongson\projects\ls1d_ucos/main.c:141
 * 这个函数被空闲任务所调用，因此肯定是无法被阻塞的。 OSTimeDly 和 Pend 之类的函数无法调用！
 * 调用这个函数的时候 已经进入 临界区了，因此无需再  ENTER_CRITICAL 了，这个应当尽量简单，
 * 这个 函数仅仅判断一下全局变量 WakeEn 如果不符合条件就很快退出了，如果符合就把cpu休眠。
 * */
void	OSTaskIdleHook()
{
bfc00aa0:	27bdffe0 	addiu	sp,sp,-32
bfc00aa4:	afbf001c 	sw	ra,28(sp)
bfc00aa8:	afbe0018 	sw	s8,24(sp)
bfc00aac:	03a0f021 	move	s8,sp
D:\loongson\projects\ls1d_ucos/main.c:142
    if( SleepEn == 4){
bfc00ab0:	3c02a000 	lui	v0,0xa000
bfc00ab4:	90421099 	lbu	v0,4249(v0)
bfc00ab8:	304300ff 	andi	v1,v0,0xff
bfc00abc:	24020004 	li	v0,4
bfc00ac0:	14620032 	bne	v1,v0,bfc00b8c <OSTaskIdleHook+0xec>
bfc00ac4:	00000000 	nop
D:\loongson\projects\ls1d_ucos/main.c:143
		if( CASE_ISSET(PMUWAKE) || CASE_ISSET(POWERUP) ){					// 只要是被wake唤醒的，或者上电启动的一次。就睡眠足够时间
bfc00ac8:	3c02a000 	lui	v0,0xa000
bfc00acc:	8c4210b0 	lw	v0,4272(v0)
bfc00ad0:	30420004 	andi	v0,v0,0x4
bfc00ad4:	14400006 	bnez	v0,bfc00af0 <OSTaskIdleHook+0x50>
bfc00ad8:	00000000 	nop
bfc00adc:	3c02a000 	lui	v0,0xa000
bfc00ae0:	8c4210b0 	lw	v0,4272(v0)
bfc00ae4:	30420002 	andi	v0,v0,0x2
bfc00ae8:	10400018 	beqz	v0,bfc00b4c <OSTaskIdleHook+0xac>
bfc00aec:	00000000 	nop
D:\loongson\projects\ls1d_ucos/main.c:144
			if(SampingMode	== USER){										// 被  key 唤醒,被 res 唤醒的cpu，并且在这次执行期间发生了 wake 中断！
bfc00af0:	3c02a000 	lui	v0,0xa000
bfc00af4:	8c421044 	lw	v0,4164(v0)
bfc00af8:	14400008 	bnez	v0,bfc00b1c <OSTaskIdleHook+0x7c>
bfc00afc:	00000000 	nop
D:\loongson\projects\ls1d_ucos/main.c:145
				SetPDTime(USERWAKE);										// 也在这里面考虑之内的
bfc00b00:	24040020 	li	a0,32
bfc00b04:	3c02bfc1 	lui	v0,0xbfc1
bfc00b08:	24598e58 	addiu	t9,v0,-29096
bfc00b0c:	0320f809 	jalr	t9
bfc00b10:	00000000 	nop
bfc00b14:	0bf002df 	j	bfc00b7c <OSTaskIdleHook+0xdc>
bfc00b18:	00000000 	nop
D:\loongson\projects\ls1d_ucos/main.c:146
			}else if(SampingMode	== DOCIM){
bfc00b1c:	3c02a000 	lui	v0,0xa000
bfc00b20:	8c431044 	lw	v1,4164(v0)
bfc00b24:	24020001 	li	v0,1
bfc00b28:	14620014 	bne	v1,v0,bfc00b7c <OSTaskIdleHook+0xdc>
bfc00b2c:	00000000 	nop
D:\loongson\projects\ls1d_ucos/main.c:147
				SetPDTime(DOCIMWAKE);
bfc00b30:	24040004 	li	a0,4
bfc00b34:	3c02bfc1 	lui	v0,0xbfc1
bfc00b38:	24598e58 	addiu	t9,v0,-29096
bfc00b3c:	0320f809 	jalr	t9
bfc00b40:	00000000 	nop
bfc00b44:	0bf002df 	j	bfc00b7c <OSTaskIdleHook+0xdc>
bfc00b48:	00000000 	nop
D:\loongson\projects\ls1d_ucos/main.c:149
			}
		}else if( CASE_ISSET(KEYWAKE) ||  CASE_ISSET(TIMEWAKE) || CASE_ISSET(THSENSWAKE) ){
bfc00b4c:	3c02a000 	lui	v0,0xa000
bfc00b50:	8c4210b0 	lw	v0,4272(v0)
bfc00b54:	30420008 	andi	v0,v0,0x8
bfc00b58:	14400008 	bnez	v0,bfc00b7c <OSTaskIdleHook+0xdc>
bfc00b5c:	00000000 	nop
bfc00b60:	3c02a000 	lui	v0,0xa000
bfc00b64:	8c4210b0 	lw	v0,4272(v0)
bfc00b68:	30420010 	andi	v0,v0,0x10
bfc00b6c:	14400003 	bnez	v0,bfc00b7c <OSTaskIdleHook+0xdc>
bfc00b70:	00000000 	nop
bfc00b74:	3c02a000 	lui	v0,0xa000
bfc00b78:	8c4210b0 	lw	v0,4272(v0)
D:\loongson\projects\ls1d_ucos/main.c:152
				/// DO Nothing
		}
		CpuSleep();
bfc00b7c:	3c02bfc1 	lui	v0,0xbfc1
bfc00b80:	24598ebc 	addiu	t9,v0,-28996
bfc00b84:	0320f809 	jalr	t9
bfc00b88:	00000000 	nop
D:\loongson\projects\ls1d_ucos/main.c:154
	}
}
bfc00b8c:	03c0e821 	move	sp,s8
bfc00b90:	8fbf001c 	lw	ra,28(sp)
bfc00b94:	8fbe0018 	lw	s8,24(sp)
bfc00b98:	27bd0020 	addiu	sp,sp,32
bfc00b9c:	03e00008 	jr	ra
bfc00ba0:	00000000 	nop

bfc00ba4 <main>:
main():
D:\loongson\projects\ls1d_ucos/main.c:158

/**main 函数 一般不用理会，任务的创建都是在 TaskStartCreateTasks 里面完成的**/
int main()
{
bfc00ba4:	27bdffe8 	addiu	sp,sp,-24
bfc00ba8:	afbf0014 	sw	ra,20(sp)
bfc00bac:	afbe0010 	sw	s8,16(sp)
bfc00bb0:	03a0f021 	move	s8,sp
D:\loongson\projects\ls1d_ucos/main.c:159
	WakeUpPmuCnt	= ChkWakeUp();
bfc00bb4:	3c02bfc1 	lui	v0,0xbfc1
bfc00bb8:	24598990 	addiu	t9,v0,-30320
bfc00bbc:	0320f809 	jalr	t9
bfc00bc0:	00000000 	nop
bfc00bc4:	00401821 	move	v1,v0
bfc00bc8:	3c02a000 	lui	v0,0xa000
bfc00bcc:	ac431038 	sw	v1,4152(v0)
D:\loongson\projects\ls1d_ucos/main.c:161

	OSInit();
bfc00bd0:	3c02bfc0 	lui	v0,0xbfc0
bfc00bd4:	245950f0 	addiu	t9,v0,20720
bfc00bd8:	0320f809 	jalr	t9
bfc00bdc:	00000000 	nop
D:\loongson\projects\ls1d_ucos/main.c:163

	WakeWaitInt();
bfc00be0:	3c02bfc1 	lui	v0,0xbfc1
bfc00be4:	24598a64 	addiu	t9,v0,-30108
bfc00be8:	0320f809 	jalr	t9
bfc00bec:	00000000 	nop
D:\loongson\projects\ls1d_ucos/main.c:165

	OSTaskCreate(TaskStart, (void *)0, (OS_STK *)OSTASKSTARTSTK , 0);
bfc00bf0:	3c02bfc0 	lui	v0,0xbfc0
bfc00bf4:	24440998 	addiu	a0,v0,2456
bfc00bf8:	00002821 	move	a1,zero
bfc00bfc:	3c02a000 	lui	v0,0xa000
bfc00c00:	34460d00 	ori	a2,v0,0xd00
bfc00c04:	00003821 	move	a3,zero
bfc00c08:	3c02bfc0 	lui	v0,0xbfc0
bfc00c0c:	24594f10 	addiu	t9,v0,20240
bfc00c10:	0320f809 	jalr	t9
bfc00c14:	00000000 	nop
D:\loongson\projects\ls1d_ucos/main.c:167

	OSStart();                                             /* Start multitasking */
bfc00c18:	3c02bfc0 	lui	v0,0xbfc0
bfc00c1c:	245954e8 	addiu	t9,v0,21736
bfc00c20:	0320f809 	jalr	t9
bfc00c24:	00000000 	nop
bfc00c28:	0bf0030a 	j	bfc00c28 <main+0x84>
bfc00c2c:	00000000 	nop

bfc00c30 <PrintTime>:
PrintTime():
D:\loongson\projects\ls1d_ucos\Func/lcdshow.c:6
#include "includes.h"


/****release 模式下 编译器 会优化成一次函数调用 ？？ ****/
void	PrintTime(INT8U *buf)
{
bfc00c30:	27bdffe0 	addiu	sp,sp,-32
bfc00c34:	afbf001c 	sw	ra,28(sp)
bfc00c38:	afbe0018 	sw	s8,24(sp)
bfc00c3c:	afb00014 	sw	s0,20(sp)
bfc00c40:	03a0f021 	move	s8,sp
bfc00c44:	afc40020 	sw	a0,32(s8)
D:\loongson\projects\ls1d_ucos\Func/lcdshow.c:7
	memset1d((void *)buf,0,12);
bfc00c48:	8fc40020 	lw	a0,32(s8)
bfc00c4c:	00002821 	move	a1,zero
bfc00c50:	2406000c 	li	a2,12
bfc00c54:	3c02bfc0 	lui	v0,0xbfc0
bfc00c58:	24597e04 	addiu	t9,v0,32260
bfc00c5c:	0320f809 	jalr	t9
bfc00c60:	00000000 	nop
D:\loongson\projects\ls1d_ucos\Func/lcdshow.c:9
/**/
	buf[7]	= LCDNumber[(Hex2Bcd(hour)&0xf0)>>4];
bfc00c64:	8fc20020 	lw	v0,32(s8)
bfc00c68:	24500007 	addiu	s0,v0,7
bfc00c6c:	3c02a000 	lui	v0,0xa000
bfc00c70:	90421060 	lbu	v0,4192(v0)
bfc00c74:	304200ff 	andi	v0,v0,0xff
bfc00c78:	00402021 	move	a0,v0
bfc00c7c:	3c02bfc0 	lui	v0,0xbfc0
bfc00c80:	24597f10 	addiu	t9,v0,32528
bfc00c84:	0320f809 	jalr	t9
bfc00c88:	00000000 	nop
bfc00c8c:	00021102 	srl	v0,v0,0x4
bfc00c90:	304200ff 	andi	v0,v0,0xff
bfc00c94:	00401821 	move	v1,v0
bfc00c98:	3c02bfc1 	lui	v0,0xbfc1
bfc00c9c:	24429720 	addiu	v0,v0,-26848
bfc00ca0:	00621021 	addu	v0,v1,v0
bfc00ca4:	90420000 	lbu	v0,0(v0)
bfc00ca8:	a2020000 	sb	v0,0(s0)
D:\loongson\projects\ls1d_ucos\Func/lcdshow.c:10
	buf[8]	= LCDNumber[Hex2Bcd(hour)&0x0f];
bfc00cac:	8fc20020 	lw	v0,32(s8)
bfc00cb0:	24500008 	addiu	s0,v0,8
bfc00cb4:	3c02a000 	lui	v0,0xa000
bfc00cb8:	90421060 	lbu	v0,4192(v0)
bfc00cbc:	304200ff 	andi	v0,v0,0xff
bfc00cc0:	00402021 	move	a0,v0
bfc00cc4:	3c02bfc0 	lui	v0,0xbfc0
bfc00cc8:	24597f10 	addiu	t9,v0,32528
bfc00ccc:	0320f809 	jalr	t9
bfc00cd0:	00000000 	nop
bfc00cd4:	3043000f 	andi	v1,v0,0xf
bfc00cd8:	3c02bfc1 	lui	v0,0xbfc1
bfc00cdc:	24429720 	addiu	v0,v0,-26848
bfc00ce0:	00621021 	addu	v0,v1,v0
bfc00ce4:	90420000 	lbu	v0,0(v0)
bfc00ce8:	a2020000 	sb	v0,0(s0)
D:\loongson\projects\ls1d_ucos\Func/lcdshow.c:12

	buf[4]	= LCDNumber[(Hex2Bcd(minute)&0xf0)>>4];
bfc00cec:	8fc20020 	lw	v0,32(s8)
bfc00cf0:	24500004 	addiu	s0,v0,4
bfc00cf4:	3c02a000 	lui	v0,0xa000
bfc00cf8:	9042103c 	lbu	v0,4156(v0)
bfc00cfc:	304200ff 	andi	v0,v0,0xff
bfc00d00:	00402021 	move	a0,v0
bfc00d04:	3c02bfc0 	lui	v0,0xbfc0
bfc00d08:	24597f10 	addiu	t9,v0,32528
bfc00d0c:	0320f809 	jalr	t9
bfc00d10:	00000000 	nop
bfc00d14:	00021102 	srl	v0,v0,0x4
bfc00d18:	304200ff 	andi	v0,v0,0xff
bfc00d1c:	00401821 	move	v1,v0
bfc00d20:	3c02bfc1 	lui	v0,0xbfc1
bfc00d24:	24429720 	addiu	v0,v0,-26848
bfc00d28:	00621021 	addu	v0,v1,v0
bfc00d2c:	90420000 	lbu	v0,0(v0)
bfc00d30:	a2020000 	sb	v0,0(s0)
D:\loongson\projects\ls1d_ucos\Func/lcdshow.c:13
	buf[5]	= LCDNumber[Hex2Bcd(minute)&0x0f];
bfc00d34:	8fc20020 	lw	v0,32(s8)
bfc00d38:	24500005 	addiu	s0,v0,5
bfc00d3c:	3c02a000 	lui	v0,0xa000
bfc00d40:	9042103c 	lbu	v0,4156(v0)
bfc00d44:	304200ff 	andi	v0,v0,0xff
bfc00d48:	00402021 	move	a0,v0
bfc00d4c:	3c02bfc0 	lui	v0,0xbfc0
bfc00d50:	24597f10 	addiu	t9,v0,32528
bfc00d54:	0320f809 	jalr	t9
bfc00d58:	00000000 	nop
bfc00d5c:	3043000f 	andi	v1,v0,0xf
bfc00d60:	3c02bfc1 	lui	v0,0xbfc1
bfc00d64:	24429720 	addiu	v0,v0,-26848
bfc00d68:	00621021 	addu	v0,v1,v0
bfc00d6c:	90420000 	lbu	v0,0(v0)
bfc00d70:	a2020000 	sb	v0,0(s0)
D:\loongson\projects\ls1d_ucos\Func/lcdshow.c:15

	buf[1]	= LCDNumber[(Hex2Bcd(second)&0xf0)>>4];
bfc00d74:	8fc20020 	lw	v0,32(s8)
bfc00d78:	24500001 	addiu	s0,v0,1
bfc00d7c:	3c02a000 	lui	v0,0xa000
bfc00d80:	90421034 	lbu	v0,4148(v0)
bfc00d84:	304200ff 	andi	v0,v0,0xff
bfc00d88:	00402021 	move	a0,v0
bfc00d8c:	3c02bfc0 	lui	v0,0xbfc0
bfc00d90:	24597f10 	addiu	t9,v0,32528
bfc00d94:	0320f809 	jalr	t9
bfc00d98:	00000000 	nop
bfc00d9c:	00021102 	srl	v0,v0,0x4
bfc00da0:	304200ff 	andi	v0,v0,0xff
bfc00da4:	00401821 	move	v1,v0
bfc00da8:	3c02bfc1 	lui	v0,0xbfc1
bfc00dac:	24429720 	addiu	v0,v0,-26848
bfc00db0:	00621021 	addu	v0,v1,v0
bfc00db4:	90420000 	lbu	v0,0(v0)
bfc00db8:	a2020000 	sb	v0,0(s0)
D:\loongson\projects\ls1d_ucos\Func/lcdshow.c:16
	buf[2]	= LCDNumber[Hex2Bcd(second)&0x0f];
bfc00dbc:	8fc20020 	lw	v0,32(s8)
bfc00dc0:	24500002 	addiu	s0,v0,2
bfc00dc4:	3c02a000 	lui	v0,0xa000
bfc00dc8:	90421034 	lbu	v0,4148(v0)
bfc00dcc:	304200ff 	andi	v0,v0,0xff
bfc00dd0:	00402021 	move	a0,v0
bfc00dd4:	3c02bfc0 	lui	v0,0xbfc0
bfc00dd8:	24597f10 	addiu	t9,v0,32528
bfc00ddc:	0320f809 	jalr	t9
bfc00de0:	00000000 	nop
bfc00de4:	3043000f 	andi	v1,v0,0xf
bfc00de8:	3c02bfc1 	lui	v0,0xbfc1
bfc00dec:	24429720 	addiu	v0,v0,-26848
bfc00df0:	00621021 	addu	v0,v1,v0
bfc00df4:	90420000 	lbu	v0,0(v0)
bfc00df8:	a2020000 	sb	v0,0(s0)
D:\loongson\projects\ls1d_ucos\Func/lcdshow.c:17
}
bfc00dfc:	03c0e821 	move	sp,s8
bfc00e00:	8fbf001c 	lw	ra,28(sp)
bfc00e04:	8fbe0018 	lw	s8,24(sp)
bfc00e08:	8fb00014 	lw	s0,20(sp)
bfc00e0c:	27bd0020 	addiu	sp,sp,32
bfc00e10:	03e00008 	jr	ra
bfc00e14:	00000000 	nop

bfc00e18 <PrintLCDFloat>:
PrintLCDFloat():
D:\loongson\projects\ls1d_ucos\Func/lcdshow.c:21


void	PrintLCDFloat(INT8U *lcdbuf)
{
bfc00e18:	27bdffe0 	addiu	sp,sp,-32
bfc00e1c:	afbf001c 	sw	ra,28(sp)
bfc00e20:	afbe0018 	sw	s8,24(sp)
bfc00e24:	03a0f021 	move	s8,sp
bfc00e28:	afc40020 	sw	a0,32(s8)
D:\loongson\projects\ls1d_ucos\Func/lcdshow.c:24
	INT8U	DecimalIndex,i;

	DecimalIndex	= memchar1d(LCDContent,9,'.');
bfc00e2c:	3c02a000 	lui	v0,0xa000
bfc00e30:	24441130 	addiu	a0,v0,4400
bfc00e34:	24050009 	li	a1,9
bfc00e38:	2406002e 	li	a2,46
bfc00e3c:	3c02bfc0 	lui	v0,0xbfc0
bfc00e40:	24597d48 	addiu	t9,v0,32072
bfc00e44:	0320f809 	jalr	t9
bfc00e48:	00000000 	nop
bfc00e4c:	a3c20011 	sb	v0,17(s8)
D:\loongson\projects\ls1d_ucos\Func/lcdshow.c:25
	if( (DecimalIndex == 0) || (DecimalIndex == 9) ){								/// 没有小数点
bfc00e50:	93c20011 	lbu	v0,17(s8)
bfc00e54:	10400005 	beqz	v0,bfc00e6c <PrintLCDFloat+0x54>
bfc00e58:	00000000 	nop
bfc00e5c:	93c30011 	lbu	v1,17(s8)
bfc00e60:	24020009 	li	v0,9
bfc00e64:	1462001d 	bne	v1,v0,bfc00edc <PrintLCDFloat+0xc4>
bfc00e68:	00000000 	nop
D:\loongson\projects\ls1d_ucos\Func/lcdshow.c:26
		for(i = 1;i <= 8;i ++){
bfc00e6c:	24020001 	li	v0,1
bfc00e70:	a3c20010 	sb	v0,16(s8)
bfc00e74:	0bf003b1 	j	bfc00ec4 <PrintLCDFloat+0xac>
bfc00e78:	00000000 	nop
D:\loongson\projects\ls1d_ucos\Func/lcdshow.c:27
			lcdbuf[i]	= LCDNumber[LCDContent[i-1] - '0'];			/// 这个 '0' 可以去掉的 TODO
bfc00e7c:	93c30010 	lbu	v1,16(s8)
bfc00e80:	8fc20020 	lw	v0,32(s8)
bfc00e84:	00432021 	addu	a0,v0,v1
bfc00e88:	93c20010 	lbu	v0,16(s8)
bfc00e8c:	2443ffff 	addiu	v1,v0,-1
bfc00e90:	3c02a000 	lui	v0,0xa000
bfc00e94:	24421130 	addiu	v0,v0,4400
bfc00e98:	00621021 	addu	v0,v1,v0
bfc00e9c:	90420000 	lbu	v0,0(v0)
bfc00ea0:	2443ffd0 	addiu	v1,v0,-48
bfc00ea4:	3c02bfc1 	lui	v0,0xbfc1
bfc00ea8:	24429720 	addiu	v0,v0,-26848
bfc00eac:	00621021 	addu	v0,v1,v0
bfc00eb0:	90420000 	lbu	v0,0(v0)
bfc00eb4:	a0820000 	sb	v0,0(a0)
D:\loongson\projects\ls1d_ucos\Func/lcdshow.c:26
{
	INT8U	DecimalIndex,i;

	DecimalIndex	= memchar1d(LCDContent,9,'.');
	if( (DecimalIndex == 0) || (DecimalIndex == 9) ){								/// 没有小数点
		for(i = 1;i <= 8;i ++){
bfc00eb8:	93c20010 	lbu	v0,16(s8)
bfc00ebc:	24420001 	addiu	v0,v0,1
bfc00ec0:	a3c20010 	sb	v0,16(s8)
bfc00ec4:	93c20010 	lbu	v0,16(s8)
bfc00ec8:	2c420009 	sltiu	v0,v0,9
bfc00ecc:	1440ffeb 	bnez	v0,bfc00e7c <PrintLCDFloat+0x64>
bfc00ed0:	00000000 	nop
bfc00ed4:	0bf0041b 	j	bfc0106c <PrintLCDFloat+0x254>
bfc00ed8:	00000000 	nop
D:\loongson\projects\ls1d_ucos\Func/lcdshow.c:29
			lcdbuf[i]	= LCDNumber[LCDContent[i-1] - '0'];			/// 这个 '0' 可以去掉的 TODO
		}
	}else if(DecimalIndex == 2){						/// 整数只有1个，因为lcd小数上小数点从第二位开始，所以最高位补 0
bfc00edc:	93c30011 	lbu	v1,17(s8)
bfc00ee0:	24020002 	li	v0,2
bfc00ee4:	1462002c 	bne	v1,v0,bfc00f98 <PrintLCDFloat+0x180>
bfc00ee8:	00000000 	nop
D:\loongson\projects\ls1d_ucos\Func/lcdshow.c:30
		lcdbuf[1]	= LCDNumber[0];
bfc00eec:	8fc20020 	lw	v0,32(s8)
bfc00ef0:	24430001 	addiu	v1,v0,1
bfc00ef4:	3c02bfc1 	lui	v0,0xbfc1
bfc00ef8:	90429720 	lbu	v0,-26848(v0)
bfc00efc:	a0620000 	sb	v0,0(v1)
D:\loongson\projects\ls1d_ucos\Func/lcdshow.c:31
		lcdbuf[2]	= LCDNumber[LCDContent[0] - '0'];
bfc00f00:	8fc20020 	lw	v0,32(s8)
bfc00f04:	24440002 	addiu	a0,v0,2
bfc00f08:	3c02a000 	lui	v0,0xa000
bfc00f0c:	90421130 	lbu	v0,4400(v0)
bfc00f10:	2443ffd0 	addiu	v1,v0,-48
bfc00f14:	3c02bfc1 	lui	v0,0xbfc1
bfc00f18:	24429720 	addiu	v0,v0,-26848
bfc00f1c:	00621021 	addu	v0,v1,v0
bfc00f20:	90420000 	lbu	v0,0(v0)
bfc00f24:	a0820000 	sb	v0,0(a0)
D:\loongson\projects\ls1d_ucos\Func/lcdshow.c:32
		for(i = 3;i <= 8;i ++){
bfc00f28:	24020003 	li	v0,3
bfc00f2c:	a3c20010 	sb	v0,16(s8)
bfc00f30:	0bf003e0 	j	bfc00f80 <PrintLCDFloat+0x168>
bfc00f34:	00000000 	nop
D:\loongson\projects\ls1d_ucos\Func/lcdshow.c:33
			lcdbuf[i]	=  LCDNumber[LCDContent[i-1] - '0'];
bfc00f38:	93c30010 	lbu	v1,16(s8)
bfc00f3c:	8fc20020 	lw	v0,32(s8)
bfc00f40:	00432021 	addu	a0,v0,v1
bfc00f44:	93c20010 	lbu	v0,16(s8)
bfc00f48:	2443ffff 	addiu	v1,v0,-1
bfc00f4c:	3c02a000 	lui	v0,0xa000
bfc00f50:	24421130 	addiu	v0,v0,4400
bfc00f54:	00621021 	addu	v0,v1,v0
bfc00f58:	90420000 	lbu	v0,0(v0)
bfc00f5c:	2443ffd0 	addiu	v1,v0,-48
bfc00f60:	3c02bfc1 	lui	v0,0xbfc1
bfc00f64:	24429720 	addiu	v0,v0,-26848
bfc00f68:	00621021 	addu	v0,v1,v0
bfc00f6c:	90420000 	lbu	v0,0(v0)
bfc00f70:	a0820000 	sb	v0,0(a0)
D:\loongson\projects\ls1d_ucos\Func/lcdshow.c:32
			lcdbuf[i]	= LCDNumber[LCDContent[i-1] - '0'];			/// 这个 '0' 可以去掉的 TODO
		}
	}else if(DecimalIndex == 2){						/// 整数只有1个，因为lcd小数上小数点从第二位开始，所以最高位补 0
		lcdbuf[1]	= LCDNumber[0];
		lcdbuf[2]	= LCDNumber[LCDContent[0] - '0'];
		for(i = 3;i <= 8;i ++){
bfc00f74:	93c20010 	lbu	v0,16(s8)
bfc00f78:	24420001 	addiu	v0,v0,1
bfc00f7c:	a3c20010 	sb	v0,16(s8)
bfc00f80:	93c20010 	lbu	v0,16(s8)
bfc00f84:	2c420009 	sltiu	v0,v0,9
bfc00f88:	1440ffeb 	bnez	v0,bfc00f38 <PrintLCDFloat+0x120>
bfc00f8c:	00000000 	nop
bfc00f90:	0bf0041b 	j	bfc0106c <PrintLCDFloat+0x254>
bfc00f94:	00000000 	nop
D:\loongson\projects\ls1d_ucos\Func/lcdshow.c:36
			lcdbuf[i]	=  LCDNumber[LCDContent[i-1] - '0'];
		}
	}else {
		for(i = 1;i <= DecimalIndex-1;i ++){
bfc00f98:	24020001 	li	v0,1
bfc00f9c:	a3c20010 	sb	v0,16(s8)
bfc00fa0:	0bf003fc 	j	bfc00ff0 <PrintLCDFloat+0x1d8>
bfc00fa4:	00000000 	nop
D:\loongson\projects\ls1d_ucos\Func/lcdshow.c:37
			lcdbuf[i]	= LCDNumber[LCDContent[i-1] - '0'];
bfc00fa8:	93c30010 	lbu	v1,16(s8)
bfc00fac:	8fc20020 	lw	v0,32(s8)
bfc00fb0:	00432021 	addu	a0,v0,v1
bfc00fb4:	93c20010 	lbu	v0,16(s8)
bfc00fb8:	2443ffff 	addiu	v1,v0,-1
bfc00fbc:	3c02a000 	lui	v0,0xa000
bfc00fc0:	24421130 	addiu	v0,v0,4400
bfc00fc4:	00621021 	addu	v0,v1,v0
bfc00fc8:	90420000 	lbu	v0,0(v0)
bfc00fcc:	2443ffd0 	addiu	v1,v0,-48
bfc00fd0:	3c02bfc1 	lui	v0,0xbfc1
bfc00fd4:	24429720 	addiu	v0,v0,-26848
bfc00fd8:	00621021 	addu	v0,v1,v0
bfc00fdc:	90420000 	lbu	v0,0(v0)
bfc00fe0:	a0820000 	sb	v0,0(a0)
D:\loongson\projects\ls1d_ucos\Func/lcdshow.c:36
		lcdbuf[2]	= LCDNumber[LCDContent[0] - '0'];
		for(i = 3;i <= 8;i ++){
			lcdbuf[i]	=  LCDNumber[LCDContent[i-1] - '0'];
		}
	}else {
		for(i = 1;i <= DecimalIndex-1;i ++){
bfc00fe4:	93c20010 	lbu	v0,16(s8)
bfc00fe8:	24420001 	addiu	v0,v0,1
bfc00fec:	a3c20010 	sb	v0,16(s8)
bfc00ff0:	93c30010 	lbu	v1,16(s8)
bfc00ff4:	93c20011 	lbu	v0,17(s8)
bfc00ff8:	2442ffff 	addiu	v0,v0,-1
bfc00ffc:	0043102a 	slt	v0,v0,v1
bfc01000:	1040ffe9 	beqz	v0,bfc00fa8 <PrintLCDFloat+0x190>
bfc01004:	00000000 	nop
D:\loongson\projects\ls1d_ucos\Func/lcdshow.c:39
			lcdbuf[i]	= LCDNumber[LCDContent[i-1] - '0'];
		}
		for(i = DecimalIndex ; i <= 8; i ++){
bfc01008:	93c20011 	lbu	v0,17(s8)
bfc0100c:	a3c20010 	sb	v0,16(s8)
bfc01010:	0bf00417 	j	bfc0105c <PrintLCDFloat+0x244>
bfc01014:	00000000 	nop
D:\loongson\projects\ls1d_ucos\Func/lcdshow.c:40
			lcdbuf[i]	= LCDNumber[LCDContent[i] - '0'];
bfc01018:	93c30010 	lbu	v1,16(s8)
bfc0101c:	8fc20020 	lw	v0,32(s8)
bfc01020:	00432021 	addu	a0,v0,v1
bfc01024:	93c30010 	lbu	v1,16(s8)
bfc01028:	3c02a000 	lui	v0,0xa000
bfc0102c:	24421130 	addiu	v0,v0,4400
bfc01030:	00621021 	addu	v0,v1,v0
bfc01034:	90420000 	lbu	v0,0(v0)
bfc01038:	2443ffd0 	addiu	v1,v0,-48
bfc0103c:	3c02bfc1 	lui	v0,0xbfc1
bfc01040:	24429720 	addiu	v0,v0,-26848
bfc01044:	00621021 	addu	v0,v1,v0
bfc01048:	90420000 	lbu	v0,0(v0)
bfc0104c:	a0820000 	sb	v0,0(a0)
D:\loongson\projects\ls1d_ucos\Func/lcdshow.c:39
		}
	}else {
		for(i = 1;i <= DecimalIndex-1;i ++){
			lcdbuf[i]	= LCDNumber[LCDContent[i-1] - '0'];
		}
		for(i = DecimalIndex ; i <= 8; i ++){
bfc01050:	93c20010 	lbu	v0,16(s8)
bfc01054:	24420001 	addiu	v0,v0,1
bfc01058:	a3c20010 	sb	v0,16(s8)
bfc0105c:	93c20010 	lbu	v0,16(s8)
bfc01060:	2c420009 	sltiu	v0,v0,9
bfc01064:	1440ffec 	bnez	v0,bfc01018 <PrintLCDFloat+0x200>
bfc01068:	00000000 	nop
D:\loongson\projects\ls1d_ucos\Func/lcdshow.c:43
			lcdbuf[i]	= LCDNumber[LCDContent[i] - '0'];
		}
	}
	if((DecimalIndex == 3) || (DecimalIndex == 2)){
bfc0106c:	93c30011 	lbu	v1,17(s8)
bfc01070:	24020003 	li	v0,3
bfc01074:	10620005 	beq	v1,v0,bfc0108c <PrintLCDFloat+0x274>
bfc01078:	00000000 	nop
bfc0107c:	93c30011 	lbu	v1,17(s8)
bfc01080:	24020002 	li	v0,2
bfc01084:	14620008 	bne	v1,v0,bfc010a8 <PrintLCDFloat+0x290>
bfc01088:	00000000 	nop
D:\loongson\projects\ls1d_ucos\Func/lcdshow.c:44
		*((INT32U *)&lcdbuf[0])	|= 1<<12;
bfc0108c:	8fc30020 	lw	v1,32(s8)
bfc01090:	8fc20020 	lw	v0,32(s8)
bfc01094:	8c420000 	lw	v0,0(v0)
bfc01098:	34421000 	ori	v0,v0,0x1000
bfc0109c:	ac620000 	sw	v0,0(v1)
bfc010a0:	0bf0044b 	j	bfc0112c <PrintLCDFloat+0x314>
bfc010a4:	00000000 	nop
D:\loongson\projects\ls1d_ucos\Func/lcdshow.c:45
	}else if(DecimalIndex == 4){
bfc010a8:	93c30011 	lbu	v1,17(s8)
bfc010ac:	24020004 	li	v0,4
bfc010b0:	14620009 	bne	v1,v0,bfc010d8 <PrintLCDFloat+0x2c0>
bfc010b4:	00000000 	nop
D:\loongson\projects\ls1d_ucos\Func/lcdshow.c:46
		*((INT32U *)&lcdbuf[0])	|= 1<<28;
bfc010b8:	8fc40020 	lw	a0,32(s8)
bfc010bc:	8fc20020 	lw	v0,32(s8)
bfc010c0:	8c430000 	lw	v1,0(v0)
bfc010c4:	3c021000 	lui	v0,0x1000
bfc010c8:	00621025 	or	v0,v1,v0
bfc010cc:	ac820000 	sw	v0,0(a0)
bfc010d0:	0bf0044b 	j	bfc0112c <PrintLCDFloat+0x314>
bfc010d4:	00000000 	nop
D:\loongson\projects\ls1d_ucos\Func/lcdshow.c:47
	}else if((DecimalIndex >= 5) && (DecimalIndex <= 8)){
bfc010d8:	93c20011 	lbu	v0,17(s8)
bfc010dc:	2c420005 	sltiu	v0,v0,5
bfc010e0:	14400012 	bnez	v0,bfc0112c <PrintLCDFloat+0x314>
bfc010e4:	00000000 	nop
bfc010e8:	93c20011 	lbu	v0,17(s8)
bfc010ec:	2c420009 	sltiu	v0,v0,9
bfc010f0:	1040000e 	beqz	v0,bfc0112c <PrintLCDFloat+0x314>
bfc010f4:	00000000 	nop
D:\loongson\projects\ls1d_ucos\Func/lcdshow.c:48
		*((INT32U *)&lcdbuf[4])	|= 1 << (4  + ((DecimalIndex - 5) << 3) );
bfc010f8:	8fc20020 	lw	v0,32(s8)
bfc010fc:	24450004 	addiu	a1,v0,4
bfc01100:	8fc20020 	lw	v0,32(s8)
bfc01104:	24420004 	addiu	v0,v0,4
bfc01108:	8c440000 	lw	a0,0(v0)
bfc0110c:	93c20011 	lbu	v0,17(s8)
bfc01110:	2442fffb 	addiu	v0,v0,-5
bfc01114:	000210c0 	sll	v0,v0,0x3
bfc01118:	24430004 	addiu	v1,v0,4
bfc0111c:	24020001 	li	v0,1
bfc01120:	00621004 	sllv	v0,v0,v1
bfc01124:	00821025 	or	v0,a0,v0
bfc01128:	aca20000 	sw	v0,0(a1)
D:\loongson\projects\ls1d_ucos\Func/lcdshow.c:50
	}
}
bfc0112c:	03c0e821 	move	sp,s8
bfc01130:	8fbf001c 	lw	ra,28(sp)
bfc01134:	8fbe0018 	lw	s8,24(sp)
bfc01138:	27bd0020 	addiu	sp,sp,32
bfc0113c:	03e00008 	jr	ra
bfc01140:	00000000 	nop

bfc01144 <PrintLcd>:
PrintLcd():
D:\loongson\projects\ls1d_ucos\Func/lcdshow.c:57

/**这个函数完成之后可能会很大 ，
 * 虽然这个函数很大，但是都是分支执行的  所消耗时间应该不多！
 * 这个函数不应该使用浮点计算！ 	**/
void PrintLcd(void)
{
bfc01144:	27bdffd0 	addiu	sp,sp,-48
bfc01148:	afbf002c 	sw	ra,44(sp)
bfc0114c:	afbe0028 	sw	s8,40(sp)
bfc01150:	03a0f021 	move	s8,sp
D:\loongson\projects\ls1d_ucos\Func/lcdshow.c:61
	//INT8U	DecimalIndex,i;
	INT8U	lcdbuf[12];

	memset1d(lcdbuf,0,12);
bfc01154:	27c20010 	addiu	v0,s8,16
bfc01158:	00402021 	move	a0,v0
bfc0115c:	00002821 	move	a1,zero
bfc01160:	2406000c 	li	a2,12
bfc01164:	3c02bfc0 	lui	v0,0xbfc0
bfc01168:	24597e04 	addiu	t9,v0,32260
bfc0116c:	0320f809 	jalr	t9
bfc01170:	00000000 	nop
D:\loongson\projects\ls1d_ucos\Func/lcdshow.c:62
	if( (MajorMenu == 1) || (MajorMenu == 4) ){
bfc01174:	3c02a000 	lui	v0,0xa000
bfc01178:	90421084 	lbu	v0,4228(v0)
bfc0117c:	304300ff 	andi	v1,v0,0xff
bfc01180:	24020001 	li	v0,1
bfc01184:	10620007 	beq	v1,v0,bfc011a4 <PrintLcd+0x60>
bfc01188:	00000000 	nop
bfc0118c:	3c02a000 	lui	v0,0xa000
bfc01190:	90421084 	lbu	v0,4228(v0)
bfc01194:	304300ff 	andi	v1,v0,0xff
bfc01198:	24020004 	li	v0,4
bfc0119c:	14620053 	bne	v1,v0,bfc012ec <PrintLcd+0x1a8>
bfc011a0:	00000000 	nop
D:\loongson\projects\ls1d_ucos\Func/lcdshow.c:63
		PrintLCDFloat(lcdbuf);
bfc011a4:	27c20010 	addiu	v0,s8,16
bfc011a8:	00402021 	move	a0,v0
bfc011ac:	0ff00386 	jal	bfc00e18 <PrintLCDFloat>
bfc011b0:	00000000 	nop
D:\loongson\projects\ls1d_ucos\Func/lcdshow.c:64
		switch(MinorMenu) {
bfc011b4:	3c02a000 	lui	v0,0xa000
bfc011b8:	90421061 	lbu	v0,4193(v0)
bfc011bc:	304200ff 	andi	v0,v0,0xff
bfc011c0:	afc20020 	sw	v0,32(s8)
bfc011c4:	8fc30020 	lw	v1,32(s8)
bfc011c8:	2c620006 	sltiu	v0,v1,6
bfc011cc:	10400034 	beqz	v0,bfc012a0 <PrintLcd+0x15c>
bfc011d0:	00000000 	nop
bfc011d4:	8fc20020 	lw	v0,32(s8)
bfc011d8:	00021880 	sll	v1,v0,0x2
bfc011dc:	3c02bfc1 	lui	v0,0xbfc1
bfc011e0:	24429780 	addiu	v0,v0,-26752
bfc011e4:	00621021 	addu	v0,v1,v0
bfc011e8:	8c420000 	lw	v0,0(v0)
bfc011ec:	00400008 	jr	v0
bfc011f0:	00000000 	nop
D:\loongson\projects\ls1d_ucos\Func/lcdshow.c:66
		case 0:
			*((INT32U *)&lcdbuf[0])	|= 1<<20;
bfc011f4:	27c40010 	addiu	a0,s8,16
bfc011f8:	27c20010 	addiu	v0,s8,16
bfc011fc:	8c430000 	lw	v1,0(v0)
bfc01200:	3c020010 	lui	v0,0x10
bfc01204:	00621025 	or	v0,v1,v0
bfc01208:	ac820000 	sw	v0,0(a0)
bfc0120c:	0bf004a8 	j	bfc012a0 <PrintLcd+0x15c>
bfc01210:	00000000 	nop
D:\loongson\projects\ls1d_ucos\Func/lcdshow.c:71
			break;
		case 1:							/// 功率 ，没有汉字
			break;
		case 2:							/// 供回水温度（℃）
			*((INT32U *)&lcdbuf[8])	|= (1<<9) | (1<<15);
bfc01214:	27c30018 	addiu	v1,s8,24
bfc01218:	27c20018 	addiu	v0,s8,24
bfc0121c:	8c420000 	lw	v0,0(v0)
bfc01220:	34428200 	ori	v0,v0,0x8200
bfc01224:	ac620000 	sw	v0,0(v1)
bfc01228:	0bf004a8 	j	bfc012a0 <PrintLcd+0x15c>
bfc0122c:	00000000 	nop
D:\loongson\projects\ls1d_ucos\Func/lcdshow.c:74
			break;
		case 3:							///	温差（℃）
			*((INT32U *)&lcdbuf[8])	|= (1<<9) | (1<<15);
bfc01230:	27c30018 	addiu	v1,s8,24
bfc01234:	27c20018 	addiu	v0,s8,24
bfc01238:	8c420000 	lw	v0,0(v0)
bfc0123c:	34428200 	ori	v0,v0,0x8200
bfc01240:	ac620000 	sw	v0,0(v1)
bfc01244:	0bf004a8 	j	bfc012a0 <PrintLcd+0x15c>
bfc01248:	00000000 	nop
D:\loongson\projects\ls1d_ucos\Func/lcdshow.c:77
			break;
		case 4:							/// 累积流量（m3）
			*((INT32U *)&lcdbuf[0])	|= 1<<20;
bfc0124c:	27c40010 	addiu	a0,s8,16
bfc01250:	27c20010 	addiu	v0,s8,16
bfc01254:	8c430000 	lw	v1,0(v0)
bfc01258:	3c020010 	lui	v0,0x10
bfc0125c:	00621025 	or	v0,v1,v0
bfc01260:	ac820000 	sw	v0,0(a0)
D:\loongson\projects\ls1d_ucos\Func/lcdshow.c:78
			*((INT32U *)&lcdbuf[8])	|= 1<<16;
bfc01264:	27c40018 	addiu	a0,s8,24
bfc01268:	27c20018 	addiu	v0,s8,24
bfc0126c:	8c430000 	lw	v1,0(v0)
bfc01270:	3c020001 	lui	v0,0x1
bfc01274:	00621025 	or	v0,v1,v0
bfc01278:	ac820000 	sw	v0,0(a0)
bfc0127c:	0bf004a8 	j	bfc012a0 <PrintLcd+0x15c>
bfc01280:	00000000 	nop
D:\loongson\projects\ls1d_ucos\Func/lcdshow.c:81
			break;
		case 5:							/// 瞬时流量（m3/h）
			*((INT32U *)&lcdbuf[8])	|= (1<<8) | (1<<16) | (1<<17) | (1<<18);
bfc01284:	27c40018 	addiu	a0,s8,24
bfc01288:	27c20018 	addiu	v0,s8,24
bfc0128c:	8c430000 	lw	v1,0(v0)
bfc01290:	3c020007 	lui	v0,0x7
bfc01294:	34420100 	ori	v0,v0,0x100
bfc01298:	00621025 	or	v0,v1,v0
bfc0129c:	ac820000 	sw	v0,0(a0)
D:\loongson\projects\ls1d_ucos\Func/lcdshow.c:84
			break;
		}
		if( (MajorMenu == 4) && (MinorMenu == 6) ){
bfc012a0:	3c02a000 	lui	v0,0xa000
bfc012a4:	90421084 	lbu	v0,4228(v0)
bfc012a8:	304300ff 	andi	v1,v0,0xff
bfc012ac:	24020004 	li	v0,4
bfc012b0:	146200af 	bne	v1,v0,bfc01570 <PrintLcd+0x42c>
bfc012b4:	00000000 	nop
bfc012b8:	3c02a000 	lui	v0,0xa000
bfc012bc:	90421061 	lbu	v0,4193(v0)
bfc012c0:	304300ff 	andi	v1,v0,0xff
bfc012c4:	24020006 	li	v0,6
bfc012c8:	146200a9 	bne	v1,v0,bfc01570 <PrintLcd+0x42c>
bfc012cc:	00000000 	nop
D:\loongson\projects\ls1d_ucos\Func/lcdshow.c:85
			*((INT32U *)&lcdbuf[8])	|= 1<<8;
bfc012d0:	27c30018 	addiu	v1,s8,24
bfc012d4:	27c20018 	addiu	v0,s8,24
bfc012d8:	8c420000 	lw	v0,0(v0)
bfc012dc:	34420100 	ori	v0,v0,0x100
bfc012e0:	ac620000 	sw	v0,0(v1)
bfc012e4:	0bf0055c 	j	bfc01570 <PrintLcd+0x42c>
bfc012e8:	00000000 	nop
D:\loongson\projects\ls1d_ucos\Func/lcdshow.c:87
		}
	}else if(MajorMenu == 2){
bfc012ec:	3c02a000 	lui	v0,0xa000
bfc012f0:	90421084 	lbu	v0,4228(v0)
bfc012f4:	304300ff 	andi	v1,v0,0xff
bfc012f8:	24020002 	li	v0,2
bfc012fc:	14620047 	bne	v1,v0,bfc0141c <PrintLcd+0x2d8>
bfc01300:	00000000 	nop
D:\loongson\projects\ls1d_ucos\Func/lcdshow.c:88
		if( (MinorMenu >= 0) && (MinorMenu <= 3) ){
bfc01304:	3c02a000 	lui	v0,0xa000
bfc01308:	90421061 	lbu	v0,4193(v0)
bfc0130c:	3c02a000 	lui	v0,0xa000
bfc01310:	90421061 	lbu	v0,4193(v0)
bfc01314:	304200ff 	andi	v0,v0,0xff
bfc01318:	2c420004 	sltiu	v0,v0,4
bfc0131c:	10400023 	beqz	v0,bfc013ac <PrintLcd+0x268>
bfc01320:	00000000 	nop
D:\loongson\projects\ls1d_ucos\Func/lcdshow.c:89
			memcpy1d(&lcdbuf[1],LCDContent, 8);
bfc01324:	27c20011 	addiu	v0,s8,17
bfc01328:	00402021 	move	a0,v0
bfc0132c:	3c02a000 	lui	v0,0xa000
bfc01330:	24451130 	addiu	a1,v0,4400
bfc01334:	24060008 	li	a2,8
bfc01338:	3c02bfc0 	lui	v0,0xbfc0
bfc0133c:	24597e84 	addiu	t9,v0,32388
bfc01340:	0320f809 	jalr	t9
bfc01344:	00000000 	nop
D:\loongson\projects\ls1d_ucos\Func/lcdshow.c:90
			if(MinorMenu == 0){
bfc01348:	3c02a000 	lui	v0,0xa000
bfc0134c:	90421061 	lbu	v0,4193(v0)
bfc01350:	304200ff 	andi	v0,v0,0xff
bfc01354:	14400008 	bnez	v0,bfc01378 <PrintLcd+0x234>
bfc01358:	00000000 	nop
D:\loongson\projects\ls1d_ucos\Func/lcdshow.c:91
				*((INT32U *)&lcdbuf[8])	|= 1<<11;
bfc0135c:	27c30018 	addiu	v1,s8,24
bfc01360:	27c20018 	addiu	v0,s8,24
bfc01364:	8c420000 	lw	v0,0(v0)
bfc01368:	34420800 	ori	v0,v0,0x800
bfc0136c:	ac620000 	sw	v0,0(v1)
bfc01370:	0bf0055c 	j	bfc01570 <PrintLcd+0x42c>
bfc01374:	00000000 	nop
D:\loongson\projects\ls1d_ucos\Func/lcdshow.c:92
			}else if(MinorMenu == 1)
bfc01378:	3c02a000 	lui	v0,0xa000
bfc0137c:	90421061 	lbu	v0,4193(v0)
bfc01380:	304300ff 	andi	v1,v0,0xff
bfc01384:	24020001 	li	v0,1
bfc01388:	14620079 	bne	v1,v0,bfc01570 <PrintLcd+0x42c>
bfc0138c:	00000000 	nop
D:\loongson\projects\ls1d_ucos\Func/lcdshow.c:93
				*((INT32U *)&lcdbuf[8])	|= 1<<10;
bfc01390:	27c30018 	addiu	v1,s8,24
bfc01394:	27c20018 	addiu	v0,s8,24
bfc01398:	8c420000 	lw	v0,0(v0)
bfc0139c:	34420400 	ori	v0,v0,0x400
bfc013a0:	ac620000 	sw	v0,0(v1)
bfc013a4:	0bf0055c 	j	bfc01570 <PrintLcd+0x42c>
bfc013a8:	00000000 	nop
D:\loongson\projects\ls1d_ucos\Func/lcdshow.c:94
		}else if(MinorMenu == 4){
bfc013ac:	3c02a000 	lui	v0,0xa000
bfc013b0:	90421061 	lbu	v0,4193(v0)
bfc013b4:	304300ff 	andi	v1,v0,0xff
bfc013b8:	24020004 	li	v0,4
bfc013bc:	14620007 	bne	v1,v0,bfc013dc <PrintLcd+0x298>
bfc013c0:	00000000 	nop
D:\loongson\projects\ls1d_ucos\Func/lcdshow.c:95
			PrintLCDFloat(lcdbuf);
bfc013c4:	27c20010 	addiu	v0,s8,16
bfc013c8:	00402021 	move	a0,v0
bfc013cc:	0ff00386 	jal	bfc00e18 <PrintLCDFloat>
bfc013d0:	00000000 	nop
bfc013d4:	0bf0055c 	j	bfc01570 <PrintLcd+0x42c>
bfc013d8:	00000000 	nop
D:\loongson\projects\ls1d_ucos\Func/lcdshow.c:96
		}else if(MinorMenu == 5){
bfc013dc:	3c02a000 	lui	v0,0xa000
bfc013e0:	90421061 	lbu	v0,4193(v0)
bfc013e4:	304300ff 	andi	v1,v0,0xff
bfc013e8:	24020005 	li	v0,5
bfc013ec:	14620060 	bne	v1,v0,bfc01570 <PrintLcd+0x42c>
bfc013f0:	00000000 	nop
D:\loongson\projects\ls1d_ucos\Func/lcdshow.c:97
			memset1d(lcdbuf,0xff,12);
bfc013f4:	27c20010 	addiu	v0,s8,16
bfc013f8:	00402021 	move	a0,v0
bfc013fc:	240500ff 	li	a1,255
bfc01400:	2406000c 	li	a2,12
bfc01404:	3c02bfc0 	lui	v0,0xbfc0
bfc01408:	24597e04 	addiu	t9,v0,32260
bfc0140c:	0320f809 	jalr	t9
bfc01410:	00000000 	nop
bfc01414:	0bf0055c 	j	bfc01570 <PrintLcd+0x42c>
bfc01418:	00000000 	nop
D:\loongson\projects\ls1d_ucos\Func/lcdshow.c:99
		}
	}else if( (MajorMenu == 3) && (MinorMenu != 0xff)){
bfc0141c:	3c02a000 	lui	v0,0xa000
bfc01420:	90421084 	lbu	v0,4228(v0)
bfc01424:	304300ff 	andi	v1,v0,0xff
bfc01428:	24020003 	li	v0,3
bfc0142c:	14620050 	bne	v1,v0,bfc01570 <PrintLcd+0x42c>
bfc01430:	00000000 	nop
bfc01434:	3c02a000 	lui	v0,0xa000
bfc01438:	90421061 	lbu	v0,4193(v0)
bfc0143c:	304300ff 	andi	v1,v0,0xff
bfc01440:	240200ff 	li	v0,255
bfc01444:	1062004a 	beq	v1,v0,bfc01570 <PrintLcd+0x42c>
bfc01448:	00000000 	nop
D:\loongson\projects\ls1d_ucos\Func/lcdshow.c:100
		if((MinorMenu %3) == 0){
bfc0144c:	3c02a000 	lui	v0,0xa000
bfc01450:	90421061 	lbu	v0,4193(v0)
bfc01454:	304400ff 	andi	a0,v0,0xff
bfc01458:	3c02aaaa 	lui	v0,0xaaaa
bfc0145c:	3442aaab 	ori	v0,v0,0xaaab
bfc01460:	00820019 	multu	a0,v0
bfc01464:	00001010 	mfhi	v0
bfc01468:	00021842 	srl	v1,v0,0x1
bfc0146c:	00601021 	move	v0,v1
bfc01470:	00021040 	sll	v0,v0,0x1
bfc01474:	00431021 	addu	v0,v0,v1
bfc01478:	00821023 	subu	v0,a0,v0
bfc0147c:	304200ff 	andi	v0,v0,0xff
bfc01480:	14400011 	bnez	v0,bfc014c8 <PrintLcd+0x384>
bfc01484:	00000000 	nop
D:\loongson\projects\ls1d_ucos\Func/lcdshow.c:101
			memcpy1d(&lcdbuf[1],LCDContent, 8);
bfc01488:	27c20011 	addiu	v0,s8,17
bfc0148c:	00402021 	move	a0,v0
bfc01490:	3c02a000 	lui	v0,0xa000
bfc01494:	24451130 	addiu	a1,v0,4400
bfc01498:	24060008 	li	a2,8
bfc0149c:	3c02bfc0 	lui	v0,0xbfc0
bfc014a0:	24597e84 	addiu	t9,v0,32388
bfc014a4:	0320f809 	jalr	t9
bfc014a8:	00000000 	nop
D:\loongson\projects\ls1d_ucos\Func/lcdshow.c:102
			*((INT32U *)&lcdbuf[8])	|= 1<<10;
bfc014ac:	27c30018 	addiu	v1,s8,24
bfc014b0:	27c20018 	addiu	v0,s8,24
bfc014b4:	8c420000 	lw	v0,0(v0)
bfc014b8:	34420400 	ori	v0,v0,0x400
bfc014bc:	ac620000 	sw	v0,0(v1)
bfc014c0:	0bf0055c 	j	bfc01570 <PrintLcd+0x42c>
bfc014c4:	00000000 	nop
D:\loongson\projects\ls1d_ucos\Func/lcdshow.c:103
		}else if((MinorMenu %3) == 1){
bfc014c8:	3c02a000 	lui	v0,0xa000
bfc014cc:	90421061 	lbu	v0,4193(v0)
bfc014d0:	304400ff 	andi	a0,v0,0xff
bfc014d4:	3c02aaaa 	lui	v0,0xaaaa
bfc014d8:	3442aaab 	ori	v0,v0,0xaaab
bfc014dc:	00820019 	multu	a0,v0
bfc014e0:	00001010 	mfhi	v0
bfc014e4:	00021842 	srl	v1,v0,0x1
bfc014e8:	00601021 	move	v0,v1
bfc014ec:	00021040 	sll	v0,v0,0x1
bfc014f0:	00431021 	addu	v0,v0,v1
bfc014f4:	00821023 	subu	v0,a0,v0
bfc014f8:	304300ff 	andi	v1,v0,0xff
bfc014fc:	24020001 	li	v0,1
bfc01500:	14620007 	bne	v1,v0,bfc01520 <PrintLcd+0x3dc>
bfc01504:	00000000 	nop
D:\loongson\projects\ls1d_ucos\Func/lcdshow.c:104
			PrintLCDFloat(lcdbuf);
bfc01508:	27c20010 	addiu	v0,s8,16
bfc0150c:	00402021 	move	a0,v0
bfc01510:	0ff00386 	jal	bfc00e18 <PrintLCDFloat>
bfc01514:	00000000 	nop
bfc01518:	0bf0055c 	j	bfc01570 <PrintLcd+0x42c>
bfc0151c:	00000000 	nop
D:\loongson\projects\ls1d_ucos\Func/lcdshow.c:105
		}else if((MinorMenu %3) == 2){
bfc01520:	3c02a000 	lui	v0,0xa000
bfc01524:	90421061 	lbu	v0,4193(v0)
bfc01528:	304400ff 	andi	a0,v0,0xff
bfc0152c:	3c02aaaa 	lui	v0,0xaaaa
bfc01530:	3442aaab 	ori	v0,v0,0xaaab
bfc01534:	00820019 	multu	a0,v0
bfc01538:	00001010 	mfhi	v0
bfc0153c:	00021842 	srl	v1,v0,0x1
bfc01540:	00601021 	move	v0,v1
bfc01544:	00021040 	sll	v0,v0,0x1
bfc01548:	00431021 	addu	v0,v0,v1
bfc0154c:	00821023 	subu	v0,a0,v0
bfc01550:	304300ff 	andi	v1,v0,0xff
bfc01554:	24020002 	li	v0,2
bfc01558:	14620005 	bne	v1,v0,bfc01570 <PrintLcd+0x42c>
bfc0155c:	00000000 	nop
D:\loongson\projects\ls1d_ucos\Func/lcdshow.c:106
			PrintLCDFloat(lcdbuf);
bfc01560:	27c20010 	addiu	v0,s8,16
bfc01564:	00402021 	move	a0,v0
bfc01568:	0ff00386 	jal	bfc00e18 <PrintLCDFloat>
bfc0156c:	00000000 	nop
D:\loongson\projects\ls1d_ucos\Func/lcdshow.c:109
		}
	}
	if(MinorMenu == 0xff){
bfc01570:	3c02a000 	lui	v0,0xa000
bfc01574:	90421061 	lbu	v0,4193(v0)
bfc01578:	304300ff 	andi	v1,v0,0xff
bfc0157c:	240200ff 	li	v0,255
bfc01580:	1462000a 	bne	v1,v0,bfc015ac <PrintLcd+0x468>
bfc01584:	00000000 	nop
D:\loongson\projects\ls1d_ucos\Func/lcdshow.c:110
		memcpy1d(&lcdbuf[1],LCDContent, 8);
bfc01588:	27c20011 	addiu	v0,s8,17
bfc0158c:	00402021 	move	a0,v0
bfc01590:	3c02a000 	lui	v0,0xa000
bfc01594:	24451130 	addiu	a1,v0,4400
bfc01598:	24060008 	li	a2,8
bfc0159c:	3c02bfc0 	lui	v0,0xbfc0
bfc015a0:	24597e84 	addiu	t9,v0,32388
bfc015a4:	0320f809 	jalr	t9
bfc015a8:	00000000 	nop
D:\loongson\projects\ls1d_ucos\Func/lcdshow.c:112
	}
	if(MajorMenu == 4){																/// 显示检定模式
bfc015ac:	3c02a000 	lui	v0,0xa000
bfc015b0:	90421084 	lbu	v0,4228(v0)
bfc015b4:	304300ff 	andi	v1,v0,0xff
bfc015b8:	24020004 	li	v0,4
bfc015bc:	14620006 	bne	v1,v0,bfc015d8 <PrintLcd+0x494>
bfc015c0:	00000000 	nop
D:\loongson\projects\ls1d_ucos\Func/lcdshow.c:113
		*((INT32U *)&lcdbuf[8])	|= 1<<13;
bfc015c4:	27c30018 	addiu	v1,s8,24
bfc015c8:	27c20018 	addiu	v0,s8,24
bfc015cc:	8c420000 	lw	v0,0(v0)
bfc015d0:	34422000 	ori	v0,v0,0x2000
bfc015d4:	ac620000 	sw	v0,0(v1)
D:\loongson\projects\ls1d_ucos\Func/lcdshow.c:115
	}
	if(VoltageFlag & (1<<14)){														/// 显示低电压
bfc015d8:	3c02a000 	lui	v0,0xa000
bfc015dc:	94421048 	lhu	v0,4168(v0)
bfc015e0:	3042ffff 	andi	v0,v0,0xffff
bfc015e4:	30424000 	andi	v0,v0,0x4000
bfc015e8:	10400006 	beqz	v0,bfc01604 <PrintLcd+0x4c0>
bfc015ec:	00000000 	nop
D:\loongson\projects\ls1d_ucos\Func/lcdshow.c:116
		*((INT32U *)&lcdbuf[8])	|= 1<<4;
bfc015f0:	27c30018 	addiu	v1,s8,24
bfc015f4:	27c20018 	addiu	v0,s8,24
bfc015f8:	8c420000 	lw	v0,0(v0)
bfc015fc:	34420010 	ori	v0,v0,0x10
bfc01600:	ac620000 	sw	v0,0(v1)
D:\loongson\projects\ls1d_ucos\Func/lcdshow.c:118
	}
	WriteLcdRegs(lcdbuf);
bfc01604:	27c20010 	addiu	v0,s8,16
bfc01608:	00402021 	move	a0,v0
bfc0160c:	3c02bfc1 	lui	v0,0xbfc1
bfc01610:	245990b4 	addiu	t9,v0,-28492
bfc01614:	0320f809 	jalr	t9
bfc01618:	00000000 	nop
D:\loongson\projects\ls1d_ucos\Func/lcdshow.c:119
}
bfc0161c:	03c0e821 	move	sp,s8
bfc01620:	8fbf002c 	lw	ra,44(sp)
bfc01624:	8fbe0028 	lw	s8,40(sp)
bfc01628:	27bd0030 	addiu	sp,sp,48
bfc0162c:	03e00008 	jr	ra
bfc01630:	00000000 	nop
bfc01634:	00000000 	nop
bfc01638:	00000000 	nop
bfc0163c:	00000000 	nop

bfc01640 <ShortKey>:
ShortKey():
D:\loongson\projects\ls1d_ucos\Func/keyprocess.c:4
#include "includes.h"

void ShortKey(void)
{
bfc01640:	27bdfff8 	addiu	sp,sp,-8
bfc01644:	afbe0004 	sw	s8,4(sp)
bfc01648:	03a0f021 	move	s8,sp
D:\loongson\projects\ls1d_ucos\Func/keyprocess.c:5
	MinorMenu ++;
bfc0164c:	3c02a000 	lui	v0,0xa000
bfc01650:	90421061 	lbu	v0,4193(v0)
bfc01654:	304200ff 	andi	v0,v0,0xff
bfc01658:	24420001 	addiu	v0,v0,1
bfc0165c:	304300ff 	andi	v1,v0,0xff
bfc01660:	3c02a000 	lui	v0,0xa000
bfc01664:	a0431061 	sb	v1,4193(v0)
D:\loongson\projects\ls1d_ucos\Func/keyprocess.c:6
	if( ((MajorMenu == 1) || (MajorMenu == 2)) && (MinorMenu == 6) ){
bfc01668:	3c02a000 	lui	v0,0xa000
bfc0166c:	90421084 	lbu	v0,4228(v0)
bfc01670:	304300ff 	andi	v1,v0,0xff
bfc01674:	24020001 	li	v0,1
bfc01678:	10620007 	beq	v1,v0,bfc01698 <ShortKey+0x58>
bfc0167c:	00000000 	nop
bfc01680:	3c02a000 	lui	v0,0xa000
bfc01684:	90421084 	lbu	v0,4228(v0)
bfc01688:	304300ff 	andi	v1,v0,0xff
bfc0168c:	24020002 	li	v0,2
bfc01690:	1462000b 	bne	v1,v0,bfc016c0 <ShortKey+0x80>
bfc01694:	00000000 	nop
bfc01698:	3c02a000 	lui	v0,0xa000
bfc0169c:	90421061 	lbu	v0,4193(v0)
bfc016a0:	304300ff 	andi	v1,v0,0xff
bfc016a4:	24020006 	li	v0,6
bfc016a8:	14620005 	bne	v1,v0,bfc016c0 <ShortKey+0x80>
bfc016ac:	00000000 	nop
D:\loongson\projects\ls1d_ucos\Func/keyprocess.c:7
		MinorMenu	= 0;
bfc016b0:	3c02a000 	lui	v0,0xa000
bfc016b4:	a0401061 	sb	zero,4193(v0)
bfc016b8:	0bf005ce 	j	bfc01738 <ShortKey+0xf8>
bfc016bc:	00000000 	nop
D:\loongson\projects\ls1d_ucos\Func/keyprocess.c:8
	}else if( (MajorMenu == 3) && (MinorMenu == 54) ){
bfc016c0:	3c02a000 	lui	v0,0xa000
bfc016c4:	90421084 	lbu	v0,4228(v0)
bfc016c8:	304300ff 	andi	v1,v0,0xff
bfc016cc:	24020003 	li	v0,3
bfc016d0:	1462000b 	bne	v1,v0,bfc01700 <ShortKey+0xc0>
bfc016d4:	00000000 	nop
bfc016d8:	3c02a000 	lui	v0,0xa000
bfc016dc:	90421061 	lbu	v0,4193(v0)
bfc016e0:	304300ff 	andi	v1,v0,0xff
bfc016e4:	24020036 	li	v0,54
bfc016e8:	14620005 	bne	v1,v0,bfc01700 <ShortKey+0xc0>
bfc016ec:	00000000 	nop
D:\loongson\projects\ls1d_ucos\Func/keyprocess.c:9
		MinorMenu	= 0;
bfc016f0:	3c02a000 	lui	v0,0xa000
bfc016f4:	a0401061 	sb	zero,4193(v0)
bfc016f8:	0bf005ce 	j	bfc01738 <ShortKey+0xf8>
bfc016fc:	00000000 	nop
D:\loongson\projects\ls1d_ucos\Func/keyprocess.c:10
	}else if( (MajorMenu == 4) && (MinorMenu == 7) ){
bfc01700:	3c02a000 	lui	v0,0xa000
bfc01704:	90421084 	lbu	v0,4228(v0)
bfc01708:	304300ff 	andi	v1,v0,0xff
bfc0170c:	24020004 	li	v0,4
bfc01710:	14620009 	bne	v1,v0,bfc01738 <ShortKey+0xf8>
bfc01714:	00000000 	nop
bfc01718:	3c02a000 	lui	v0,0xa000
bfc0171c:	90421061 	lbu	v0,4193(v0)
bfc01720:	304300ff 	andi	v1,v0,0xff
bfc01724:	24020007 	li	v0,7
bfc01728:	14620003 	bne	v1,v0,bfc01738 <ShortKey+0xf8>
bfc0172c:	00000000 	nop
D:\loongson\projects\ls1d_ucos\Func/keyprocess.c:11
		MinorMenu	= 0;
bfc01730:	3c02a000 	lui	v0,0xa000
bfc01734:	a0401061 	sb	zero,4193(v0)
D:\loongson\projects\ls1d_ucos\Func/keyprocess.c:13
	}
}
bfc01738:	03c0e821 	move	sp,s8
bfc0173c:	8fbe0004 	lw	s8,4(sp)
bfc01740:	27bd0008 	addiu	sp,sp,8
bfc01744:	03e00008 	jr	ra
bfc01748:	00000000 	nop

bfc0174c <LongKey>:
LongKey():
D:\loongson\projects\ls1d_ucos\Func/keyprocess.c:16

void	LongKey(void)
{
bfc0174c:	27bdfff8 	addiu	sp,sp,-8
bfc01750:	afbe0004 	sw	s8,4(sp)
bfc01754:	03a0f021 	move	s8,sp
D:\loongson\projects\ls1d_ucos\Func/keyprocess.c:17
	if( (MajorMenu == 1) && (MinorMenu == 5) ){
bfc01758:	3c02a000 	lui	v0,0xa000
bfc0175c:	90421084 	lbu	v0,4228(v0)
bfc01760:	304300ff 	andi	v1,v0,0xff
bfc01764:	24020001 	li	v0,1
bfc01768:	1462000e 	bne	v1,v0,bfc017a4 <LongKey+0x58>
bfc0176c:	00000000 	nop
bfc01770:	3c02a000 	lui	v0,0xa000
bfc01774:	90421061 	lbu	v0,4193(v0)
bfc01778:	304300ff 	andi	v1,v0,0xff
bfc0177c:	24020005 	li	v0,5
bfc01780:	14620008 	bne	v1,v0,bfc017a4 <LongKey+0x58>
bfc01784:	00000000 	nop
D:\loongson\projects\ls1d_ucos\Func/keyprocess.c:18
		MajorMenu	= 4;
bfc01788:	3c02a000 	lui	v0,0xa000
bfc0178c:	24030004 	li	v1,4
bfc01790:	a0431084 	sb	v1,4228(v0)
D:\loongson\projects\ls1d_ucos\Func/keyprocess.c:19
		MinorMenu	= 0;
bfc01794:	3c02a000 	lui	v0,0xa000
bfc01798:	a0401061 	sb	zero,4193(v0)
bfc0179c:	0bf00604 	j	bfc01810 <LongKey+0xc4>
bfc017a0:	00000000 	nop
D:\loongson\projects\ls1d_ucos\Func/keyprocess.c:21
	}else {
		if(MajorMenu == 4){
bfc017a4:	3c02a000 	lui	v0,0xa000
bfc017a8:	90421084 	lbu	v0,4228(v0)
bfc017ac:	304300ff 	andi	v1,v0,0xff
bfc017b0:	24020004 	li	v0,4
bfc017b4:	14620003 	bne	v1,v0,bfc017c4 <LongKey+0x78>
bfc017b8:	00000000 	nop
D:\loongson\projects\ls1d_ucos\Func/keyprocess.c:22
			SampingMode	= USER;
bfc017bc:	3c02a000 	lui	v0,0xa000
bfc017c0:	ac401044 	sw	zero,4164(v0)
D:\loongson\projects\ls1d_ucos\Func/keyprocess.c:24
		}
		MajorMenu ++;
bfc017c4:	3c02a000 	lui	v0,0xa000
bfc017c8:	90421084 	lbu	v0,4228(v0)
bfc017cc:	304200ff 	andi	v0,v0,0xff
bfc017d0:	24420001 	addiu	v0,v0,1
bfc017d4:	304300ff 	andi	v1,v0,0xff
bfc017d8:	3c02a000 	lui	v0,0xa000
bfc017dc:	a0431084 	sb	v1,4228(v0)
D:\loongson\projects\ls1d_ucos\Func/keyprocess.c:25
		MinorMenu	= 0xff;			/// 这个为 0xff 代表切换大菜单 时候显示第几菜单，如果为 0 则表示不显示
bfc017e0:	3c03a000 	lui	v1,0xa000
bfc017e4:	2402ffff 	li	v0,-1
bfc017e8:	a0621061 	sb	v0,4193(v1)
D:\loongson\projects\ls1d_ucos\Func/keyprocess.c:26
		if(MajorMenu >= 4){
bfc017ec:	3c02a000 	lui	v0,0xa000
bfc017f0:	90421084 	lbu	v0,4228(v0)
bfc017f4:	304200ff 	andi	v0,v0,0xff
bfc017f8:	2c420004 	sltiu	v0,v0,4
bfc017fc:	14400004 	bnez	v0,bfc01810 <LongKey+0xc4>
bfc01800:	00000000 	nop
D:\loongson\projects\ls1d_ucos\Func/keyprocess.c:27
			MajorMenu	= 1;
bfc01804:	3c03a000 	lui	v1,0xa000
bfc01808:	24020001 	li	v0,1
bfc0180c:	a0621084 	sb	v0,4228(v1)
D:\loongson\projects\ls1d_ucos\Func/keyprocess.c:30
		}
	}
	if(MajorMenu == 4){
bfc01810:	3c02a000 	lui	v0,0xa000
bfc01814:	90421084 	lbu	v0,4228(v0)
bfc01818:	304300ff 	andi	v1,v0,0xff
bfc0181c:	24020004 	li	v0,4
bfc01820:	14620004 	bne	v1,v0,bfc01834 <LongKey+0xe8>
bfc01824:	00000000 	nop
D:\loongson\projects\ls1d_ucos\Func/keyprocess.c:31
		SampingMode	= DOCIM;
bfc01828:	3c03a000 	lui	v1,0xa000
bfc0182c:	24020001 	li	v0,1
bfc01830:	ac621044 	sw	v0,4164(v1)
D:\loongson\projects\ls1d_ucos\Func/keyprocess.c:33
	}
}
bfc01834:	03c0e821 	move	sp,s8
bfc01838:	8fbe0004 	lw	s8,4(sp)
bfc0183c:	27bd0008 	addiu	sp,sp,8
bfc01840:	03e00008 	jr	ra
bfc01844:	00000000 	nop

bfc01848 <KeyTimeOut>:
KeyTimeOut():
D:\loongson\projects\ls1d_ucos\Func/keyprocess.c:36

void	KeyTimeOut(void)
{
bfc01848:	27bdfff8 	addiu	sp,sp,-8
bfc0184c:	afbe0004 	sw	s8,4(sp)
bfc01850:	03a0f021 	move	s8,sp
D:\loongson\projects\ls1d_ucos\Func/keyprocess.c:37
	if(MajorMenu == 4){			/// 处于检定模式
bfc01854:	3c02a000 	lui	v0,0xa000
bfc01858:	90421084 	lbu	v0,4228(v0)
bfc0185c:	304300ff 	andi	v1,v0,0xff
bfc01860:	24020004 	li	v0,4
bfc01864:	14620019 	bne	v1,v0,bfc018cc <KeyTimeOut+0x84>
bfc01868:	00000000 	nop
D:\loongson\projects\ls1d_ucos\Func/keyprocess.c:38
		KeyTimeOutCnt ++;
bfc0186c:	3c02a000 	lui	v0,0xa000
bfc01870:	904210b4 	lbu	v0,4276(v0)
bfc01874:	304200ff 	andi	v0,v0,0xff
bfc01878:	24420001 	addiu	v0,v0,1
bfc0187c:	304300ff 	andi	v1,v0,0xff
bfc01880:	3c02a000 	lui	v0,0xa000
bfc01884:	a04310b4 	sb	v1,4276(v0)
D:\loongson\projects\ls1d_ucos\Func/keyprocess.c:39
		if(KeyTimeOutCnt >= 2){	/// 返回 A1 菜单  这里是2分钟，可以改为 2小时 。	TODO
bfc01888:	3c02a000 	lui	v0,0xa000
bfc0188c:	904210b4 	lbu	v0,4276(v0)
bfc01890:	304200ff 	andi	v0,v0,0xff
bfc01894:	2c420002 	sltiu	v0,v0,2
bfc01898:	14400011 	bnez	v0,bfc018e0 <KeyTimeOut+0x98>
bfc0189c:	00000000 	nop
D:\loongson\projects\ls1d_ucos\Func/keyprocess.c:40
			KeyTimeOutCnt = 0;
bfc018a0:	3c02a000 	lui	v0,0xa000
bfc018a4:	a04010b4 	sb	zero,4276(v0)
D:\loongson\projects\ls1d_ucos\Func/keyprocess.c:41
			MajorMenu	= 1;
bfc018a8:	3c03a000 	lui	v1,0xa000
bfc018ac:	24020001 	li	v0,1
bfc018b0:	a0621084 	sb	v0,4228(v1)
D:\loongson\projects\ls1d_ucos\Func/keyprocess.c:42
			MinorMenu	= 0;
bfc018b4:	3c02a000 	lui	v0,0xa000
bfc018b8:	a0401061 	sb	zero,4193(v0)
D:\loongson\projects\ls1d_ucos\Func/keyprocess.c:43
			SampingMode	= USER;
bfc018bc:	3c02a000 	lui	v0,0xa000
bfc018c0:	ac401044 	sw	zero,4164(v0)
bfc018c4:	0bf00638 	j	bfc018e0 <KeyTimeOut+0x98>
bfc018c8:	00000000 	nop
D:\loongson\projects\ls1d_ucos\Func/keyprocess.c:46
		}
	}else {
		MajorMenu	= 1;
bfc018cc:	3c02a000 	lui	v0,0xa000
bfc018d0:	24030001 	li	v1,1
bfc018d4:	a0431084 	sb	v1,4228(v0)
D:\loongson\projects\ls1d_ucos\Func/keyprocess.c:47
		MinorMenu	= 0;
bfc018d8:	3c02a000 	lui	v0,0xa000
bfc018dc:	a0401061 	sb	zero,4193(v0)
D:\loongson\projects\ls1d_ucos\Func/keyprocess.c:49
	}
}
bfc018e0:	03c0e821 	move	sp,s8
bfc018e4:	8fbe0004 	lw	s8,4(sp)
bfc018e8:	27bd0008 	addiu	sp,sp,8
bfc018ec:	03e00008 	jr	ra
bfc018f0:	00000000 	nop

bfc018f4 <KeyProc>:
KeyProc():
D:\loongson\projects\ls1d_ucos\Func/keyprocess.c:52

INT32U KeyProc(OS_EVENT *pGMboxKey,INT32U	KeyTime)
{
bfc018f4:	27bdffe0 	addiu	sp,sp,-32
bfc018f8:	afbf001c 	sw	ra,28(sp)
bfc018fc:	afbe0018 	sw	s8,24(sp)
bfc01900:	03a0f021 	move	s8,sp
bfc01904:	afc40020 	sw	a0,32(s8)
bfc01908:	afc50024 	sw	a1,36(s8)
D:\loongson\projects\ls1d_ucos\Func/keyprocess.c:56
	INT8U	err;
	void	*pmsg;

	if( (OSTimeGet() - LASTKEYPress) > (60 * 8000000/ TIMERDLY) ){		/// 当cpu 休眠的时候，检测按键超时 1分钟
bfc0190c:	3c02bfc0 	lui	v0,0xbfc0
bfc01910:	245964fc 	addiu	t9,v0,25852
bfc01914:	0320f809 	jalr	t9
bfc01918:	00000000 	nop
bfc0191c:	00401821 	move	v1,v0
bfc01920:	3c02a000 	lui	v0,0xa000
bfc01924:	8c42104c 	lw	v0,4172(v0)
bfc01928:	00621023 	subu	v0,v1,v0
bfc0192c:	2c427531 	sltiu	v0,v0,30001
bfc01930:	14400008 	bnez	v0,bfc01954 <KeyProc+0x60>
bfc01934:	00000000 	nop
D:\loongson\projects\ls1d_ucos\Func/keyprocess.c:57
		LASTKEYPress	= OSTimeGet();
bfc01938:	3c02bfc0 	lui	v0,0xbfc0
bfc0193c:	245964fc 	addiu	t9,v0,25852
bfc01940:	0320f809 	jalr	t9
bfc01944:	00000000 	nop
bfc01948:	00401821 	move	v1,v0
bfc0194c:	3c02a000 	lui	v0,0xa000
bfc01950:	ac43104c 	sw	v1,4172(v0)
D:\loongson\projects\ls1d_ucos\Func/keyprocess.c:61
		//KeyTimeOut();
		//puts("KeyTimeOut\n");
	}
	pmsg = OSMboxPend(pGMboxKey, 60 * 8000000/ TIMERDLY ,&err);		/// 如果cpu 不休眠，检测按键超时
bfc01954:	27c20014 	addiu	v0,s8,20
bfc01958:	8fc40020 	lw	a0,32(s8)
bfc0195c:	24057530 	li	a1,30000
bfc01960:	00403021 	move	a2,v0
bfc01964:	3c02bfc0 	lui	v0,0xbfc0
bfc01968:	245966b0 	addiu	t9,v0,26288
bfc0196c:	0320f809 	jalr	t9
bfc01970:	00000000 	nop
bfc01974:	afc20010 	sw	v0,16(s8)
D:\loongson\projects\ls1d_ucos\Func/keyprocess.c:62
	if (err == OS_TIMEOUT ){						/// 1 分钟之后超时了，用户没有按键
bfc01978:	93c30014 	lbu	v1,20(s8)
bfc0197c:	2402000a 	li	v0,10
bfc01980:	10620032 	beq	v1,v0,bfc01a4c <KeyProc+0x158>
bfc01984:	00000000 	nop
D:\loongson\projects\ls1d_ucos\Func/keyprocess.c:65
		//KeyTimeOut();
	}else{											/// 处理按键过程
		if( *(INT8U *)pmsg  & (1<<3) ){				//// 按键 松开！！！！！
bfc01988:	8fc20010 	lw	v0,16(s8)
bfc0198c:	90420000 	lbu	v0,0(v0)
bfc01990:	30420008 	andi	v0,v0,0x8
bfc01994:	10400028 	beqz	v0,bfc01a38 <KeyProc+0x144>
bfc01998:	00000000 	nop
D:\loongson\projects\ls1d_ucos\Func/keyprocess.c:66
			if( (OSTimeGet() - KeyTime)  > (3 * 8000000/ TIMERDLY)){	/// 按键间隔时间超过 3s
bfc0199c:	3c02bfc0 	lui	v0,0xbfc0
bfc019a0:	245964fc 	addiu	t9,v0,25852
bfc019a4:	0320f809 	jalr	t9
bfc019a8:	00000000 	nop
bfc019ac:	00401821 	move	v1,v0
bfc019b0:	8fc20024 	lw	v0,36(s8)
bfc019b4:	00621023 	subu	v0,v1,v0
bfc019b8:	2c4205dd 	sltiu	v0,v0,1501
bfc019bc:	1440000b 	bnez	v0,bfc019ec <KeyProc+0xf8>
bfc019c0:	00000000 	nop
D:\loongson\projects\ls1d_ucos\Func/keyprocess.c:68
					//LcdPoweron();
					puts("lo\n");
bfc019c4:	3c02bfc1 	lui	v0,0xbfc1
bfc019c8:	244497a0 	addiu	a0,v0,-26720
bfc019cc:	3c02bfc1 	lui	v0,0xbfc1
bfc019d0:	24599390 	addiu	t9,v0,-27760
bfc019d4:	0320f809 	jalr	t9
bfc019d8:	00000000 	nop
D:\loongson\projects\ls1d_ucos\Func/keyprocess.c:69
					LongKey();
bfc019dc:	0ff005d3 	jal	bfc0174c <LongKey>
bfc019e0:	00000000 	nop
bfc019e4:	0bf00683 	j	bfc01a0c <KeyProc+0x118>
bfc019e8:	00000000 	nop
D:\loongson\projects\ls1d_ucos\Func/keyprocess.c:71
			}else{										/// 按键间隔时间在2s之内，可以认为是短按键
				puts("short\n");
bfc019ec:	3c02bfc1 	lui	v0,0xbfc1
bfc019f0:	244497a4 	addiu	a0,v0,-26716
bfc019f4:	3c02bfc1 	lui	v0,0xbfc1
bfc019f8:	24599390 	addiu	t9,v0,-27760
bfc019fc:	0320f809 	jalr	t9
bfc01a00:	00000000 	nop
D:\loongson\projects\ls1d_ucos\Func/keyprocess.c:72
				ShortKey();
bfc01a04:	0ff00590 	jal	bfc01640 <ShortKey>
bfc01a08:	00000000 	nop
D:\loongson\projects\ls1d_ucos\Func/keyprocess.c:75
				//OSSemPost(pGSemKeyToInfra);			/// 启动红外通信
			}
			LASTKEYPress	= OSTimeGet();
bfc01a0c:	3c02bfc0 	lui	v0,0xbfc0
bfc01a10:	245964fc 	addiu	t9,v0,25852
bfc01a14:	0320f809 	jalr	t9
bfc01a18:	00000000 	nop
bfc01a1c:	00401821 	move	v1,v0
bfc01a20:	3c02a000 	lui	v0,0xa000
bfc01a24:	ac43104c 	sw	v1,4172(v0)
D:\loongson\projects\ls1d_ucos\Func/keyprocess.c:76
			KeyTimeOutCnt	= 0;
bfc01a28:	3c02a000 	lui	v0,0xa000
bfc01a2c:	a04010b4 	sb	zero,4276(v0)
bfc01a30:	0bf00693 	j	bfc01a4c <KeyProc+0x158>
bfc01a34:	00000000 	nop
D:\loongson\projects\ls1d_ucos\Func/keyprocess.c:78
		}else {										/// 按键按下
			KeyTime	= OSTimeGet ();
bfc01a38:	3c02bfc0 	lui	v0,0xbfc0
bfc01a3c:	245964fc 	addiu	t9,v0,25852
bfc01a40:	0320f809 	jalr	t9
bfc01a44:	00000000 	nop
bfc01a48:	afc20024 	sw	v0,36(s8)
D:\loongson\projects\ls1d_ucos\Func/keyprocess.c:81
		}
	}
	return KeyTime;
bfc01a4c:	8fc20024 	lw	v0,36(s8)
D:\loongson\projects\ls1d_ucos\Func/keyprocess.c:82
}
bfc01a50:	03c0e821 	move	sp,s8
bfc01a54:	8fbf001c 	lw	ra,28(sp)
bfc01a58:	8fbe0018 	lw	s8,24(sp)
bfc01a5c:	27bd0020 	addiu	sp,sp,32
bfc01a60:	03e00008 	jr	ra
bfc01a64:	00000000 	nop
bfc01a68:	00000000 	nop
bfc01a6c:	00000000 	nop

bfc01a70 <Float2LCD>:
Float2LCD():
D:\loongson\projects\ls1d_ucos\Func/float.c:17
//// 由于没有统一的文档说明，这里在lcd的8个 位上前面的位显示整数，整数显示完之后显示小数
/// 假设没有负值，在实际应用中也不可能出现负值。  如果有可以用 abs 宏处理一下
/// 如果是小数，则小数点占用LCDContent一个位，而实际上在lcd上小数点不占用一个位，
/// 注意变量 buf 栈溢出的错误，否则！！，另外在ftoa 里面也加入 栈溢出检测机制。 TODO
void	Float2LCD(_fp32 AccumHeat)
{
bfc01a70:	27bdffc8 	addiu	sp,sp,-56
bfc01a74:	afbf0034 	sw	ra,52(sp)
bfc01a78:	afbe0030 	sw	s8,48(sp)
bfc01a7c:	03a0f021 	move	s8,sp
bfc01a80:	e7cc0038 	swc1	$f12,56(s8)
D:\loongson\projects\ls1d_ucos\Func/float.c:20
	INT8U	buf[32];

	ftoa((char *)buf, AccumHeat, 8);
bfc01a84:	27c20010 	addiu	v0,s8,16
bfc01a88:	00402021 	move	a0,v0
bfc01a8c:	8fc50038 	lw	a1,56(s8)
bfc01a90:	24060008 	li	a2,8
bfc01a94:	3c02bfc0 	lui	v0,0xbfc0
bfc01a98:	245979f8 	addiu	t9,v0,31224
bfc01a9c:	0320f809 	jalr	t9
bfc01aa0:	00000000 	nop
D:\loongson\projects\ls1d_ucos\Func/float.c:21
	memcpy1d(LCDContent,buf, 9);
bfc01aa4:	3c02a000 	lui	v0,0xa000
bfc01aa8:	24441130 	addiu	a0,v0,4400
bfc01aac:	27c20010 	addiu	v0,s8,16
bfc01ab0:	00402821 	move	a1,v0
bfc01ab4:	24060009 	li	a2,9
bfc01ab8:	3c02bfc0 	lui	v0,0xbfc0
bfc01abc:	24597e84 	addiu	t9,v0,32388
bfc01ac0:	0320f809 	jalr	t9
bfc01ac4:	00000000 	nop
D:\loongson\projects\ls1d_ucos\Func/float.c:22
}
bfc01ac8:	03c0e821 	move	sp,s8
bfc01acc:	8fbf0034 	lw	ra,52(sp)
bfc01ad0:	8fbe0030 	lw	s8,48(sp)
bfc01ad4:	27bd0038 	addiu	sp,sp,56
bfc01ad8:	03e00008 	jr	ra
bfc01adc:	00000000 	nop

bfc01ae0 <TimeDate2LCD>:
TimeDate2LCD():
D:\loongson\projects\ls1d_ucos\Func/float.c:26


void	TimeDate2LCD(INT8U	first,INT8U second,INT8U third)
{
bfc01ae0:	27bdffe8 	addiu	sp,sp,-24
bfc01ae4:	afbf0014 	sw	ra,20(sp)
bfc01ae8:	afbe0010 	sw	s8,16(sp)
bfc01aec:	03a0f021 	move	s8,sp
bfc01af0:	00801021 	move	v0,a0
bfc01af4:	00a01821 	move	v1,a1
bfc01af8:	00c02021 	move	a0,a2
bfc01afc:	a3c20018 	sb	v0,24(s8)
bfc01b00:	a3c3001c 	sb	v1,28(s8)
bfc01b04:	a3c40020 	sb	a0,32(s8)
D:\loongson\projects\ls1d_ucos\Func/float.c:27
	memset1d(LCDContent,0,8);
bfc01b08:	3c02a000 	lui	v0,0xa000
bfc01b0c:	24441130 	addiu	a0,v0,4400
bfc01b10:	00002821 	move	a1,zero
bfc01b14:	24060008 	li	a2,8
bfc01b18:	3c02bfc0 	lui	v0,0xbfc0
bfc01b1c:	24597e04 	addiu	t9,v0,32260
bfc01b20:	0320f809 	jalr	t9
bfc01b24:	00000000 	nop
D:\loongson\projects\ls1d_ucos\Func/float.c:29

	LCDContent[6]	= LCDNumber[third/10];
bfc01b28:	93c30020 	lbu	v1,32(s8)
bfc01b2c:	3c02cccc 	lui	v0,0xcccc
bfc01b30:	3442cccd 	ori	v0,v0,0xcccd
bfc01b34:	00620019 	multu	v1,v0
bfc01b38:	00001010 	mfhi	v0
bfc01b3c:	000210c2 	srl	v0,v0,0x3
bfc01b40:	304200ff 	andi	v0,v0,0xff
bfc01b44:	00401821 	move	v1,v0
bfc01b48:	3c02bfc1 	lui	v0,0xbfc1
bfc01b4c:	24429720 	addiu	v0,v0,-26848
bfc01b50:	00621021 	addu	v0,v1,v0
bfc01b54:	90430000 	lbu	v1,0(v0)
bfc01b58:	3c02a000 	lui	v0,0xa000
bfc01b5c:	24421130 	addiu	v0,v0,4400
bfc01b60:	a0430006 	sb	v1,6(v0)
D:\loongson\projects\ls1d_ucos\Func/float.c:30
	LCDContent[7]	= LCDNumber[third%10];
bfc01b64:	93c40020 	lbu	a0,32(s8)
bfc01b68:	3c02cccc 	lui	v0,0xcccc
bfc01b6c:	3442cccd 	ori	v0,v0,0xcccd
bfc01b70:	00820019 	multu	a0,v0
bfc01b74:	00001010 	mfhi	v0
bfc01b78:	000210c2 	srl	v0,v0,0x3
bfc01b7c:	00021040 	sll	v0,v0,0x1
bfc01b80:	00021880 	sll	v1,v0,0x2
bfc01b84:	00431021 	addu	v0,v0,v1
bfc01b88:	00821023 	subu	v0,a0,v0
bfc01b8c:	304200ff 	andi	v0,v0,0xff
bfc01b90:	00401821 	move	v1,v0
bfc01b94:	3c02bfc1 	lui	v0,0xbfc1
bfc01b98:	24429720 	addiu	v0,v0,-26848
bfc01b9c:	00621021 	addu	v0,v1,v0
bfc01ba0:	90430000 	lbu	v1,0(v0)
bfc01ba4:	3c02a000 	lui	v0,0xa000
bfc01ba8:	24421130 	addiu	v0,v0,4400
bfc01bac:	a0430007 	sb	v1,7(v0)
D:\loongson\projects\ls1d_ucos\Func/float.c:32

	LCDContent[3]	= LCDNumber[second/10];
bfc01bb0:	93c3001c 	lbu	v1,28(s8)
bfc01bb4:	3c02cccc 	lui	v0,0xcccc
bfc01bb8:	3442cccd 	ori	v0,v0,0xcccd
bfc01bbc:	00620019 	multu	v1,v0
bfc01bc0:	00001010 	mfhi	v0
bfc01bc4:	000210c2 	srl	v0,v0,0x3
bfc01bc8:	304200ff 	andi	v0,v0,0xff
bfc01bcc:	00401821 	move	v1,v0
bfc01bd0:	3c02bfc1 	lui	v0,0xbfc1
bfc01bd4:	24429720 	addiu	v0,v0,-26848
bfc01bd8:	00621021 	addu	v0,v1,v0
bfc01bdc:	90430000 	lbu	v1,0(v0)
bfc01be0:	3c02a000 	lui	v0,0xa000
bfc01be4:	24421130 	addiu	v0,v0,4400
bfc01be8:	a0430003 	sb	v1,3(v0)
D:\loongson\projects\ls1d_ucos\Func/float.c:33
	LCDContent[4]	= LCDNumber[second%10];
bfc01bec:	93c4001c 	lbu	a0,28(s8)
bfc01bf0:	3c02cccc 	lui	v0,0xcccc
bfc01bf4:	3442cccd 	ori	v0,v0,0xcccd
bfc01bf8:	00820019 	multu	a0,v0
bfc01bfc:	00001010 	mfhi	v0
bfc01c00:	000210c2 	srl	v0,v0,0x3
bfc01c04:	00021040 	sll	v0,v0,0x1
bfc01c08:	00021880 	sll	v1,v0,0x2
bfc01c0c:	00431021 	addu	v0,v0,v1
bfc01c10:	00821023 	subu	v0,a0,v0
bfc01c14:	304200ff 	andi	v0,v0,0xff
bfc01c18:	00401821 	move	v1,v0
bfc01c1c:	3c02bfc1 	lui	v0,0xbfc1
bfc01c20:	24429720 	addiu	v0,v0,-26848
bfc01c24:	00621021 	addu	v0,v1,v0
bfc01c28:	90430000 	lbu	v1,0(v0)
bfc01c2c:	3c02a000 	lui	v0,0xa000
bfc01c30:	24421130 	addiu	v0,v0,4400
bfc01c34:	a0430004 	sb	v1,4(v0)
D:\loongson\projects\ls1d_ucos\Func/float.c:35

	LCDContent[0]	= LCDNumber[first/10];
bfc01c38:	93c30018 	lbu	v1,24(s8)
bfc01c3c:	3c02cccc 	lui	v0,0xcccc
bfc01c40:	3442cccd 	ori	v0,v0,0xcccd
bfc01c44:	00620019 	multu	v1,v0
bfc01c48:	00001010 	mfhi	v0
bfc01c4c:	000210c2 	srl	v0,v0,0x3
bfc01c50:	304200ff 	andi	v0,v0,0xff
bfc01c54:	00401821 	move	v1,v0
bfc01c58:	3c02bfc1 	lui	v0,0xbfc1
bfc01c5c:	24429720 	addiu	v0,v0,-26848
bfc01c60:	00621021 	addu	v0,v1,v0
bfc01c64:	90430000 	lbu	v1,0(v0)
bfc01c68:	3c02a000 	lui	v0,0xa000
bfc01c6c:	a0431130 	sb	v1,4400(v0)
D:\loongson\projects\ls1d_ucos\Func/float.c:36
	LCDContent[1]	= LCDNumber[first%10];
bfc01c70:	93c40018 	lbu	a0,24(s8)
bfc01c74:	3c02cccc 	lui	v0,0xcccc
bfc01c78:	3442cccd 	ori	v0,v0,0xcccd
bfc01c7c:	00820019 	multu	a0,v0
bfc01c80:	00001010 	mfhi	v0
bfc01c84:	000210c2 	srl	v0,v0,0x3
bfc01c88:	00021040 	sll	v0,v0,0x1
bfc01c8c:	00021880 	sll	v1,v0,0x2
bfc01c90:	00431021 	addu	v0,v0,v1
bfc01c94:	00821023 	subu	v0,a0,v0
bfc01c98:	304200ff 	andi	v0,v0,0xff
bfc01c9c:	00401821 	move	v1,v0
bfc01ca0:	3c02bfc1 	lui	v0,0xbfc1
bfc01ca4:	24429720 	addiu	v0,v0,-26848
bfc01ca8:	00621021 	addu	v0,v1,v0
bfc01cac:	90430000 	lbu	v1,0(v0)
bfc01cb0:	3c02a000 	lui	v0,0xa000
bfc01cb4:	24421130 	addiu	v0,v0,4400
bfc01cb8:	a0430001 	sb	v1,1(v0)
D:\loongson\projects\ls1d_ucos\Func/float.c:37
}
bfc01cbc:	03c0e821 	move	sp,s8
bfc01cc0:	8fbf0014 	lw	ra,20(sp)
bfc01cc4:	8fbe0010 	lw	s8,16(sp)
bfc01cc8:	27bd0018 	addiu	sp,sp,24
bfc01ccc:	03e00008 	jr	ra
bfc01cd0:	00000000 	nop

bfc01cd4 <Number2LCD>:
Number2LCD():
D:\loongson\projects\ls1d_ucos\Func/float.c:40

void	Number2LCD(const INT8U *pNumber)
{
bfc01cd4:	27bdfff0 	addiu	sp,sp,-16
bfc01cd8:	afbe000c 	sw	s8,12(sp)
bfc01cdc:	03a0f021 	move	s8,sp
bfc01ce0:	afc40010 	sw	a0,16(s8)
D:\loongson\projects\ls1d_ucos\Func/float.c:42
	INT8U	i;
	for(i = 0;i < 8;i ++){
bfc01ce4:	a3c00000 	sb	zero,0(s8)
bfc01ce8:	0bf0074d 	j	bfc01d34 <Number2LCD+0x60>
bfc01cec:	00000000 	nop
D:\loongson\projects\ls1d_ucos\Func/float.c:43
		LCDContent[i]	= LCDNumber[pNumber[i]];
bfc01cf0:	93c40000 	lbu	a0,0(s8)
bfc01cf4:	93c30000 	lbu	v1,0(s8)
bfc01cf8:	8fc20010 	lw	v0,16(s8)
bfc01cfc:	00431021 	addu	v0,v0,v1
bfc01d00:	90420000 	lbu	v0,0(v0)
bfc01d04:	00401821 	move	v1,v0
bfc01d08:	3c02bfc1 	lui	v0,0xbfc1
bfc01d0c:	24429720 	addiu	v0,v0,-26848
bfc01d10:	00621021 	addu	v0,v1,v0
bfc01d14:	90430000 	lbu	v1,0(v0)
bfc01d18:	3c02a000 	lui	v0,0xa000
bfc01d1c:	24421130 	addiu	v0,v0,4400
bfc01d20:	00821021 	addu	v0,a0,v0
bfc01d24:	a0430000 	sb	v1,0(v0)
D:\loongson\projects\ls1d_ucos\Func/float.c:42
}

void	Number2LCD(const INT8U *pNumber)
{
	INT8U	i;
	for(i = 0;i < 8;i ++){
bfc01d28:	93c20000 	lbu	v0,0(s8)
bfc01d2c:	24420001 	addiu	v0,v0,1
bfc01d30:	a3c20000 	sb	v0,0(s8)
bfc01d34:	93c20000 	lbu	v0,0(s8)
bfc01d38:	2c420008 	sltiu	v0,v0,8
bfc01d3c:	1440ffec 	bnez	v0,bfc01cf0 <Number2LCD+0x1c>
bfc01d40:	00000000 	nop
D:\loongson\projects\ls1d_ucos\Func/float.c:45
		LCDContent[i]	= LCDNumber[pNumber[i]];
	}
}
bfc01d44:	03c0e821 	move	sp,s8
bfc01d48:	8fbe000c 	lw	s8,12(sp)
bfc01d4c:	27bd0010 	addiu	sp,sp,16
bfc01d50:	03e00008 	jr	ra
bfc01d54:	00000000 	nop

bfc01d58 <Float2LCDBuf>:
Float2LCDBuf():
D:\loongson\projects\ls1d_ucos\Func/float.c:49

/// 这个函数 涉及到很多浮点计算，  只能被 TaskTDC 任务调用，
void	Float2LCDBuf(void)
{
bfc01d58:	27bdffd0 	addiu	sp,sp,-48
bfc01d5c:	afbf002c 	sw	ra,44(sp)
bfc01d60:	afbe0028 	sw	s8,40(sp)
bfc01d64:	03a0f021 	move	s8,sp
D:\loongson\projects\ls1d_ucos\Func/float.c:50
	if( (MajorMenu == 1) || (MajorMenu == 4) ){
bfc01d68:	3c02a000 	lui	v0,0xa000
bfc01d6c:	90421084 	lbu	v0,4228(v0)
bfc01d70:	304300ff 	andi	v1,v0,0xff
bfc01d74:	24020001 	li	v0,1
bfc01d78:	10620007 	beq	v1,v0,bfc01d98 <Float2LCDBuf+0x40>
bfc01d7c:	00000000 	nop
bfc01d80:	3c02a000 	lui	v0,0xa000
bfc01d84:	90421084 	lbu	v0,4228(v0)
bfc01d88:	304300ff 	andi	v1,v0,0xff
bfc01d8c:	24020004 	li	v0,4
bfc01d90:	1462004c 	bne	v1,v0,bfc01ec4 <Float2LCDBuf+0x16c>
bfc01d94:	00000000 	nop
D:\loongson\projects\ls1d_ucos\Func/float.c:51
		switch(MinorMenu) {
bfc01d98:	3c02a000 	lui	v0,0xa000
bfc01d9c:	90421061 	lbu	v0,4193(v0)
bfc01da0:	304200ff 	andi	v0,v0,0xff
bfc01da4:	afc20024 	sw	v0,36(s8)
bfc01da8:	8fc30024 	lw	v1,36(s8)
bfc01dac:	2c620006 	sltiu	v0,v1,6
bfc01db0:	10400031 	beqz	v0,bfc01e78 <Float2LCDBuf+0x120>
bfc01db4:	00000000 	nop
bfc01db8:	8fc40024 	lw	a0,36(s8)
bfc01dbc:	00041880 	sll	v1,a0,0x2
bfc01dc0:	3c02bfc1 	lui	v0,0xbfc1
bfc01dc4:	244297b0 	addiu	v0,v0,-26704
bfc01dc8:	00621021 	addu	v0,v1,v0
bfc01dcc:	8c420000 	lw	v0,0(v0)
bfc01dd0:	00400008 	jr	v0
bfc01dd4:	00000000 	nop
D:\loongson\projects\ls1d_ucos\Func/float.c:53
			case 0:
				Float2LCD(AccumHeat);
bfc01dd8:	3c02a000 	lui	v0,0xa000
bfc01ddc:	c4401050 	lwc1	$f0,4176(v0)
bfc01de0:	46000306 	mov.s	$f12,$f0
bfc01de4:	0ff0069c 	jal	bfc01a70 <Float2LCD>
bfc01de8:	00000000 	nop
bfc01dec:	0bf0079e 	j	bfc01e78 <Float2LCDBuf+0x120>
bfc01df0:	00000000 	nop
D:\loongson\projects\ls1d_ucos\Func/float.c:56
				break;
			case 1:
				Float2LCD(Power);
bfc01df4:	3c02a000 	lui	v0,0xa000
bfc01df8:	c4401078 	lwc1	$f0,4216(v0)
bfc01dfc:	46000306 	mov.s	$f12,$f0
bfc01e00:	0ff0069c 	jal	bfc01a70 <Float2LCD>
bfc01e04:	00000000 	nop
bfc01e08:	0bf0079e 	j	bfc01e78 <Float2LCDBuf+0x120>
bfc01e0c:	00000000 	nop
D:\loongson\projects\ls1d_ucos\Func/float.c:59
				break;
			case 2:
				Float2LCD(DammingTemp);
bfc01e10:	3c02a000 	lui	v0,0xa000
bfc01e14:	c440105c 	lwc1	$f0,4188(v0)
bfc01e18:	46000306 	mov.s	$f12,$f0
bfc01e1c:	0ff0069c 	jal	bfc01a70 <Float2LCD>
bfc01e20:	00000000 	nop
bfc01e24:	0bf0079e 	j	bfc01e78 <Float2LCDBuf+0x120>
bfc01e28:	00000000 	nop
D:\loongson\projects\ls1d_ucos\Func/float.c:62
				break;
			case 3:
				Float2LCD(DiffTemp);
bfc01e2c:	3c02a000 	lui	v0,0xa000
bfc01e30:	c440101c 	lwc1	$f0,4124(v0)
bfc01e34:	46000306 	mov.s	$f12,$f0
bfc01e38:	0ff0069c 	jal	bfc01a70 <Float2LCD>
bfc01e3c:	00000000 	nop
bfc01e40:	0bf0079e 	j	bfc01e78 <Float2LCDBuf+0x120>
bfc01e44:	00000000 	nop
D:\loongson\projects\ls1d_ucos\Func/float.c:65
				break;
			case 4:
				Float2LCD(InteFlux);
bfc01e48:	3c02a000 	lui	v0,0xa000
bfc01e4c:	c440106c 	lwc1	$f0,4204(v0)
bfc01e50:	46000306 	mov.s	$f12,$f0
bfc01e54:	0ff0069c 	jal	bfc01a70 <Float2LCD>
bfc01e58:	00000000 	nop
bfc01e5c:	0bf0079e 	j	bfc01e78 <Float2LCDBuf+0x120>
bfc01e60:	00000000 	nop
D:\loongson\projects\ls1d_ucos\Func/float.c:68
				break;
			case 5:
				Float2LCD(InstantFlux);
bfc01e64:	3c02a000 	lui	v0,0xa000
bfc01e68:	c4401018 	lwc1	$f0,4120(v0)
bfc01e6c:	46000306 	mov.s	$f12,$f0
bfc01e70:	0ff0069c 	jal	bfc01a70 <Float2LCD>
bfc01e74:	00000000 	nop
D:\loongson\projects\ls1d_ucos\Func/float.c:71
				break;
		}
		if( (MajorMenu == 4) && (MinorMenu == 6) ){
bfc01e78:	3c02a000 	lui	v0,0xa000
bfc01e7c:	90421084 	lbu	v0,4228(v0)
bfc01e80:	304300ff 	andi	v1,v0,0xff
bfc01e84:	24020004 	li	v0,4
bfc01e88:	14620123 	bne	v1,v0,bfc02318 <Float2LCDBuf+0x5c0>
bfc01e8c:	00000000 	nop
bfc01e90:	3c02a000 	lui	v0,0xa000
bfc01e94:	90421061 	lbu	v0,4193(v0)
bfc01e98:	304300ff 	andi	v1,v0,0xff
bfc01e9c:	24020006 	li	v0,6
bfc01ea0:	1462011d 	bne	v1,v0,bfc02318 <Float2LCDBuf+0x5c0>
bfc01ea4:	00000000 	nop
D:\loongson\projects\ls1d_ucos\Func/float.c:72
			Float2LCD(InstantHeat);
bfc01ea8:	3c02a000 	lui	v0,0xa000
bfc01eac:	c4401004 	lwc1	$f0,4100(v0)
bfc01eb0:	46000306 	mov.s	$f12,$f0
bfc01eb4:	0ff0069c 	jal	bfc01a70 <Float2LCD>
bfc01eb8:	00000000 	nop
bfc01ebc:	0bf008c6 	j	bfc02318 <Float2LCDBuf+0x5c0>
bfc01ec0:	00000000 	nop
D:\loongson\projects\ls1d_ucos\Func/float.c:74
		}
	}else if(MajorMenu == 2){
bfc01ec4:	3c02a000 	lui	v0,0xa000
bfc01ec8:	90421084 	lbu	v0,4228(v0)
bfc01ecc:	304300ff 	andi	v1,v0,0xff
bfc01ed0:	24020002 	li	v0,2
bfc01ed4:	14620065 	bne	v1,v0,bfc0206c <Float2LCDBuf+0x314>
bfc01ed8:	00000000 	nop
D:\loongson\projects\ls1d_ucos\Func/float.c:75
		switch(MinorMenu) {
bfc01edc:	3c02a000 	lui	v0,0xa000
bfc01ee0:	90421061 	lbu	v0,4193(v0)
bfc01ee4:	304200ff 	andi	v0,v0,0xff
bfc01ee8:	afc20020 	sw	v0,32(s8)
bfc01eec:	8fc30020 	lw	v1,32(s8)
bfc01ef0:	2c620005 	sltiu	v0,v1,5
bfc01ef4:	10400108 	beqz	v0,bfc02318 <Float2LCDBuf+0x5c0>
bfc01ef8:	00000000 	nop
bfc01efc:	8fc40020 	lw	a0,32(s8)
bfc01f00:	00041880 	sll	v1,a0,0x2
bfc01f04:	3c02bfc1 	lui	v0,0xbfc1
bfc01f08:	244297c8 	addiu	v0,v0,-26680
bfc01f0c:	00621021 	addu	v0,v1,v0
bfc01f10:	8c420000 	lw	v0,0(v0)
bfc01f14:	00400008 	jr	v0
bfc01f18:	00000000 	nop
D:\loongson\projects\ls1d_ucos\Func/float.c:77
			case 0:
				TimeDate2LCD(second,minute,hour);
bfc01f1c:	3c02a000 	lui	v0,0xa000
bfc01f20:	90421034 	lbu	v0,4148(v0)
bfc01f24:	304200ff 	andi	v0,v0,0xff
bfc01f28:	00401821 	move	v1,v0
bfc01f2c:	3c02a000 	lui	v0,0xa000
bfc01f30:	9042103c 	lbu	v0,4156(v0)
bfc01f34:	304200ff 	andi	v0,v0,0xff
bfc01f38:	00402821 	move	a1,v0
bfc01f3c:	3c02a000 	lui	v0,0xa000
bfc01f40:	90421060 	lbu	v0,4192(v0)
bfc01f44:	304200ff 	andi	v0,v0,0xff
bfc01f48:	00602021 	move	a0,v1
bfc01f4c:	00403021 	move	a2,v0
bfc01f50:	0ff006b8 	jal	bfc01ae0 <TimeDate2LCD>
bfc01f54:	00000000 	nop
bfc01f58:	0bf008c6 	j	bfc02318 <Float2LCDBuf+0x5c0>
bfc01f5c:	00000000 	nop
D:\loongson\projects\ls1d_ucos\Func/float.c:80
				break;
			case 1:
				TimeDate2LCD(day,month,year);
bfc01f60:	3c02a000 	lui	v0,0xa000
bfc01f64:	9042107f 	lbu	v0,4223(v0)
bfc01f68:	304200ff 	andi	v0,v0,0xff
bfc01f6c:	00401821 	move	v1,v0
bfc01f70:	3c02a000 	lui	v0,0xa000
bfc01f74:	9042102c 	lbu	v0,4140(v0)
bfc01f78:	304200ff 	andi	v0,v0,0xff
bfc01f7c:	00402821 	move	a1,v0
bfc01f80:	3c02a000 	lui	v0,0xa000
bfc01f84:	9042107e 	lbu	v0,4222(v0)
bfc01f88:	304200ff 	andi	v0,v0,0xff
bfc01f8c:	00602021 	move	a0,v1
bfc01f90:	00403021 	move	a2,v0
bfc01f94:	0ff006b8 	jal	bfc01ae0 <TimeDate2LCD>
bfc01f98:	00000000 	nop
bfc01f9c:	0bf008c6 	j	bfc02318 <Float2LCDBuf+0x5c0>
bfc01fa0:	00000000 	nop
D:\loongson\projects\ls1d_ucos\Func/float.c:83
				break;
			case 2:							/// 用户编号，放在flash中
				Number2LCD(USERNumber);
bfc01fa4:	3c02bfc1 	lui	v0,0xbfc1
bfc01fa8:	2444973c 	addiu	a0,v0,-26820
bfc01fac:	0ff00735 	jal	bfc01cd4 <Number2LCD>
bfc01fb0:	00000000 	nop
bfc01fb4:	0bf008c6 	j	bfc02318 <Float2LCDBuf+0x5c0>
bfc01fb8:	00000000 	nop
D:\loongson\projects\ls1d_ucos\Func/float.c:86
				break;
			case 3:							///版本号 ，放在flash中
				Number2LCD(VERNumber);
bfc01fbc:	3c02bfc1 	lui	v0,0xbfc1
bfc01fc0:	24449744 	addiu	a0,v0,-26812
bfc01fc4:	0ff00735 	jal	bfc01cd4 <Number2LCD>
bfc01fc8:	00000000 	nop
bfc01fcc:	0bf008c6 	j	bfc02318 <Float2LCDBuf+0x5c0>
bfc01fd0:	00000000 	nop
D:\loongson\projects\ls1d_ucos\Func/float.c:89
				break;
			case 4:
				Float2LCD(1.5f * Voltage * 3.3f / 4096.0f );		/// 显示电压数值？？
bfc01fd4:	3c02a000 	lui	v0,0xa000
bfc01fd8:	8c421024 	lw	v0,4132(v0)
bfc01fdc:	afc2001c 	sw	v0,28(s8)
bfc01fe0:	8fc2001c 	lw	v0,28(s8)
bfc01fe4:	04400006 	bltz	v0,bfc02000 <Float2LCDBuf+0x2a8>
bfc01fe8:	00000000 	nop
bfc01fec:	c7c0001c 	lwc1	$f0,28(s8)
bfc01ff0:	46800020 	cvt.s.w	$f0,$f0
bfc01ff4:	e7c00018 	swc1	$f0,24(s8)
bfc01ff8:	0bf0080c 	j	bfc02030 <Float2LCDBuf+0x2d8>
bfc01ffc:	00000000 	nop
bfc02000:	8fc3001c 	lw	v1,28(s8)
bfc02004:	30620001 	andi	v0,v1,0x1
bfc02008:	8fc4001c 	lw	a0,28(s8)
bfc0200c:	00041842 	srl	v1,a0,0x1
bfc02010:	00431025 	or	v0,v0,v1
bfc02014:	44820000 	mtc1	v0,$f0
bfc02018:	46800020 	cvt.s.w	$f0,$f0
bfc0201c:	e7c00018 	swc1	$f0,24(s8)
bfc02020:	c7c10018 	lwc1	$f1,24(s8)
bfc02024:	c7c20018 	lwc1	$f2,24(s8)
bfc02028:	46020840 	add.s	$f1,$f1,$f2
bfc0202c:	e7c10018 	swc1	$f1,24(s8)
bfc02030:	3c02bfc1 	lui	v0,0xbfc1
bfc02034:	c44097dc 	lwc1	$f0,-26660(v0)
bfc02038:	c7c20018 	lwc1	$f2,24(s8)
bfc0203c:	46001042 	mul.s	$f1,$f2,$f0
bfc02040:	3c02bfc1 	lui	v0,0xbfc1
bfc02044:	c44097e0 	lwc1	$f0,-26656(v0)
bfc02048:	46000842 	mul.s	$f1,$f1,$f0
bfc0204c:	3c02bfc1 	lui	v0,0xbfc1
bfc02050:	c44097e4 	lwc1	$f0,-26652(v0)
bfc02054:	46000803 	div.s	$f0,$f1,$f0
bfc02058:	46000306 	mov.s	$f12,$f0
bfc0205c:	0ff0069c 	jal	bfc01a70 <Float2LCD>
bfc02060:	00000000 	nop
bfc02064:	0bf008c6 	j	bfc02318 <Float2LCDBuf+0x5c0>
bfc02068:	00000000 	nop
D:\loongson\projects\ls1d_ucos\Func/float.c:94
				break;
			case 5:			///	屏幕全显
				break;
		}
	}else if( (MajorMenu == 3) && (MinorMenu != 0xff)){						/// 如何控制，一屏是显示不下的。
bfc0206c:	3c02a000 	lui	v0,0xa000
bfc02070:	90421084 	lbu	v0,4228(v0)
bfc02074:	304300ff 	andi	v1,v0,0xff
bfc02078:	24020003 	li	v0,3
bfc0207c:	146200a6 	bne	v1,v0,bfc02318 <Float2LCDBuf+0x5c0>
bfc02080:	00000000 	nop
bfc02084:	3c02a000 	lui	v0,0xa000
bfc02088:	90421061 	lbu	v0,4193(v0)
bfc0208c:	304300ff 	andi	v1,v0,0xff
bfc02090:	240200ff 	li	v0,255
bfc02094:	106200a0 	beq	v1,v0,bfc02318 <Float2LCDBuf+0x5c0>
bfc02098:	00000000 	nop
D:\loongson\projects\ls1d_ucos\Func/float.c:96
		INT8U	index;
		if(MonthlySaveIndex == 0){
bfc0209c:	3c02a000 	lui	v0,0xa000
bfc020a0:	9042107c 	lbu	v0,4220(v0)
bfc020a4:	1440000f 	bnez	v0,bfc020e4 <Float2LCDBuf+0x38c>
bfc020a8:	00000000 	nop
D:\loongson\projects\ls1d_ucos\Func/float.c:97
			index	= 17 - MinorMenu/3;
bfc020ac:	3c02a000 	lui	v0,0xa000
bfc020b0:	90421061 	lbu	v0,4193(v0)
bfc020b4:	304300ff 	andi	v1,v0,0xff
bfc020b8:	3c02aaaa 	lui	v0,0xaaaa
bfc020bc:	3442aaab 	ori	v0,v0,0xaaab
bfc020c0:	00620019 	multu	v1,v0
bfc020c4:	00001010 	mfhi	v0
bfc020c8:	00021042 	srl	v0,v0,0x1
bfc020cc:	304300ff 	andi	v1,v0,0xff
bfc020d0:	24020011 	li	v0,17
bfc020d4:	00431023 	subu	v0,v0,v1
bfc020d8:	a3c20010 	sb	v0,16(s8)
bfc020dc:	0bf00868 	j	bfc021a0 <Float2LCDBuf+0x448>
bfc020e0:	00000000 	nop
D:\loongson\projects\ls1d_ucos\Func/float.c:98
		}else if(MonthlySaveIndex -1 >= MinorMenu/3){
bfc020e4:	3c02a000 	lui	v0,0xa000
bfc020e8:	9042107c 	lbu	v0,4220(v0)
bfc020ec:	2444ffff 	addiu	a0,v0,-1
bfc020f0:	3c02a000 	lui	v0,0xa000
bfc020f4:	90421061 	lbu	v0,4193(v0)
bfc020f8:	304300ff 	andi	v1,v0,0xff
bfc020fc:	3c02aaaa 	lui	v0,0xaaaa
bfc02100:	3442aaab 	ori	v0,v0,0xaaab
bfc02104:	00620019 	multu	v1,v0
bfc02108:	00001010 	mfhi	v0
bfc0210c:	00021042 	srl	v0,v0,0x1
bfc02110:	304200ff 	andi	v0,v0,0xff
bfc02114:	0082102a 	slt	v0,a0,v0
bfc02118:	14400012 	bnez	v0,bfc02164 <Float2LCDBuf+0x40c>
bfc0211c:	00000000 	nop
D:\loongson\projects\ls1d_ucos\Func/float.c:99
			index = MonthlySaveIndex -1 - MinorMenu/3;
bfc02120:	3c02a000 	lui	v0,0xa000
bfc02124:	9044107c 	lbu	a0,4220(v0)
bfc02128:	3c02a000 	lui	v0,0xa000
bfc0212c:	90421061 	lbu	v0,4193(v0)
bfc02130:	304300ff 	andi	v1,v0,0xff
bfc02134:	3c02aaaa 	lui	v0,0xaaaa
bfc02138:	3442aaab 	ori	v0,v0,0xaaab
bfc0213c:	00620019 	multu	v1,v0
bfc02140:	00001010 	mfhi	v0
bfc02144:	00021042 	srl	v0,v0,0x1
bfc02148:	304200ff 	andi	v0,v0,0xff
bfc0214c:	00821023 	subu	v0,a0,v0
bfc02150:	304200ff 	andi	v0,v0,0xff
bfc02154:	2442ffff 	addiu	v0,v0,-1
bfc02158:	a3c20010 	sb	v0,16(s8)
bfc0215c:	0bf00868 	j	bfc021a0 <Float2LCDBuf+0x448>
bfc02160:	00000000 	nop
D:\loongson\projects\ls1d_ucos\Func/float.c:101
		}else {
			index = MonthlySaveIndex -1 - MinorMenu/3 + 18;
bfc02164:	3c02a000 	lui	v0,0xa000
bfc02168:	9044107c 	lbu	a0,4220(v0)
bfc0216c:	3c02a000 	lui	v0,0xa000
bfc02170:	90421061 	lbu	v0,4193(v0)
bfc02174:	304300ff 	andi	v1,v0,0xff
bfc02178:	3c02aaaa 	lui	v0,0xaaaa
bfc0217c:	3442aaab 	ori	v0,v0,0xaaab
bfc02180:	00620019 	multu	v1,v0
bfc02184:	00001010 	mfhi	v0
bfc02188:	00021042 	srl	v0,v0,0x1
bfc0218c:	304200ff 	andi	v0,v0,0xff
bfc02190:	00821023 	subu	v0,a0,v0
bfc02194:	304200ff 	andi	v0,v0,0xff
bfc02198:	24420011 	addiu	v0,v0,17
bfc0219c:	a3c20010 	sb	v0,16(s8)
D:\loongson\projects\ls1d_ucos\Func/float.c:103
		}
		if((MinorMenu %3) == 0){
bfc021a0:	3c02a000 	lui	v0,0xa000
bfc021a4:	90421061 	lbu	v0,4193(v0)
bfc021a8:	304400ff 	andi	a0,v0,0xff
bfc021ac:	3c02aaaa 	lui	v0,0xaaaa
bfc021b0:	3442aaab 	ori	v0,v0,0xaaab
bfc021b4:	00820019 	multu	a0,v0
bfc021b8:	00001010 	mfhi	v0
bfc021bc:	00021842 	srl	v1,v0,0x1
bfc021c0:	00601021 	move	v0,v1
bfc021c4:	00021040 	sll	v0,v0,0x1
bfc021c8:	00431021 	addu	v0,v0,v1
bfc021cc:	00821023 	subu	v0,a0,v0
bfc021d0:	304200ff 	andi	v0,v0,0xff
bfc021d4:	14400018 	bnez	v0,bfc02238 <Float2LCDBuf+0x4e0>
bfc021d8:	00000000 	nop
D:\loongson\projects\ls1d_ucos\Func/float.c:104
			TimeDate2LCD(28,RecodrFlashTbl[index].month,RecodrFlashTbl[index].year);
bfc021dc:	93c20010 	lbu	v0,16(s8)
bfc021e0:	00021880 	sll	v1,v0,0x2
bfc021e4:	00031080 	sll	v0,v1,0x2
bfc021e8:	00431823 	subu	v1,v0,v1
bfc021ec:	3c02bfc0 	lui	v0,0xbfc0
bfc021f0:	3442f800 	ori	v0,v0,0xf800
bfc021f4:	00621021 	addu	v0,v1,v0
bfc021f8:	90420001 	lbu	v0,1(v0)
bfc021fc:	00402821 	move	a1,v0
bfc02200:	93c20010 	lbu	v0,16(s8)
bfc02204:	00021880 	sll	v1,v0,0x2
bfc02208:	00031080 	sll	v0,v1,0x2
bfc0220c:	00431823 	subu	v1,v0,v1
bfc02210:	3c02bfc0 	lui	v0,0xbfc0
bfc02214:	3442f800 	ori	v0,v0,0xf800
bfc02218:	00621021 	addu	v0,v1,v0
bfc0221c:	90420000 	lbu	v0,0(v0)
bfc02220:	2404001c 	li	a0,28
bfc02224:	00403021 	move	a2,v0
bfc02228:	0ff006b8 	jal	bfc01ae0 <TimeDate2LCD>
bfc0222c:	00000000 	nop
bfc02230:	0bf008c6 	j	bfc02318 <Float2LCDBuf+0x5c0>
bfc02234:	00000000 	nop
D:\loongson\projects\ls1d_ucos\Func/float.c:105
		}else if((MinorMenu %3) == 1){
bfc02238:	3c02a000 	lui	v0,0xa000
bfc0223c:	90421061 	lbu	v0,4193(v0)
bfc02240:	304400ff 	andi	a0,v0,0xff
bfc02244:	3c02aaaa 	lui	v0,0xaaaa
bfc02248:	3442aaab 	ori	v0,v0,0xaaab
bfc0224c:	00820019 	multu	a0,v0
bfc02250:	00001010 	mfhi	v0
bfc02254:	00021842 	srl	v1,v0,0x1
bfc02258:	00601021 	move	v0,v1
bfc0225c:	00021040 	sll	v0,v0,0x1
bfc02260:	00431021 	addu	v0,v0,v1
bfc02264:	00821023 	subu	v0,a0,v0
bfc02268:	304300ff 	andi	v1,v0,0xff
bfc0226c:	24020001 	li	v0,1
bfc02270:	1462000e 	bne	v1,v0,bfc022ac <Float2LCDBuf+0x554>
bfc02274:	00000000 	nop
D:\loongson\projects\ls1d_ucos\Func/float.c:106
			Float2LCD(RecodrFlashTbl[index].heat);
bfc02278:	93c20010 	lbu	v0,16(s8)
bfc0227c:	00021880 	sll	v1,v0,0x2
bfc02280:	00031080 	sll	v0,v1,0x2
bfc02284:	00431823 	subu	v1,v0,v1
bfc02288:	3c02bfc0 	lui	v0,0xbfc0
bfc0228c:	3442f800 	ori	v0,v0,0xf800
bfc02290:	00621021 	addu	v0,v1,v0
bfc02294:	c4400004 	lwc1	$f0,4(v0)
bfc02298:	46000306 	mov.s	$f12,$f0
bfc0229c:	0ff0069c 	jal	bfc01a70 <Float2LCD>
bfc022a0:	00000000 	nop
bfc022a4:	0bf008c6 	j	bfc02318 <Float2LCDBuf+0x5c0>
bfc022a8:	00000000 	nop
D:\loongson\projects\ls1d_ucos\Func/float.c:107
		}else if((MinorMenu %3) == 2){
bfc022ac:	3c02a000 	lui	v0,0xa000
bfc022b0:	90421061 	lbu	v0,4193(v0)
bfc022b4:	304400ff 	andi	a0,v0,0xff
bfc022b8:	3c02aaaa 	lui	v0,0xaaaa
bfc022bc:	3442aaab 	ori	v0,v0,0xaaab
bfc022c0:	00820019 	multu	a0,v0
bfc022c4:	00001010 	mfhi	v0
bfc022c8:	00021842 	srl	v1,v0,0x1
bfc022cc:	00601021 	move	v0,v1
bfc022d0:	00021040 	sll	v0,v0,0x1
bfc022d4:	00431021 	addu	v0,v0,v1
bfc022d8:	00821023 	subu	v0,a0,v0
bfc022dc:	304300ff 	andi	v1,v0,0xff
bfc022e0:	24020002 	li	v0,2
bfc022e4:	1462000c 	bne	v1,v0,bfc02318 <Float2LCDBuf+0x5c0>
bfc022e8:	00000000 	nop
D:\loongson\projects\ls1d_ucos\Func/float.c:108
			Float2LCD(RecodrFlashTbl[index].flux);
bfc022ec:	93c20010 	lbu	v0,16(s8)
bfc022f0:	00021880 	sll	v1,v0,0x2
bfc022f4:	00031080 	sll	v0,v1,0x2
bfc022f8:	00431823 	subu	v1,v0,v1
bfc022fc:	3c02bfc0 	lui	v0,0xbfc0
bfc02300:	3442f800 	ori	v0,v0,0xf800
bfc02304:	00621021 	addu	v0,v1,v0
bfc02308:	c4400008 	lwc1	$f0,8(v0)
bfc0230c:	46000306 	mov.s	$f12,$f0
bfc02310:	0ff0069c 	jal	bfc01a70 <Float2LCD>
bfc02314:	00000000 	nop
D:\loongson\projects\ls1d_ucos\Func/float.c:111
		}
	}
	if(MinorMenu == 0xff){
bfc02318:	3c02a000 	lui	v0,0xa000
bfc0231c:	90421061 	lbu	v0,4193(v0)
bfc02320:	304300ff 	andi	v1,v0,0xff
bfc02324:	240200ff 	li	v0,255
bfc02328:	14620012 	bne	v1,v0,bfc02374 <Float2LCDBuf+0x61c>
bfc0232c:	00000000 	nop
D:\loongson\projects\ls1d_ucos\Func/float.c:112
		memset1d(LCDContent,LCDNumber[MajorMenu],8);
bfc02330:	3c02a000 	lui	v0,0xa000
bfc02334:	90421084 	lbu	v0,4228(v0)
bfc02338:	304200ff 	andi	v0,v0,0xff
bfc0233c:	00401821 	move	v1,v0
bfc02340:	3c02bfc1 	lui	v0,0xbfc1
bfc02344:	24429720 	addiu	v0,v0,-26848
bfc02348:	00621021 	addu	v0,v1,v0
bfc0234c:	90420000 	lbu	v0,0(v0)
bfc02350:	00401821 	move	v1,v0
bfc02354:	3c02a000 	lui	v0,0xa000
bfc02358:	24441130 	addiu	a0,v0,4400
bfc0235c:	00602821 	move	a1,v1
bfc02360:	24060008 	li	a2,8
bfc02364:	3c02bfc0 	lui	v0,0xbfc0
bfc02368:	24597e04 	addiu	t9,v0,32260
bfc0236c:	0320f809 	jalr	t9
bfc02370:	00000000 	nop
D:\loongson\projects\ls1d_ucos\Func/float.c:114
	}
}
bfc02374:	03c0e821 	move	sp,s8
bfc02378:	8fbf002c 	lw	ra,44(sp)
bfc0237c:	8fbe0028 	lw	s8,40(sp)
bfc02380:	27bd0030 	addiu	sp,sp,48
bfc02384:	03e00008 	jr	ra
bfc02388:	00000000 	nop
bfc0238c:	00000000 	nop

bfc02390 <calibrate>:
calibrate():
D:\loongson\projects\ls1d_ucos\Func/tdc-proc.c:17


void	DataProcess(INT8U SampMode);

_u32 calibrate(_u32 start, _u32 stop, TDCINFO *TDC)
{
bfc02390:	27bdffe0 	addiu	sp,sp,-32
bfc02394:	afbe001c 	sw	s8,28(sp)
bfc02398:	03a0f021 	move	s8,sp
bfc0239c:	afc40020 	sw	a0,32(s8)
bfc023a0:	afc50024 	sw	a1,36(s8)
bfc023a4:	afc60028 	sw	a2,40(s8)
D:\loongson\projects\ls1d_ucos\Func/tdc-proc.c:18
	_u32 cal = 1;
bfc023a8:	24020001 	li	v0,1
bfc023ac:	afc20010 	sw	v0,16(s8)
D:\loongson\projects\ls1d_ucos\Func/tdc-proc.c:21
	_u32 cc1, cc2, v1, v2;

	switch(TDC->tdc_mode){
bfc023b0:	8fc20028 	lw	v0,40(s8)
bfc023b4:	8c430000 	lw	v1,0(v0)
bfc023b8:	24020002 	li	v0,2
bfc023bc:	14620039 	bne	v1,v0,bfc024a4 <calibrate+0x114>
bfc023c0:	00000000 	nop
D:\loongson\projects\ls1d_ucos\Func/tdc-proc.c:23
	case S_TDC:  //stdc
		cc1 = (start/0x10000);
bfc023c4:	8fc20020 	lw	v0,32(s8)
bfc023c8:	00021402 	srl	v0,v0,0x10
bfc023cc:	afc2000c 	sw	v0,12(s8)
D:\loongson\projects\ls1d_ucos\Func/tdc-proc.c:24
		v1 = (start%0x10000);
bfc023d0:	8fc20020 	lw	v0,32(s8)
bfc023d4:	3042ffff 	andi	v0,v0,0xffff
bfc023d8:	afc20004 	sw	v0,4(s8)
D:\loongson\projects\ls1d_ucos\Func/tdc-proc.c:25
		cc2 = (stop/0x10000);
bfc023dc:	8fc20024 	lw	v0,36(s8)
bfc023e0:	00021402 	srl	v0,v0,0x10
bfc023e4:	afc20008 	sw	v0,8(s8)
D:\loongson\projects\ls1d_ucos\Func/tdc-proc.c:26
		v2 = (stop%0x10000);
bfc023e8:	8fc20024 	lw	v0,36(s8)
bfc023ec:	3042ffff 	andi	v0,v0,0xffff
bfc023f0:	afc20000 	sw	v0,0(s8)
D:\loongson\projects\ls1d_ucos\Func/tdc-proc.c:27
		if(TDC->tdc_opt & 0x1)    //dres, "1" -double
bfc023f4:	8fc20028 	lw	v0,40(s8)
bfc023f8:	8c420010 	lw	v0,16(v0)
bfc023fc:	30420001 	andi	v0,v0,0x1
bfc02400:	304200ff 	andi	v0,v0,0xff
bfc02404:	10400015 	beqz	v0,bfc0245c <calibrate+0xcc>
bfc02408:	00000000 	nop
D:\loongson\projects\ls1d_ucos\Func/tdc-proc.c:28
			cal = ((v2>>7)*126 + v2%128) - ((v1>>7)*126 + v1%128);
bfc0240c:	8fc20000 	lw	v0,0(s8)
bfc02410:	000211c2 	srl	v0,v0,0x7
bfc02414:	00021840 	sll	v1,v0,0x1
bfc02418:	00031180 	sll	v0,v1,0x6
bfc0241c:	00431823 	subu	v1,v0,v1
bfc02420:	8fc20000 	lw	v0,0(s8)
bfc02424:	3042007f 	andi	v0,v0,0x7f
bfc02428:	00622021 	addu	a0,v1,v0
bfc0242c:	8fc20004 	lw	v0,4(s8)
bfc02430:	000211c2 	srl	v0,v0,0x7
bfc02434:	00021840 	sll	v1,v0,0x1
bfc02438:	00031180 	sll	v0,v1,0x6
bfc0243c:	00431823 	subu	v1,v0,v1
bfc02440:	8fc20004 	lw	v0,4(s8)
bfc02444:	3042007f 	andi	v0,v0,0x7f
bfc02448:	00621021 	addu	v0,v1,v0
bfc0244c:	00821023 	subu	v0,a0,v0
bfc02450:	afc20010 	sw	v0,16(s8)
bfc02454:	0bf00929 	j	bfc024a4 <calibrate+0x114>
bfc02458:	00000000 	nop
D:\loongson\projects\ls1d_ucos\Func/tdc-proc.c:30
		else
			cal = ((v2>>6)*63 + v2%64) - ((v1>>6)*63 + v1%64);
bfc0245c:	8fc20000 	lw	v0,0(s8)
bfc02460:	00021982 	srl	v1,v0,0x6
bfc02464:	00601021 	move	v0,v1
bfc02468:	00021180 	sll	v0,v0,0x6
bfc0246c:	00431823 	subu	v1,v0,v1
bfc02470:	8fc20000 	lw	v0,0(s8)
bfc02474:	3042003f 	andi	v0,v0,0x3f
bfc02478:	00622021 	addu	a0,v1,v0
bfc0247c:	8fc20004 	lw	v0,4(s8)
bfc02480:	00021982 	srl	v1,v0,0x6
bfc02484:	00601021 	move	v0,v1
bfc02488:	00021180 	sll	v0,v0,0x6
bfc0248c:	00431823 	subu	v1,v0,v1
bfc02490:	8fc20004 	lw	v0,4(s8)
bfc02494:	3042003f 	andi	v0,v0,0x3f
bfc02498:	00621021 	addu	v0,v1,v0
bfc0249c:	00821023 	subu	v0,a0,v0
bfc024a0:	afc20010 	sw	v0,16(s8)
D:\loongson\projects\ls1d_ucos\Func/tdc-proc.c:39
	case H_TDC:  //htdc
		break;
	default:
		break;
	}
	return cal;
bfc024a4:	8fc20010 	lw	v0,16(s8)
D:\loongson\projects\ls1d_ucos\Func/tdc-proc.c:40
}
bfc024a8:	03c0e821 	move	sp,s8
bfc024ac:	8fbe001c 	lw	s8,28(sp)
bfc024b0:	27bd0020 	addiu	sp,sp,32
bfc024b4:	03e00008 	jr	ra
bfc024b8:	00000000 	nop

bfc024bc <func_cap_detection>:
func_cap_detection():
D:\loongson\projects\ls1d_ucos\Func/tdc-proc.c:43

_u32 func_cap_detection(TDCINFO *TDC)
{
bfc024bc:	27bdffd8 	addiu	sp,sp,-40
bfc024c0:	afbf0024 	sw	ra,36(sp)
bfc024c4:	afbe0020 	sw	s8,32(sp)
bfc024c8:	03a0f021 	move	s8,sp
bfc024cc:	afc40028 	sw	a0,40(s8)
D:\loongson\projects\ls1d_ucos\Func/tdc-proc.c:44
	switch(TDC->tdc_mode){
bfc024d0:	8fc20028 	lw	v0,40(s8)
bfc024d4:	8c430000 	lw	v1,0(v0)
bfc024d8:	24020002 	li	v0,2
bfc024dc:	1462000e 	bne	v1,v0,bfc02518 <func_cap_detection+0x5c>
bfc024e0:	00000000 	nop
D:\loongson\projects\ls1d_ucos\Func/tdc-proc.c:48
	case S_TDC:  //stdc
	{
		_u32 err;
		err = check_res(TDC);
bfc024e4:	8fc40028 	lw	a0,40(s8)
bfc024e8:	3c02bfc0 	lui	v0,0xbfc0
bfc024ec:	245938f4 	addiu	t9,v0,14580
bfc024f0:	0320f809 	jalr	t9
bfc024f4:	00000000 	nop
bfc024f8:	afc20010 	sw	v0,16(s8)
D:\loongson\projects\ls1d_ucos\Func/tdc-proc.c:49
		if(err) return 1;
bfc024fc:	8fc20010 	lw	v0,16(s8)
bfc02500:	10400005 	beqz	v0,bfc02518 <func_cap_detection+0x5c>
bfc02504:	00000000 	nop
bfc02508:	24020001 	li	v0,1
bfc0250c:	afc20018 	sw	v0,24(s8)
bfc02510:	0bf00947 	j	bfc0251c <func_cap_detection+0x60>
bfc02514:	00000000 	nop
D:\loongson\projects\ls1d_ucos\Func/tdc-proc.c:61
	    break;
	default:
		break;
	}

	return 0;
bfc02518:	afc00018 	sw	zero,24(s8)
bfc0251c:	8fc20018 	lw	v0,24(s8)
D:\loongson\projects\ls1d_ucos\Func/tdc-proc.c:62
}
bfc02520:	03c0e821 	move	sp,s8
bfc02524:	8fbf0024 	lw	ra,36(sp)
bfc02528:	8fbe0020 	lw	s8,32(sp)
bfc0252c:	27bd0028 	addiu	sp,sp,40
bfc02530:	03e00008 	jr	ra
bfc02534:	00000000 	nop

bfc02538 <res_cal>:
res_cal():
D:\loongson\projects\ls1d_ucos\Func/tdc-proc.c:65

_fp32 res_cal(_u32 result, TDCINFO *TDC)
{
bfc02538:	27bdffa8 	addiu	sp,sp,-88
bfc0253c:	afbe0054 	sw	s8,84(sp)
bfc02540:	03a0f021 	move	s8,sp
bfc02544:	afc40058 	sw	a0,88(s8)
bfc02548:	afc5005c 	sw	a1,92(s8)
D:\loongson\projects\ls1d_ucos\Func/tdc-proc.c:66
	_fp32 res = 0;
bfc0254c:	afc00010 	sw	zero,16(s8)
D:\loongson\projects\ls1d_ucos\Func/tdc-proc.c:69
	_u32 cc, v;
	_u32 dres, nsmp;
    dres = (TDC->tdc_opt & 0x1);    			//dres, "1" -double
bfc02550:	8fc2005c 	lw	v0,92(s8)
bfc02554:	8c420010 	lw	v0,16(v0)
bfc02558:	30420001 	andi	v0,v0,0x1
bfc0255c:	afc20004 	sw	v0,4(s8)
D:\loongson\projects\ls1d_ucos\Func/tdc-proc.c:70
    nsmp = (((TDC->tdc_opt)>>6) & 0x3);    		//samp
bfc02560:	8fc2005c 	lw	v0,92(s8)
bfc02564:	8c420010 	lw	v0,16(v0)
bfc02568:	00021182 	srl	v0,v0,0x6
bfc0256c:	30420003 	andi	v0,v0,0x3
bfc02570:	afc20000 	sw	v0,0(s8)
D:\loongson\projects\ls1d_ucos\Func/tdc-proc.c:72

	switch(TDC->tdc_mode){
bfc02574:	8fc2005c 	lw	v0,92(s8)
bfc02578:	8c430000 	lw	v1,0(v0)
bfc0257c:	24020002 	li	v0,2
bfc02580:	146200cb 	bne	v1,v0,bfc028b0 <res_cal+0x378>
bfc02584:	00000000 	nop
D:\loongson\projects\ls1d_ucos\Func/tdc-proc.c:74
	case S_TDC:  //stdc
		cc = (result/0x10000);
bfc02588:	8fc20058 	lw	v0,88(s8)
bfc0258c:	00021402 	srl	v0,v0,0x10
bfc02590:	afc2000c 	sw	v0,12(s8)
D:\loongson\projects\ls1d_ucos\Func/tdc-proc.c:75
		v = (result%0x10000);
bfc02594:	8fc20058 	lw	v0,88(s8)
bfc02598:	3042ffff 	andi	v0,v0,0xffff
bfc0259c:	afc20008 	sw	v0,8(s8)
D:\loongson\projects\ls1d_ucos\Func/tdc-proc.c:76
	    if(nsmp == 3) {
bfc025a0:	8fc30000 	lw	v1,0(s8)
bfc025a4:	24020003 	li	v0,3
bfc025a8:	14620004 	bne	v1,v0,bfc025bc <res_cal+0x84>
bfc025ac:	00000000 	nop
D:\loongson\projects\ls1d_ucos\Func/tdc-proc.c:77
	    	v = v<<1;
bfc025b0:	8fc20008 	lw	v0,8(s8)
bfc025b4:	00021040 	sll	v0,v0,0x1
bfc025b8:	afc20008 	sw	v0,8(s8)
D:\loongson\projects\ls1d_ucos\Func/tdc-proc.c:79
	    }
		if(dres)
bfc025bc:	8fc20004 	lw	v0,4(s8)
bfc025c0:	1040005f 	beqz	v0,bfc02740 <res_cal+0x208>
bfc025c4:	00000000 	nop
D:\loongson\projects\ls1d_ucos\Func/tdc-proc.c:80
			res = (_fp32)cc*125000 - (_fp32)((v>>7)*126+v%128)*125000/(TDC->tdc_data.cal*(nsmp+1)); // ps
bfc025c8:	8fc2000c 	lw	v0,12(s8)
bfc025cc:	04400006 	bltz	v0,bfc025e8 <res_cal+0xb0>
bfc025d0:	00000000 	nop
bfc025d4:	c7c0000c 	lwc1	$f0,12(s8)
bfc025d8:	46800020 	cvt.s.w	$f0,$f0
bfc025dc:	e7c0004c 	swc1	$f0,76(s8)
bfc025e0:	0bf00986 	j	bfc02618 <res_cal+0xe0>
bfc025e4:	00000000 	nop
bfc025e8:	8fc2000c 	lw	v0,12(s8)
bfc025ec:	30420001 	andi	v0,v0,0x1
bfc025f0:	8fc3000c 	lw	v1,12(s8)
bfc025f4:	00031842 	srl	v1,v1,0x1
bfc025f8:	00431025 	or	v0,v0,v1
bfc025fc:	44820000 	mtc1	v0,$f0
bfc02600:	46800020 	cvt.s.w	$f0,$f0
bfc02604:	e7c0004c 	swc1	$f0,76(s8)
bfc02608:	c7c1004c 	lwc1	$f1,76(s8)
bfc0260c:	c7c2004c 	lwc1	$f2,76(s8)
bfc02610:	46020840 	add.s	$f1,$f1,$f2
bfc02614:	e7c1004c 	swc1	$f1,76(s8)
bfc02618:	3c02bfc1 	lui	v0,0xbfc1
bfc0261c:	c4409818 	lwc1	$f0,-26600(v0)
bfc02620:	c7c1004c 	lwc1	$f1,76(s8)
bfc02624:	46000802 	mul.s	$f0,$f1,$f0
bfc02628:	e7c00048 	swc1	$f0,72(s8)
bfc0262c:	8fc20008 	lw	v0,8(s8)
bfc02630:	000211c2 	srl	v0,v0,0x7
bfc02634:	00021840 	sll	v1,v0,0x1
bfc02638:	00031180 	sll	v0,v1,0x6
bfc0263c:	00431823 	subu	v1,v0,v1
bfc02640:	8fc20008 	lw	v0,8(s8)
bfc02644:	3042007f 	andi	v0,v0,0x7f
bfc02648:	00621821 	addu	v1,v1,v0
bfc0264c:	afc30044 	sw	v1,68(s8)
bfc02650:	8fc20044 	lw	v0,68(s8)
bfc02654:	04400006 	bltz	v0,bfc02670 <res_cal+0x138>
bfc02658:	00000000 	nop
bfc0265c:	c7c00044 	lwc1	$f0,68(s8)
bfc02660:	46800020 	cvt.s.w	$f0,$f0
bfc02664:	e7c00040 	swc1	$f0,64(s8)
bfc02668:	0bf009a8 	j	bfc026a0 <res_cal+0x168>
bfc0266c:	00000000 	nop
bfc02670:	8fc30044 	lw	v1,68(s8)
bfc02674:	30620001 	andi	v0,v1,0x1
bfc02678:	8fc40044 	lw	a0,68(s8)
bfc0267c:	00041842 	srl	v1,a0,0x1
bfc02680:	00431025 	or	v0,v0,v1
bfc02684:	44820000 	mtc1	v0,$f0
bfc02688:	46800020 	cvt.s.w	$f0,$f0
bfc0268c:	e7c00040 	swc1	$f0,64(s8)
bfc02690:	c7c10040 	lwc1	$f1,64(s8)
bfc02694:	c7c20040 	lwc1	$f2,64(s8)
bfc02698:	46020840 	add.s	$f1,$f1,$f2
bfc0269c:	e7c10040 	swc1	$f1,64(s8)
bfc026a0:	3c02bfc1 	lui	v0,0xbfc1
bfc026a4:	c440981c 	lwc1	$f0,-26596(v0)
bfc026a8:	c7c10040 	lwc1	$f1,64(s8)
bfc026ac:	46000802 	mul.s	$f0,$f1,$f0
bfc026b0:	e7c0003c 	swc1	$f0,60(s8)
bfc026b4:	8fc2005c 	lw	v0,92(s8)
bfc026b8:	8c430030 	lw	v1,48(v0)
bfc026bc:	8fc20000 	lw	v0,0(s8)
bfc026c0:	24420001 	addiu	v0,v0,1
bfc026c4:	00620018 	mult	v1,v0
bfc026c8:	00002012 	mflo	a0
bfc026cc:	afc40038 	sw	a0,56(s8)
bfc026d0:	8fc20038 	lw	v0,56(s8)
bfc026d4:	04400006 	bltz	v0,bfc026f0 <res_cal+0x1b8>
bfc026d8:	00000000 	nop
bfc026dc:	c7c00038 	lwc1	$f0,56(s8)
bfc026e0:	46800020 	cvt.s.w	$f0,$f0
bfc026e4:	e7c00034 	swc1	$f0,52(s8)
bfc026e8:	0bf009c8 	j	bfc02720 <res_cal+0x1e8>
bfc026ec:	00000000 	nop
bfc026f0:	8fc30038 	lw	v1,56(s8)
bfc026f4:	30620001 	andi	v0,v1,0x1
bfc026f8:	8fc40038 	lw	a0,56(s8)
bfc026fc:	00041842 	srl	v1,a0,0x1
bfc02700:	00431025 	or	v0,v0,v1
bfc02704:	44820000 	mtc1	v0,$f0
bfc02708:	46800020 	cvt.s.w	$f0,$f0
bfc0270c:	e7c00034 	swc1	$f0,52(s8)
bfc02710:	c7c10034 	lwc1	$f1,52(s8)
bfc02714:	c7c20034 	lwc1	$f2,52(s8)
bfc02718:	46020840 	add.s	$f1,$f1,$f2
bfc0271c:	e7c10034 	swc1	$f1,52(s8)
bfc02720:	c7c1003c 	lwc1	$f1,60(s8)
bfc02724:	c7c20034 	lwc1	$f2,52(s8)
bfc02728:	46020803 	div.s	$f0,$f1,$f2
bfc0272c:	c7c10048 	lwc1	$f1,72(s8)
bfc02730:	46000800 	add.s	$f0,$f1,$f0
bfc02734:	e7c00010 	swc1	$f0,16(s8)
bfc02738:	0bf00a2c 	j	bfc028b0 <res_cal+0x378>
bfc0273c:	00000000 	nop
D:\loongson\projects\ls1d_ucos\Func/tdc-proc.c:82
		else
			res = (_fp32)cc*125000 - (_fp32)((v>>6)*63+v%64)*125000/(TDC->tdc_data.cal*(nsmp+1)); // ps
bfc02740:	8fc2000c 	lw	v0,12(s8)
bfc02744:	04400006 	bltz	v0,bfc02760 <res_cal+0x228>
bfc02748:	00000000 	nop
bfc0274c:	c7c0000c 	lwc1	$f0,12(s8)
bfc02750:	46800020 	cvt.s.w	$f0,$f0
bfc02754:	e7c00030 	swc1	$f0,48(s8)
bfc02758:	0bf009e4 	j	bfc02790 <res_cal+0x258>
bfc0275c:	00000000 	nop
bfc02760:	8fc2000c 	lw	v0,12(s8)
bfc02764:	30420001 	andi	v0,v0,0x1
bfc02768:	8fc3000c 	lw	v1,12(s8)
bfc0276c:	00031842 	srl	v1,v1,0x1
bfc02770:	00431025 	or	v0,v0,v1
bfc02774:	44821000 	mtc1	v0,$f2
bfc02778:	468010a0 	cvt.s.w	$f2,$f2
bfc0277c:	e7c20030 	swc1	$f2,48(s8)
bfc02780:	c7c00030 	lwc1	$f0,48(s8)
bfc02784:	c7c10030 	lwc1	$f1,48(s8)
bfc02788:	46010000 	add.s	$f0,$f0,$f1
bfc0278c:	e7c00030 	swc1	$f0,48(s8)
bfc02790:	3c02bfc1 	lui	v0,0xbfc1
bfc02794:	c4409818 	lwc1	$f0,-26600(v0)
bfc02798:	c7c20030 	lwc1	$f2,48(s8)
bfc0279c:	46001002 	mul.s	$f0,$f2,$f0
bfc027a0:	e7c0002c 	swc1	$f0,44(s8)
bfc027a4:	8fc20008 	lw	v0,8(s8)
bfc027a8:	00021982 	srl	v1,v0,0x6
bfc027ac:	00601021 	move	v0,v1
bfc027b0:	00021180 	sll	v0,v0,0x6
bfc027b4:	00431823 	subu	v1,v0,v1
bfc027b8:	8fc20008 	lw	v0,8(s8)
bfc027bc:	3042003f 	andi	v0,v0,0x3f
bfc027c0:	00621821 	addu	v1,v1,v0
bfc027c4:	afc30028 	sw	v1,40(s8)
bfc027c8:	8fc20028 	lw	v0,40(s8)
bfc027cc:	04400006 	bltz	v0,bfc027e8 <res_cal+0x2b0>
bfc027d0:	00000000 	nop
bfc027d4:	c7c00028 	lwc1	$f0,40(s8)
bfc027d8:	46800020 	cvt.s.w	$f0,$f0
bfc027dc:	e7c00024 	swc1	$f0,36(s8)
bfc027e0:	0bf00a06 	j	bfc02818 <res_cal+0x2e0>
bfc027e4:	00000000 	nop
bfc027e8:	8fc30028 	lw	v1,40(s8)
bfc027ec:	30620001 	andi	v0,v1,0x1
bfc027f0:	8fc40028 	lw	a0,40(s8)
bfc027f4:	00041842 	srl	v1,a0,0x1
bfc027f8:	00431025 	or	v0,v0,v1
bfc027fc:	44820000 	mtc1	v0,$f0
bfc02800:	46800020 	cvt.s.w	$f0,$f0
bfc02804:	e7c00024 	swc1	$f0,36(s8)
bfc02808:	c7c10024 	lwc1	$f1,36(s8)
bfc0280c:	c7c20024 	lwc1	$f2,36(s8)
bfc02810:	46020840 	add.s	$f1,$f1,$f2
bfc02814:	e7c10024 	swc1	$f1,36(s8)
bfc02818:	3c02bfc1 	lui	v0,0xbfc1
bfc0281c:	c440981c 	lwc1	$f0,-26596(v0)
bfc02820:	c7c10024 	lwc1	$f1,36(s8)
bfc02824:	46000802 	mul.s	$f0,$f1,$f0
bfc02828:	e7c00020 	swc1	$f0,32(s8)
bfc0282c:	8fc2005c 	lw	v0,92(s8)
bfc02830:	8c430030 	lw	v1,48(v0)
bfc02834:	8fc20000 	lw	v0,0(s8)
bfc02838:	24420001 	addiu	v0,v0,1
bfc0283c:	00620018 	mult	v1,v0
bfc02840:	00002012 	mflo	a0
bfc02844:	afc4001c 	sw	a0,28(s8)
bfc02848:	8fc2001c 	lw	v0,28(s8)
bfc0284c:	04400006 	bltz	v0,bfc02868 <res_cal+0x330>
bfc02850:	00000000 	nop
bfc02854:	c7c0001c 	lwc1	$f0,28(s8)
bfc02858:	46800020 	cvt.s.w	$f0,$f0
bfc0285c:	e7c00018 	swc1	$f0,24(s8)
bfc02860:	0bf00a26 	j	bfc02898 <res_cal+0x360>
bfc02864:	00000000 	nop
bfc02868:	8fc3001c 	lw	v1,28(s8)
bfc0286c:	30620001 	andi	v0,v1,0x1
bfc02870:	8fc4001c 	lw	a0,28(s8)
bfc02874:	00041842 	srl	v1,a0,0x1
bfc02878:	00431025 	or	v0,v0,v1
bfc0287c:	44820000 	mtc1	v0,$f0
bfc02880:	46800020 	cvt.s.w	$f0,$f0
bfc02884:	e7c00018 	swc1	$f0,24(s8)
bfc02888:	c7c10018 	lwc1	$f1,24(s8)
bfc0288c:	c7c20018 	lwc1	$f2,24(s8)
bfc02890:	46020840 	add.s	$f1,$f1,$f2
bfc02894:	e7c10018 	swc1	$f1,24(s8)
bfc02898:	c7c10020 	lwc1	$f1,32(s8)
bfc0289c:	c7c20018 	lwc1	$f2,24(s8)
bfc028a0:	46020803 	div.s	$f0,$f1,$f2
bfc028a4:	c7c1002c 	lwc1	$f1,44(s8)
bfc028a8:	46000800 	add.s	$f0,$f1,$f0
bfc028ac:	e7c00010 	swc1	$f0,16(s8)
D:\loongson\projects\ls1d_ucos\Func/tdc-proc.c:91
	case H_TDC:  //htdc
		break;
	default:
		break;
	}
	return res;
bfc028b0:	c7c00010 	lwc1	$f0,16(s8)
D:\loongson\projects\ls1d_ucos\Func/tdc-proc.c:92
}
bfc028b4:	03c0e821 	move	sp,s8
bfc028b8:	8fbe0054 	lw	s8,84(sp)
bfc028bc:	27bd0058 	addiu	sp,sp,88
bfc028c0:	03e00008 	jr	ra
bfc028c4:	00000000 	nop

bfc028c8 <func_once_time>:
func_once_time():
D:\loongson\projects\ls1d_ucos\Func/tdc-proc.c:95

_u32 func_once_time(TDCINFO *TDC)
{
bfc028c8:	27bdffc8 	addiu	sp,sp,-56
bfc028cc:	afbf0034 	sw	ra,52(sp)
bfc028d0:	afbe0030 	sw	s8,48(sp)
bfc028d4:	afb0002c 	sw	s0,44(sp)
bfc028d8:	03a0f021 	move	s8,sp
bfc028dc:	afc40038 	sw	a0,56(s8)
D:\loongson\projects\ls1d_ucos\Func/tdc-proc.c:96
	switch(TDC->tdc_mode){
bfc028e0:	8fc20038 	lw	v0,56(s8)
bfc028e4:	8c430000 	lw	v1,0(v0)
bfc028e8:	24020002 	li	v0,2
bfc028ec:	1462006d 	bne	v1,v0,bfc02aa4 <func_once_time+0x1dc>
bfc028f0:	00000000 	nop
D:\loongson\projects\ls1d_ucos\Func/tdc-proc.c:100
	case S_TDC:
		{
			_u32 up;
			up = Sonar[0]&0x8000;
bfc028f4:	3c02bfeb 	lui	v0,0xbfeb
bfc028f8:	34424000 	ori	v0,v0,0x4000
bfc028fc:	8c420000 	lw	v0,0(v0)
bfc02900:	30428000 	andi	v0,v0,0x8000
bfc02904:	afc2001c 	sw	v0,28(s8)
D:\loongson\projects\ls1d_ucos\Func/tdc-proc.c:102

			TDC->res_num = TDC->hitin1 + 2 - 2*TDC->disautocal; 			//stop_num+cal
bfc02908:	8fc20038 	lw	v0,56(s8)
bfc0290c:	8c43000c 	lw	v1,12(v0)
bfc02910:	8fc20038 	lw	v0,56(s8)
bfc02914:	8c420008 	lw	v0,8(v0)
bfc02918:	00021040 	sll	v0,v0,0x1
bfc0291c:	00621023 	subu	v0,v1,v0
bfc02920:	24430002 	addiu	v1,v0,2
bfc02924:	8fc20038 	lw	v0,56(s8)
bfc02928:	ac4300c4 	sw	v1,196(v0)
D:\loongson\projects\ls1d_ucos\Func/tdc-proc.c:104
			_u32 err;
			err = check_res(TDC);
bfc0292c:	8fc40038 	lw	a0,56(s8)
bfc02930:	3c02bfc0 	lui	v0,0xbfc0
bfc02934:	245938f4 	addiu	t9,v0,14580
bfc02938:	0320f809 	jalr	t9
bfc0293c:	00000000 	nop
bfc02940:	afc20018 	sw	v0,24(s8)
D:\loongson\projects\ls1d_ucos\Func/tdc-proc.c:105
			if(err) return 1;
bfc02944:	8fc20018 	lw	v0,24(s8)
bfc02948:	10400005 	beqz	v0,bfc02960 <func_once_time+0x98>
bfc0294c:	00000000 	nop
bfc02950:	24020001 	li	v0,1
bfc02954:	afc20020 	sw	v0,32(s8)
bfc02958:	0bf00aaa 	j	bfc02aa8 <func_once_time+0x1e0>
bfc0295c:	00000000 	nop
D:\loongson\projects\ls1d_ucos\Func/tdc-proc.c:108

			_u32 i;
			TDC->tdc_data.cal = calibrate(TDC->result[TDC->current_ptr0-2], TDC->result[TDC->current_ptr0-1], TDC);
bfc02960:	8fc20038 	lw	v0,56(s8)
bfc02964:	8c4200b4 	lw	v0,180(v0)
bfc02968:	2442fffe 	addiu	v0,v0,-2
bfc0296c:	8fc30038 	lw	v1,56(s8)
bfc02970:	2442000c 	addiu	v0,v0,12
bfc02974:	00021080 	sll	v0,v0,0x2
bfc02978:	00621021 	addu	v0,v1,v0
bfc0297c:	8c440004 	lw	a0,4(v0)
bfc02980:	8fc20038 	lw	v0,56(s8)
bfc02984:	8c4200b4 	lw	v0,180(v0)
bfc02988:	2442ffff 	addiu	v0,v0,-1
bfc0298c:	8fc30038 	lw	v1,56(s8)
bfc02990:	2442000c 	addiu	v0,v0,12
bfc02994:	00021080 	sll	v0,v0,0x2
bfc02998:	00621021 	addu	v0,v1,v0
bfc0299c:	8c420004 	lw	v0,4(v0)
bfc029a0:	00402821 	move	a1,v0
bfc029a4:	8fc60038 	lw	a2,56(s8)
bfc029a8:	0ff008e4 	jal	bfc02390 <calibrate>
bfc029ac:	00000000 	nop
bfc029b0:	00401821 	move	v1,v0
bfc029b4:	8fc20038 	lw	v0,56(s8)
bfc029b8:	ac430030 	sw	v1,48(v0)
D:\loongson\projects\ls1d_ucos\Func/tdc-proc.c:109
			for(i=TDC->last_ptr0; i<(TDC->last_ptr0 + TDC->hitin1); i++)
bfc029bc:	8fc20038 	lw	v0,56(s8)
bfc029c0:	8c4200bc 	lw	v0,188(v0)
bfc029c4:	afc20014 	sw	v0,20(s8)
bfc029c8:	0bf00a87 	j	bfc02a1c <func_once_time+0x154>
bfc029cc:	00000000 	nop
D:\loongson\projects\ls1d_ucos\Func/tdc-proc.c:111
			{
				TDC->res[i] = res_cal(TDC->result[i], TDC);
bfc029d0:	8fd00014 	lw	s0,20(s8)
bfc029d4:	8fc20014 	lw	v0,20(s8)
bfc029d8:	8fc30038 	lw	v1,56(s8)
bfc029dc:	2442000c 	addiu	v0,v0,12
bfc029e0:	00021080 	sll	v0,v0,0x2
bfc029e4:	00621021 	addu	v0,v1,v0
bfc029e8:	8c420004 	lw	v0,4(v0)
bfc029ec:	00402021 	move	a0,v0
bfc029f0:	8fc50038 	lw	a1,56(s8)
bfc029f4:	0ff0094e 	jal	bfc02538 <res_cal>
bfc029f8:	00000000 	nop
bfc029fc:	8fc30038 	lw	v1,56(s8)
bfc02a00:	2602001c 	addiu	v0,s0,28
bfc02a04:	00021080 	sll	v0,v0,0x2
bfc02a08:	00621021 	addu	v0,v1,v0
bfc02a0c:	e4400004 	swc1	$f0,4(v0)
D:\loongson\projects\ls1d_ucos\Func/tdc-proc.c:109
			err = check_res(TDC);
			if(err) return 1;

			_u32 i;
			TDC->tdc_data.cal = calibrate(TDC->result[TDC->current_ptr0-2], TDC->result[TDC->current_ptr0-1], TDC);
			for(i=TDC->last_ptr0; i<(TDC->last_ptr0 + TDC->hitin1); i++)
bfc02a10:	8fc20014 	lw	v0,20(s8)
bfc02a14:	24420001 	addiu	v0,v0,1
bfc02a18:	afc20014 	sw	v0,20(s8)
bfc02a1c:	8fc20038 	lw	v0,56(s8)
bfc02a20:	8c4300bc 	lw	v1,188(v0)
bfc02a24:	8fc20038 	lw	v0,56(s8)
bfc02a28:	8c42000c 	lw	v0,12(v0)
bfc02a2c:	00621821 	addu	v1,v1,v0
bfc02a30:	8fc20014 	lw	v0,20(s8)
bfc02a34:	0043102b 	sltu	v0,v0,v1
bfc02a38:	1440ffe5 	bnez	v0,bfc029d0 <func_once_time+0x108>
bfc02a3c:	00000000 	nop
D:\loongson\projects\ls1d_ucos\Func/tdc-proc.c:114
			{
				TDC->res[i] = res_cal(TDC->result[i], TDC);
			}

			_fp32 time = 0;
bfc02a40:	afc00010 	sw	zero,16(s8)
D:\loongson\projects\ls1d_ucos\Func/tdc-proc.c:115
			time = ftime_caculate(TDC->res, TDC->last_ptr0, TDC->hitin1);
bfc02a44:	8fc20038 	lw	v0,56(s8)
bfc02a48:	24430074 	addiu	v1,v0,116
bfc02a4c:	8fc20038 	lw	v0,56(s8)
bfc02a50:	8c4500bc 	lw	a1,188(v0)
bfc02a54:	8fc20038 	lw	v0,56(s8)
bfc02a58:	8c42000c 	lw	v0,12(v0)
bfc02a5c:	00602021 	move	a0,v1
bfc02a60:	00403021 	move	a2,v0
bfc02a64:	3c02bfc0 	lui	v0,0xbfc0
bfc02a68:	24592ac8 	addiu	t9,v0,10952
bfc02a6c:	0320f809 	jalr	t9
bfc02a70:	00000000 	nop
bfc02a74:	e7c00010 	swc1	$f0,16(s8)
D:\loongson\projects\ls1d_ucos\Func/tdc-proc.c:116
			if(up) {
bfc02a78:	8fc2001c 	lw	v0,28(s8)
bfc02a7c:	10400006 	beqz	v0,bfc02a98 <func_once_time+0x1d0>
bfc02a80:	00000000 	nop
D:\loongson\projects\ls1d_ucos\Func/tdc-proc.c:117
				(TDC->tdc_data).ftime1 = time;
bfc02a84:	8fc20038 	lw	v0,56(s8)
bfc02a88:	c7c00010 	lwc1	$f0,16(s8)
bfc02a8c:	e4400024 	swc1	$f0,36(v0)
bfc02a90:	0bf00aa9 	j	bfc02aa4 <func_once_time+0x1dc>
bfc02a94:	00000000 	nop
D:\loongson\projects\ls1d_ucos\Func/tdc-proc.c:120
			}
			else {
				(TDC->tdc_data).ftime2 = time;
bfc02a98:	8fc20038 	lw	v0,56(s8)
bfc02a9c:	c7c00010 	lwc1	$f0,16(s8)
bfc02aa0:	e4400028 	swc1	$f0,40(v0)
D:\loongson\projects\ls1d_ucos\Func/tdc-proc.c:132
	    break;
	default:
		break;
	}

	return 0;
bfc02aa4:	afc00020 	sw	zero,32(s8)
bfc02aa8:	8fc20020 	lw	v0,32(s8)
D:\loongson\projects\ls1d_ucos\Func/tdc-proc.c:133
}
bfc02aac:	03c0e821 	move	sp,s8
bfc02ab0:	8fbf0034 	lw	ra,52(sp)
bfc02ab4:	8fbe0030 	lw	s8,48(sp)
bfc02ab8:	8fb0002c 	lw	s0,44(sp)
bfc02abc:	27bd0038 	addiu	sp,sp,56
bfc02ac0:	03e00008 	jr	ra
bfc02ac4:	00000000 	nop

bfc02ac8 <ftime_caculate>:
ftime_caculate():
D:\loongson\projects\ls1d_ucos\Func/tdc-proc.c:136

_fp32 ftime_caculate(_fp32 *res, _u32 ptr, _u32 stop_num)
{
bfc02ac8:	27bdffc8 	addiu	sp,sp,-56
bfc02acc:	afbe0034 	sw	s8,52(sp)
bfc02ad0:	03a0f021 	move	s8,sp
bfc02ad4:	afc40038 	sw	a0,56(s8)
bfc02ad8:	afc5003c 	sw	a1,60(s8)
bfc02adc:	afc60040 	sw	a2,64(s8)
bfc02ae0:	03a01021 	move	v0,sp
bfc02ae4:	afc20010 	sw	v0,16(s8)
D:\loongson\projects\ls1d_ucos\Func/tdc-proc.c:138
	_u32 i;
	_fp32 delay[stop_num], average_time = 0;;
bfc02ae8:	8fc70040 	lw	a3,64(s8)
bfc02aec:	00e01021 	move	v0,a3
bfc02af0:	afc20028 	sw	v0,40(s8)
bfc02af4:	00001821 	move	v1,zero
bfc02af8:	afc3002c 	sw	v1,44(s8)
bfc02afc:	8fc40028 	lw	a0,40(s8)
bfc02b00:	8fc5002c 	lw	a1,44(s8)
bfc02b04:	afc40028 	sw	a0,40(s8)
bfc02b08:	afc5002c 	sw	a1,44(s8)
bfc02b0c:	2404ffff 	li	a0,-1
bfc02b10:	8fc50028 	lw	a1,40(s8)
bfc02b14:	00a41024 	and	v0,a1,a0
bfc02b18:	8fc4002c 	lw	a0,44(s8)
bfc02b1c:	3083000f 	andi	v1,a0,0xf
bfc02b20:	afc20028 	sw	v0,40(s8)
bfc02b24:	afc3002c 	sw	v1,44(s8)
bfc02b28:	8fc50028 	lw	a1,40(s8)
bfc02b2c:	000516c2 	srl	v0,a1,0x1b
bfc02b30:	8fc3002c 	lw	v1,44(s8)
bfc02b34:	00032940 	sll	a1,v1,0x5
bfc02b38:	00452825 	or	a1,v0,a1
bfc02b3c:	8fc20028 	lw	v0,40(s8)
bfc02b40:	00022140 	sll	a0,v0,0x5
bfc02b44:	2406ffff 	li	a2,-1
bfc02b48:	00861024 	and	v0,a0,a2
bfc02b4c:	30a3000f 	andi	v1,a1,0xf
bfc02b50:	00402021 	move	a0,v0
bfc02b54:	00602821 	move	a1,v1
bfc02b58:	00e01821 	move	v1,a3
bfc02b5c:	afc30020 	sw	v1,32(s8)
bfc02b60:	00002021 	move	a0,zero
bfc02b64:	afc40024 	sw	a0,36(s8)
bfc02b68:	8fc20020 	lw	v0,32(s8)
bfc02b6c:	8fc30024 	lw	v1,36(s8)
bfc02b70:	afc20020 	sw	v0,32(s8)
bfc02b74:	afc30024 	sw	v1,36(s8)
bfc02b78:	2404ffff 	li	a0,-1
bfc02b7c:	8fc50020 	lw	a1,32(s8)
bfc02b80:	00a41024 	and	v0,a1,a0
bfc02b84:	8fc40024 	lw	a0,36(s8)
bfc02b88:	3083000f 	andi	v1,a0,0xf
bfc02b8c:	afc20020 	sw	v0,32(s8)
bfc02b90:	afc30024 	sw	v1,36(s8)
bfc02b94:	8fc50020 	lw	a1,32(s8)
bfc02b98:	000516c2 	srl	v0,a1,0x1b
bfc02b9c:	8fc30024 	lw	v1,36(s8)
bfc02ba0:	00032940 	sll	a1,v1,0x5
bfc02ba4:	00452825 	or	a1,v0,a1
bfc02ba8:	8fc20020 	lw	v0,32(s8)
bfc02bac:	00022140 	sll	a0,v0,0x5
bfc02bb0:	2406ffff 	li	a2,-1
bfc02bb4:	00861024 	and	v0,a0,a2
bfc02bb8:	30a3000f 	andi	v1,a1,0xf
bfc02bbc:	00402021 	move	a0,v0
bfc02bc0:	00602821 	move	a1,v1
bfc02bc4:	00071080 	sll	v0,a3,0x2
bfc02bc8:	24420007 	addiu	v0,v0,7
bfc02bcc:	24420007 	addiu	v0,v0,7
bfc02bd0:	000210c2 	srl	v0,v0,0x3
bfc02bd4:	000210c0 	sll	v0,v0,0x3
bfc02bd8:	03a2e823 	subu	sp,sp,v0
bfc02bdc:	afdd001c 	sw	sp,28(s8)
bfc02be0:	8fc3001c 	lw	v1,28(s8)
bfc02be4:	24620007 	addiu	v0,v1,7
bfc02be8:	000210c2 	srl	v0,v0,0x3
bfc02bec:	000210c0 	sll	v0,v0,0x3
bfc02bf0:	afc2001c 	sw	v0,28(s8)
bfc02bf4:	8fc4001c 	lw	a0,28(s8)
bfc02bf8:	afc40008 	sw	a0,8(s8)
bfc02bfc:	afc00000 	sw	zero,0(s8)
D:\loongson\projects\ls1d_ucos\Func/tdc-proc.c:139
	for(i=1;i<stop_num;i++)
bfc02c00:	24020001 	li	v0,1
bfc02c04:	afc20004 	sw	v0,4(s8)
bfc02c08:	0bf00b21 	j	bfc02c84 <ftime_caculate+0x1bc>
bfc02c0c:	00000000 	nop
D:\loongson\projects\ls1d_ucos\Func/tdc-proc.c:141
	{
		delay[i] = res[i+ptr] - res[0+ptr];
bfc02c10:	8fc40004 	lw	a0,4(s8)
bfc02c14:	8fc30004 	lw	v1,4(s8)
bfc02c18:	8fc2003c 	lw	v0,60(s8)
bfc02c1c:	00621021 	addu	v0,v1,v0
bfc02c20:	00021880 	sll	v1,v0,0x2
bfc02c24:	8fc20038 	lw	v0,56(s8)
bfc02c28:	00431021 	addu	v0,v0,v1
bfc02c2c:	c4410000 	lwc1	$f1,0(v0)
bfc02c30:	8fc2003c 	lw	v0,60(s8)
bfc02c34:	00021880 	sll	v1,v0,0x2
bfc02c38:	8fc20038 	lw	v0,56(s8)
bfc02c3c:	00431021 	addu	v0,v0,v1
bfc02c40:	c4400000 	lwc1	$f0,0(v0)
bfc02c44:	46000801 	sub.s	$f0,$f1,$f0
bfc02c48:	8fc30008 	lw	v1,8(s8)
bfc02c4c:	00041080 	sll	v0,a0,0x2
bfc02c50:	00621021 	addu	v0,v1,v0
bfc02c54:	e4400000 	swc1	$f0,0(v0)
D:\loongson\projects\ls1d_ucos\Func/tdc-proc.c:142
		average_time += delay[i];
bfc02c58:	8fc20004 	lw	v0,4(s8)
bfc02c5c:	8fc30008 	lw	v1,8(s8)
bfc02c60:	00021080 	sll	v0,v0,0x2
bfc02c64:	00621021 	addu	v0,v1,v0
bfc02c68:	c4410000 	lwc1	$f1,0(v0)
bfc02c6c:	c7c00000 	lwc1	$f0,0(s8)
bfc02c70:	46010000 	add.s	$f0,$f0,$f1
bfc02c74:	e7c00000 	swc1	$f0,0(s8)
D:\loongson\projects\ls1d_ucos\Func/tdc-proc.c:139

_fp32 ftime_caculate(_fp32 *res, _u32 ptr, _u32 stop_num)
{
	_u32 i;
	_fp32 delay[stop_num], average_time = 0;;
	for(i=1;i<stop_num;i++)
bfc02c78:	8fc20004 	lw	v0,4(s8)
bfc02c7c:	24420001 	addiu	v0,v0,1
bfc02c80:	afc20004 	sw	v0,4(s8)
bfc02c84:	8fc20004 	lw	v0,4(s8)
bfc02c88:	8fc30040 	lw	v1,64(s8)
bfc02c8c:	0043102b 	sltu	v0,v0,v1
bfc02c90:	1440ffdf 	bnez	v0,bfc02c10 <ftime_caculate+0x148>
bfc02c94:	00000000 	nop
D:\loongson\projects\ls1d_ucos\Func/tdc-proc.c:145
	{
		delay[i] = res[i+ptr] - res[0+ptr];
		average_time += delay[i];
	}

	if(stop_num != 1)
bfc02c98:	8fc30040 	lw	v1,64(s8)
bfc02c9c:	24020001 	li	v0,1
bfc02ca0:	1062001c 	beq	v1,v0,bfc02d14 <ftime_caculate+0x24c>
bfc02ca4:	00000000 	nop
D:\loongson\projects\ls1d_ucos\Func/tdc-proc.c:146
		average_time /= (stop_num - 1);
bfc02ca8:	8fc20040 	lw	v0,64(s8)
bfc02cac:	2442ffff 	addiu	v0,v0,-1
bfc02cb0:	afc20018 	sw	v0,24(s8)
bfc02cb4:	8fc50018 	lw	a1,24(s8)
bfc02cb8:	04a00006 	bltz	a1,bfc02cd4 <ftime_caculate+0x20c>
bfc02cbc:	00000000 	nop
bfc02cc0:	c7c00018 	lwc1	$f0,24(s8)
bfc02cc4:	46800020 	cvt.s.w	$f0,$f0
bfc02cc8:	e7c00014 	swc1	$f0,20(s8)
bfc02ccc:	0bf00b41 	j	bfc02d04 <ftime_caculate+0x23c>
bfc02cd0:	00000000 	nop
bfc02cd4:	8fc30018 	lw	v1,24(s8)
bfc02cd8:	30620001 	andi	v0,v1,0x1
bfc02cdc:	8fc40018 	lw	a0,24(s8)
bfc02ce0:	00041842 	srl	v1,a0,0x1
bfc02ce4:	00431025 	or	v0,v0,v1
bfc02ce8:	44820000 	mtc1	v0,$f0
bfc02cec:	46800020 	cvt.s.w	$f0,$f0
bfc02cf0:	e7c00014 	swc1	$f0,20(s8)
bfc02cf4:	c7c10014 	lwc1	$f1,20(s8)
bfc02cf8:	c7c00014 	lwc1	$f0,20(s8)
bfc02cfc:	46000840 	add.s	$f1,$f1,$f0
bfc02d00:	e7c10014 	swc1	$f1,20(s8)
bfc02d04:	c7c00000 	lwc1	$f0,0(s8)
bfc02d08:	c7c10014 	lwc1	$f1,20(s8)
bfc02d0c:	46010003 	div.s	$f0,$f0,$f1
bfc02d10:	e7c00000 	swc1	$f0,0(s8)
D:\loongson\projects\ls1d_ucos\Func/tdc-proc.c:148

	return average_time;
bfc02d14:	c7c00000 	lwc1	$f0,0(s8)
bfc02d18:	8fdd0010 	lw	sp,16(s8)
D:\loongson\projects\ls1d_ucos\Func/tdc-proc.c:149
}
bfc02d1c:	03c0e821 	move	sp,s8
bfc02d20:	8fbe0034 	lw	s8,52(sp)
bfc02d24:	27bd0038 	addiu	sp,sp,56
bfc02d28:	03e00008 	jr	ra
bfc02d2c:	00000000 	nop

bfc02d30 <ptime_caculate>:
ptime_caculate():
D:\loongson\projects\ls1d_ucos\Func/tdc-proc.c:152

void ptime_caculate(_fp32 *res, _u32 ptr, _fp32 *time, TDCINFO *TDC)
{
bfc02d30:	27bdffe8 	addiu	sp,sp,-24
bfc02d34:	afbe0014 	sw	s8,20(sp)
bfc02d38:	03a0f021 	move	s8,sp
bfc02d3c:	afc40018 	sw	a0,24(s8)
bfc02d40:	afc5001c 	sw	a1,28(s8)
bfc02d44:	afc60020 	sw	a2,32(s8)
bfc02d48:	afc70024 	sw	a3,36(s8)
D:\loongson\projects\ls1d_ucos\Func/tdc-proc.c:154
	_s32 i, j;
	for(i=0; i<4; i++)
bfc02d4c:	afc00004 	sw	zero,4(s8)
bfc02d50:	0bf00b5e 	j	bfc02d78 <ptime_caculate+0x48>
bfc02d54:	00000000 	nop
D:\loongson\projects\ls1d_ucos\Func/tdc-proc.c:155
		time[i] = 0;
bfc02d58:	8fc20004 	lw	v0,4(s8)
bfc02d5c:	00021880 	sll	v1,v0,0x2
bfc02d60:	8fc20020 	lw	v0,32(s8)
bfc02d64:	00431021 	addu	v0,v0,v1
bfc02d68:	ac400000 	sw	zero,0(v0)
D:\loongson\projects\ls1d_ucos\Func/tdc-proc.c:154
}

void ptime_caculate(_fp32 *res, _u32 ptr, _fp32 *time, TDCINFO *TDC)
{
	_s32 i, j;
	for(i=0; i<4; i++)
bfc02d6c:	8fc20004 	lw	v0,4(s8)
bfc02d70:	24420001 	addiu	v0,v0,1
bfc02d74:	afc20004 	sw	v0,4(s8)
bfc02d78:	8fc20004 	lw	v0,4(s8)
bfc02d7c:	28420004 	slti	v0,v0,4
bfc02d80:	1440fff5 	bnez	v0,bfc02d58 <ptime_caculate+0x28>
bfc02d84:	00000000 	nop
D:\loongson\projects\ls1d_ucos\Func/tdc-proc.c:157
		time[i] = 0;

	switch(TDC->res_num) {
bfc02d88:	8fc20024 	lw	v0,36(s8)
bfc02d8c:	8c4200c4 	lw	v0,196(v0)
bfc02d90:	afc20008 	sw	v0,8(s8)
bfc02d94:	24020004 	li	v0,4
bfc02d98:	8fc30008 	lw	v1,8(s8)
bfc02d9c:	10620037 	beq	v1,v0,bfc02e7c <ptime_caculate+0x14c>
bfc02da0:	00000000 	nop
bfc02da4:	8fc30008 	lw	v1,8(s8)
bfc02da8:	2c620005 	sltiu	v0,v1,5
bfc02dac:	10400007 	beqz	v0,bfc02dcc <ptime_caculate+0x9c>
bfc02db0:	00000000 	nop
bfc02db4:	24020003 	li	v0,3
bfc02db8:	8fc30008 	lw	v1,8(s8)
bfc02dbc:	1062000d 	beq	v1,v0,bfc02df4 <ptime_caculate+0xc4>
bfc02dc0:	00000000 	nop
bfc02dc4:	0bf00bc5 	j	bfc02f14 <ptime_caculate+0x1e4>
bfc02dc8:	00000000 	nop
bfc02dcc:	24020005 	li	v0,5
bfc02dd0:	8fc30008 	lw	v1,8(s8)
bfc02dd4:	10620007 	beq	v1,v0,bfc02df4 <ptime_caculate+0xc4>
bfc02dd8:	00000000 	nop
bfc02ddc:	24020008 	li	v0,8
bfc02de0:	8fc30008 	lw	v1,8(s8)
bfc02de4:	10620025 	beq	v1,v0,bfc02e7c <ptime_caculate+0x14c>
bfc02de8:	00000000 	nop
bfc02dec:	0bf00bc5 	j	bfc02f14 <ptime_caculate+0x1e4>
bfc02df0:	00000000 	nop
D:\loongson\projects\ls1d_ucos\Func/tdc-proc.c:160
	case 3:
	case 5:
		for(i=0; i<(TDC->res_num - 1); i++)
bfc02df4:	afc00004 	sw	zero,4(s8)
bfc02df8:	0bf00b96 	j	bfc02e58 <ptime_caculate+0x128>
bfc02dfc:	00000000 	nop
D:\loongson\projects\ls1d_ucos\Func/tdc-proc.c:161
			time[i] = res[ptr+i+1] - res[ptr+0];
bfc02e00:	8fc20004 	lw	v0,4(s8)
bfc02e04:	00021880 	sll	v1,v0,0x2
bfc02e08:	8fc20020 	lw	v0,32(s8)
bfc02e0c:	00432021 	addu	a0,v0,v1
bfc02e10:	8fc30004 	lw	v1,4(s8)
bfc02e14:	8fc2001c 	lw	v0,28(s8)
bfc02e18:	00621021 	addu	v0,v1,v0
bfc02e1c:	24420001 	addiu	v0,v0,1
bfc02e20:	00021880 	sll	v1,v0,0x2
bfc02e24:	8fc20018 	lw	v0,24(s8)
bfc02e28:	00431021 	addu	v0,v0,v1
bfc02e2c:	c4410000 	lwc1	$f1,0(v0)
bfc02e30:	8fc2001c 	lw	v0,28(s8)
bfc02e34:	00021880 	sll	v1,v0,0x2
bfc02e38:	8fc20018 	lw	v0,24(s8)
bfc02e3c:	00431021 	addu	v0,v0,v1
bfc02e40:	c4400000 	lwc1	$f0,0(v0)
bfc02e44:	46000801 	sub.s	$f0,$f1,$f0
bfc02e48:	e4800000 	swc1	$f0,0(a0)
D:\loongson\projects\ls1d_ucos\Func/tdc-proc.c:160
		time[i] = 0;

	switch(TDC->res_num) {
	case 3:
	case 5:
		for(i=0; i<(TDC->res_num - 1); i++)
bfc02e4c:	8fc20004 	lw	v0,4(s8)
bfc02e50:	24420001 	addiu	v0,v0,1
bfc02e54:	afc20004 	sw	v0,4(s8)
bfc02e58:	8fc30004 	lw	v1,4(s8)
bfc02e5c:	8fc20024 	lw	v0,36(s8)
bfc02e60:	8c4200c4 	lw	v0,196(v0)
bfc02e64:	2442ffff 	addiu	v0,v0,-1
bfc02e68:	0062102b 	sltu	v0,v1,v0
bfc02e6c:	1440ffe4 	bnez	v0,bfc02e00 <ptime_caculate+0xd0>
bfc02e70:	00000000 	nop
bfc02e74:	0bf00bc5 	j	bfc02f14 <ptime_caculate+0x1e4>
bfc02e78:	00000000 	nop
D:\loongson\projects\ls1d_ucos\Func/tdc-proc.c:165
			time[i] = res[ptr+i+1] - res[ptr+0];
		break;
	case 4:
	case 8:
		for(i=0, j=0; i<(TDC->res_num/2); i++, j += 2)
bfc02e7c:	afc00004 	sw	zero,4(s8)
bfc02e80:	afc00000 	sw	zero,0(s8)
bfc02e84:	0bf00bbe 	j	bfc02ef8 <ptime_caculate+0x1c8>
bfc02e88:	00000000 	nop
D:\loongson\projects\ls1d_ucos\Func/tdc-proc.c:166
			time[i] = res[ptr+j+1] - res[ptr+j];
bfc02e8c:	8fc20004 	lw	v0,4(s8)
bfc02e90:	00021880 	sll	v1,v0,0x2
bfc02e94:	8fc20020 	lw	v0,32(s8)
bfc02e98:	00432021 	addu	a0,v0,v1
bfc02e9c:	8fc30000 	lw	v1,0(s8)
bfc02ea0:	8fc2001c 	lw	v0,28(s8)
bfc02ea4:	00621021 	addu	v0,v1,v0
bfc02ea8:	24420001 	addiu	v0,v0,1
bfc02eac:	00021880 	sll	v1,v0,0x2
bfc02eb0:	8fc20018 	lw	v0,24(s8)
bfc02eb4:	00431021 	addu	v0,v0,v1
bfc02eb8:	c4410000 	lwc1	$f1,0(v0)
bfc02ebc:	8fc30000 	lw	v1,0(s8)
bfc02ec0:	8fc2001c 	lw	v0,28(s8)
bfc02ec4:	00621021 	addu	v0,v1,v0
bfc02ec8:	00021880 	sll	v1,v0,0x2
bfc02ecc:	8fc20018 	lw	v0,24(s8)
bfc02ed0:	00431021 	addu	v0,v0,v1
bfc02ed4:	c4400000 	lwc1	$f0,0(v0)
bfc02ed8:	46000801 	sub.s	$f0,$f1,$f0
bfc02edc:	e4800000 	swc1	$f0,0(a0)
D:\loongson\projects\ls1d_ucos\Func/tdc-proc.c:165
		for(i=0; i<(TDC->res_num - 1); i++)
			time[i] = res[ptr+i+1] - res[ptr+0];
		break;
	case 4:
	case 8:
		for(i=0, j=0; i<(TDC->res_num/2); i++, j += 2)
bfc02ee0:	8fc20004 	lw	v0,4(s8)
bfc02ee4:	24420001 	addiu	v0,v0,1
bfc02ee8:	afc20004 	sw	v0,4(s8)
bfc02eec:	8fc20000 	lw	v0,0(s8)
bfc02ef0:	24420002 	addiu	v0,v0,2
bfc02ef4:	afc20000 	sw	v0,0(s8)
bfc02ef8:	8fc30004 	lw	v1,4(s8)
bfc02efc:	8fc20024 	lw	v0,36(s8)
bfc02f00:	8c4200c4 	lw	v0,196(v0)
bfc02f04:	00021042 	srl	v0,v0,0x1
bfc02f08:	0062102b 	sltu	v0,v1,v0
bfc02f0c:	1440ffdf 	bnez	v0,bfc02e8c <ptime_caculate+0x15c>
bfc02f10:	00000000 	nop
D:\loongson\projects\ls1d_ucos\Func/tdc-proc.c:169
			time[i] = res[ptr+j+1] - res[ptr+j];
		break;
	}
}
bfc02f14:	03c0e821 	move	sp,s8
bfc02f18:	8fbe0014 	lw	s8,20(sp)
bfc02f1c:	27bd0018 	addiu	sp,sp,24
bfc02f20:	03e00008 	jr	ra
bfc02f24:	00000000 	nop

bfc02f28 <func_once_thsens>:
func_once_thsens():
D:\loongson\projects\ls1d_ucos\Func/tdc-proc.c:172

_u32 func_once_thsens(TDCINFO *TDC)
{
bfc02f28:	27bdffb8 	addiu	sp,sp,-72
bfc02f2c:	afbf0044 	sw	ra,68(sp)
bfc02f30:	afbe0040 	sw	s8,64(sp)
bfc02f34:	afb0003c 	sw	s0,60(sp)
bfc02f38:	03a0f021 	move	s8,sp
bfc02f3c:	afc40048 	sw	a0,72(s8)
D:\loongson\projects\ls1d_ucos\Func/tdc-proc.c:173
	switch(TDC->tdc_mode){
bfc02f40:	8fc20048 	lw	v0,72(s8)
bfc02f44:	8c430000 	lw	v1,0(v0)
bfc02f48:	24020002 	li	v0,2
bfc02f4c:	1462008d 	bne	v1,v0,bfc03184 <func_once_thsens+0x25c>
bfc02f50:	00000000 	nop
D:\loongson\projects\ls1d_ucos\Func/tdc-proc.c:176
	case S_TDC:  						//stdc
		{
			if(Thsens[0]&0x8)   		//pwrsave
bfc02f54:	3c02bfeb 	lui	v0,0xbfeb
bfc02f58:	34428000 	ori	v0,v0,0x8000
bfc02f5c:	8c420000 	lw	v0,0(v0)
bfc02f60:	30420008 	andi	v0,v0,0x8
bfc02f64:	10400012 	beqz	v0,bfc02fb0 <func_once_thsens+0x88>
bfc02f68:	00000000 	nop
D:\loongson\projects\ls1d_ucos\Func/tdc-proc.c:177
				TDC->res_num = ((Thsens[0]&0x2)>0?4:2)+1;
bfc02f6c:	3c02bfeb 	lui	v0,0xbfeb
bfc02f70:	34428000 	ori	v0,v0,0x8000
bfc02f74:	8c420000 	lw	v0,0(v0)
bfc02f78:	30420002 	andi	v0,v0,0x2
bfc02f7c:	10400005 	beqz	v0,bfc02f94 <func_once_thsens+0x6c>
bfc02f80:	00000000 	nop
bfc02f84:	24020005 	li	v0,5
bfc02f88:	afc20030 	sw	v0,48(s8)
bfc02f8c:	0bf00be7 	j	bfc02f9c <func_once_thsens+0x74>
bfc02f90:	00000000 	nop
bfc02f94:	24030003 	li	v1,3
bfc02f98:	afc30030 	sw	v1,48(s8)
bfc02f9c:	8fc20048 	lw	v0,72(s8)
bfc02fa0:	8fc30030 	lw	v1,48(s8)
bfc02fa4:	ac4300c4 	sw	v1,196(v0)
bfc02fa8:	0bf00bfb 	j	bfc02fec <func_once_thsens+0xc4>
bfc02fac:	00000000 	nop
D:\loongson\projects\ls1d_ucos\Func/tdc-proc.c:179
			else
				TDC->res_num = 2*((Thsens[0]&0x2)>0?4:2);  //4 or 8
bfc02fb0:	3c02bfeb 	lui	v0,0xbfeb
bfc02fb4:	34428000 	ori	v0,v0,0x8000
bfc02fb8:	8c420000 	lw	v0,0(v0)
bfc02fbc:	30420002 	andi	v0,v0,0x2
bfc02fc0:	10400005 	beqz	v0,bfc02fd8 <func_once_thsens+0xb0>
bfc02fc4:	00000000 	nop
bfc02fc8:	24020008 	li	v0,8
bfc02fcc:	afc2002c 	sw	v0,44(s8)
bfc02fd0:	0bf00bf8 	j	bfc02fe0 <func_once_thsens+0xb8>
bfc02fd4:	00000000 	nop
bfc02fd8:	24030004 	li	v1,4
bfc02fdc:	afc3002c 	sw	v1,44(s8)
bfc02fe0:	8fc20048 	lw	v0,72(s8)
bfc02fe4:	8fc3002c 	lw	v1,44(s8)
bfc02fe8:	ac4300c4 	sw	v1,196(v0)
D:\loongson\projects\ls1d_ucos\Func/tdc-proc.c:181
			_u32 err;
			err = check_res(TDC);
bfc02fec:	8fc40048 	lw	a0,72(s8)
bfc02ff0:	3c02bfc0 	lui	v0,0xbfc0
bfc02ff4:	245938f4 	addiu	t9,v0,14580
bfc02ff8:	0320f809 	jalr	t9
bfc02ffc:	00000000 	nop
bfc03000:	afc20014 	sw	v0,20(s8)
D:\loongson\projects\ls1d_ucos\Func/tdc-proc.c:182
			if(err) return 1;
bfc03004:	8fc20014 	lw	v0,20(s8)
bfc03008:	10400005 	beqz	v0,bfc03020 <func_once_thsens+0xf8>
bfc0300c:	00000000 	nop
bfc03010:	24020001 	li	v0,1
bfc03014:	afc20028 	sw	v0,40(s8)
bfc03018:	0bf00c62 	j	bfc03188 <func_once_thsens+0x260>
bfc0301c:	00000000 	nop
D:\loongson\projects\ls1d_ucos\Func/tdc-proc.c:185

			_s32 i;
			for(i=0; i<TDC->current_ptr0; i++)
bfc03020:	afc00010 	sw	zero,16(s8)
bfc03024:	0bf00c1e 	j	bfc03078 <func_once_thsens+0x150>
bfc03028:	00000000 	nop
D:\loongson\projects\ls1d_ucos\Func/tdc-proc.c:187
			{
				TDC->res[i] = res_cal(TDC->result[i], TDC);
bfc0302c:	8fd00010 	lw	s0,16(s8)
bfc03030:	8fc20010 	lw	v0,16(s8)
bfc03034:	8fc30048 	lw	v1,72(s8)
bfc03038:	2442000c 	addiu	v0,v0,12
bfc0303c:	00021080 	sll	v0,v0,0x2
bfc03040:	00621021 	addu	v0,v1,v0
bfc03044:	8c420004 	lw	v0,4(v0)
bfc03048:	00402021 	move	a0,v0
bfc0304c:	8fc50048 	lw	a1,72(s8)
bfc03050:	0ff0094e 	jal	bfc02538 <res_cal>
bfc03054:	00000000 	nop
bfc03058:	8fc30048 	lw	v1,72(s8)
bfc0305c:	2602001c 	addiu	v0,s0,28
bfc03060:	00021080 	sll	v0,v0,0x2
bfc03064:	00621021 	addu	v0,v1,v0
bfc03068:	e4400004 	swc1	$f0,4(v0)
D:\loongson\projects\ls1d_ucos\Func/tdc-proc.c:185
			_u32 err;
			err = check_res(TDC);
			if(err) return 1;

			_s32 i;
			for(i=0; i<TDC->current_ptr0; i++)
bfc0306c:	8fc20010 	lw	v0,16(s8)
bfc03070:	24420001 	addiu	v0,v0,1
bfc03074:	afc20010 	sw	v0,16(s8)
bfc03078:	8fc30010 	lw	v1,16(s8)
bfc0307c:	8fc20048 	lw	v0,72(s8)
bfc03080:	8c4200b4 	lw	v0,180(v0)
bfc03084:	0062102b 	sltu	v0,v1,v0
bfc03088:	1440ffe8 	bnez	v0,bfc0302c <func_once_thsens+0x104>
bfc0308c:	00000000 	nop
D:\loongson\projects\ls1d_ucos\Func/tdc-proc.c:191
			{
				TDC->res[i] = res_cal(TDC->result[i], TDC);
			}

			_fp32 time[4];
			ptime_caculate(TDC->res, 0, time, TDC);
bfc03090:	8fc20048 	lw	v0,72(s8)
bfc03094:	24420074 	addiu	v0,v0,116
bfc03098:	27c30018 	addiu	v1,s8,24
bfc0309c:	00402021 	move	a0,v0
bfc030a0:	00002821 	move	a1,zero
bfc030a4:	00603021 	move	a2,v1
bfc030a8:	8fc70048 	lw	a3,72(s8)
bfc030ac:	0ff00b4c 	jal	bfc02d30 <ptime_caculate>
bfc030b0:	00000000 	nop
D:\loongson\projects\ls1d_ucos\Func/tdc-proc.c:192
			if(Thsens[0]&0x4) {  				//4-3-2-1
bfc030b4:	3c02bfeb 	lui	v0,0xbfeb
bfc030b8:	34428000 	ori	v0,v0,0x8000
bfc030bc:	8c420000 	lw	v0,0(v0)
bfc030c0:	30420004 	andi	v0,v0,0x4
bfc030c4:	1040001a 	beqz	v0,bfc03130 <func_once_thsens+0x208>
bfc030c8:	00000000 	nop
D:\loongson\projects\ls1d_ucos\Func/tdc-proc.c:193
				for(i=3; i>=0; i--)
bfc030cc:	24020003 	li	v0,3
bfc030d0:	afc20010 	sw	v0,16(s8)
bfc030d4:	0bf00c47 	j	bfc0311c <func_once_thsens+0x1f4>
bfc030d8:	00000000 	nop
D:\loongson\projects\ls1d_ucos\Func/tdc-proc.c:194
					TDC->tdc_data.ptime[i] = time[3-i];
bfc030dc:	8fc40010 	lw	a0,16(s8)
bfc030e0:	24030003 	li	v1,3
bfc030e4:	8fc20010 	lw	v0,16(s8)
bfc030e8:	00621023 	subu	v0,v1,v0
bfc030ec:	00021080 	sll	v0,v0,0x2
bfc030f0:	27c30010 	addiu	v1,s8,16
bfc030f4:	00621021 	addu	v0,v1,v0
bfc030f8:	c4400008 	lwc1	$f0,8(v0)
bfc030fc:	8fc30048 	lw	v1,72(s8)
bfc03100:	24820004 	addiu	v0,a0,4
bfc03104:	00021080 	sll	v0,v0,0x2
bfc03108:	00621021 	addu	v0,v1,v0
bfc0310c:	e4400004 	swc1	$f0,4(v0)
D:\loongson\projects\ls1d_ucos\Func/tdc-proc.c:193
			}

			_fp32 time[4];
			ptime_caculate(TDC->res, 0, time, TDC);
			if(Thsens[0]&0x4) {  				//4-3-2-1
				for(i=3; i>=0; i--)
bfc03110:	8fc20010 	lw	v0,16(s8)
bfc03114:	2442ffff 	addiu	v0,v0,-1
bfc03118:	afc20010 	sw	v0,16(s8)
bfc0311c:	8fc20010 	lw	v0,16(s8)
bfc03120:	0441ffee 	bgez	v0,bfc030dc <func_once_thsens+0x1b4>
bfc03124:	00000000 	nop
bfc03128:	0bf00c61 	j	bfc03184 <func_once_thsens+0x25c>
bfc0312c:	00000000 	nop
D:\loongson\projects\ls1d_ucos\Func/tdc-proc.c:196
					TDC->tdc_data.ptime[i] = time[3-i];
			}else {
				for(i=0; i<4; i++)
bfc03130:	afc00010 	sw	zero,16(s8)
bfc03134:	0bf00c5d 	j	bfc03174 <func_once_thsens+0x24c>
bfc03138:	00000000 	nop
D:\loongson\projects\ls1d_ucos\Func/tdc-proc.c:197
					TDC->tdc_data.ptime[i] = time[i];
bfc0313c:	8fc40010 	lw	a0,16(s8)
bfc03140:	8fc20010 	lw	v0,16(s8)
bfc03144:	00021080 	sll	v0,v0,0x2
bfc03148:	27c30010 	addiu	v1,s8,16
bfc0314c:	00621021 	addu	v0,v1,v0
bfc03150:	c4400008 	lwc1	$f0,8(v0)
bfc03154:	8fc30048 	lw	v1,72(s8)
bfc03158:	24820004 	addiu	v0,a0,4
bfc0315c:	00021080 	sll	v0,v0,0x2
bfc03160:	00621021 	addu	v0,v1,v0
bfc03164:	e4400004 	swc1	$f0,4(v0)
D:\loongson\projects\ls1d_ucos\Func/tdc-proc.c:196
			ptime_caculate(TDC->res, 0, time, TDC);
			if(Thsens[0]&0x4) {  				//4-3-2-1
				for(i=3; i>=0; i--)
					TDC->tdc_data.ptime[i] = time[3-i];
			}else {
				for(i=0; i<4; i++)
bfc03168:	8fc20010 	lw	v0,16(s8)
bfc0316c:	24420001 	addiu	v0,v0,1
bfc03170:	afc20010 	sw	v0,16(s8)
bfc03174:	8fc20010 	lw	v0,16(s8)
bfc03178:	28420004 	slti	v0,v0,4
bfc0317c:	1440ffef 	bnez	v0,bfc0313c <func_once_thsens+0x214>
bfc03180:	00000000 	nop
D:\loongson\projects\ls1d_ucos\Func/tdc-proc.c:209
	    break;
	default:
		break;
	}

	return 0;
bfc03184:	afc00028 	sw	zero,40(s8)
bfc03188:	8fc20028 	lw	v0,40(s8)
D:\loongson\projects\ls1d_ucos\Func/tdc-proc.c:210
}
bfc0318c:	03c0e821 	move	sp,s8
bfc03190:	8fbf0044 	lw	ra,68(sp)
bfc03194:	8fbe0040 	lw	s8,64(sp)
bfc03198:	8fb0003c 	lw	s0,60(sp)
bfc0319c:	27bd0048 	addiu	sp,sp,72
bfc031a0:	03e00008 	jr	ra
bfc031a4:	00000000 	nop

bfc031a8 <func_twice_time>:
func_twice_time():
D:\loongson\projects\ls1d_ucos\Func/tdc-proc.c:213

_u32 func_twice_time(TDCINFO *TDC)
{
bfc031a8:	27bdffc0 	addiu	sp,sp,-64
bfc031ac:	afbf003c 	sw	ra,60(sp)
bfc031b0:	afbe0038 	sw	s8,56(sp)
bfc031b4:	afb00034 	sw	s0,52(sp)
bfc031b8:	03a0f021 	move	s8,sp
bfc031bc:	afc40040 	sw	a0,64(s8)
D:\loongson\projects\ls1d_ucos\Func/tdc-proc.c:214
	switch(TDC->tdc_mode){
bfc031c0:	8fc20040 	lw	v0,64(s8)
bfc031c4:	8c430000 	lw	v1,0(v0)
bfc031c8:	24020002 	li	v0,2
bfc031cc:	146200bb 	bne	v1,v0,bfc034bc <func_twice_time+0x314>
bfc031d0:	00000000 	nop
D:\loongson\projects\ls1d_ucos\Func/tdc-proc.c:218
	case S_TDC:
	{
		_u32 up;
		up = Sonar[0]&0x8000;
bfc031d4:	3c02bfeb 	lui	v0,0xbfeb
bfc031d8:	34424000 	ori	v0,v0,0x4000
bfc031dc:	8c420000 	lw	v0,0(v0)
bfc031e0:	30428000 	andi	v0,v0,0x8000
bfc031e4:	afc20024 	sw	v0,36(s8)
D:\loongson\projects\ls1d_ucos\Func/tdc-proc.c:220

		TDC->res_num = TDC->hitin1 + 2 - 2*TDC->disautocal; //stop_num+cal
bfc031e8:	8fc20040 	lw	v0,64(s8)
bfc031ec:	8c43000c 	lw	v1,12(v0)
bfc031f0:	8fc20040 	lw	v0,64(s8)
bfc031f4:	8c420008 	lw	v0,8(v0)
bfc031f8:	00021040 	sll	v0,v0,0x1
bfc031fc:	00621023 	subu	v0,v1,v0
bfc03200:	24430002 	addiu	v1,v0,2
bfc03204:	8fc20040 	lw	v0,64(s8)
bfc03208:	ac4300c4 	sw	v1,196(v0)
D:\loongson\projects\ls1d_ucos\Func/tdc-proc.c:222
		_u32 err;
		err = check_res(TDC);
bfc0320c:	8fc40040 	lw	a0,64(s8)
bfc03210:	3c02bfc0 	lui	v0,0xbfc0
bfc03214:	245938f4 	addiu	t9,v0,14580
bfc03218:	0320f809 	jalr	t9
bfc0321c:	00000000 	nop
bfc03220:	afc20020 	sw	v0,32(s8)
D:\loongson\projects\ls1d_ucos\Func/tdc-proc.c:223
		if(err) return 1;
bfc03224:	8fc20020 	lw	v0,32(s8)
bfc03228:	10400005 	beqz	v0,bfc03240 <func_twice_time+0x98>
bfc0322c:	00000000 	nop
bfc03230:	24020001 	li	v0,1
bfc03234:	afc20028 	sw	v0,40(s8)
bfc03238:	0bf00d30 	j	bfc034c0 <func_twice_time+0x318>
bfc0323c:	00000000 	nop
D:\loongson\projects\ls1d_ucos\Func/tdc-proc.c:227

		_u32 i;

		TDC->tdc_data.cal = calibrate(TDC->result[TDC->last_ptr0-2], TDC->result[TDC->last_ptr0-1], TDC);
bfc03240:	8fc20040 	lw	v0,64(s8)
bfc03244:	8c4200bc 	lw	v0,188(v0)
bfc03248:	2442fffe 	addiu	v0,v0,-2
bfc0324c:	8fc30040 	lw	v1,64(s8)
bfc03250:	2442000c 	addiu	v0,v0,12
bfc03254:	00021080 	sll	v0,v0,0x2
bfc03258:	00621021 	addu	v0,v1,v0
bfc0325c:	8c440004 	lw	a0,4(v0)
bfc03260:	8fc20040 	lw	v0,64(s8)
bfc03264:	8c4200bc 	lw	v0,188(v0)
bfc03268:	2442ffff 	addiu	v0,v0,-1
bfc0326c:	8fc30040 	lw	v1,64(s8)
bfc03270:	2442000c 	addiu	v0,v0,12
bfc03274:	00021080 	sll	v0,v0,0x2
bfc03278:	00621021 	addu	v0,v1,v0
bfc0327c:	8c420004 	lw	v0,4(v0)
bfc03280:	00402821 	move	a1,v0
bfc03284:	8fc60040 	lw	a2,64(s8)
bfc03288:	0ff008e4 	jal	bfc02390 <calibrate>
bfc0328c:	00000000 	nop
bfc03290:	00401821 	move	v1,v0
bfc03294:	8fc20040 	lw	v0,64(s8)
bfc03298:	ac430030 	sw	v1,48(v0)
D:\loongson\projects\ls1d_ucos\Func/tdc-proc.c:228
			for(i=0; i<TDC->hitin1; i++)
bfc0329c:	afc0001c 	sw	zero,28(s8)
bfc032a0:	0bf00cbd 	j	bfc032f4 <func_twice_time+0x14c>
bfc032a4:	00000000 	nop
D:\loongson\projects\ls1d_ucos\Func/tdc-proc.c:230
			{
				TDC->res[i] = res_cal(TDC->result[i], TDC);
bfc032a8:	8fd0001c 	lw	s0,28(s8)
bfc032ac:	8fc2001c 	lw	v0,28(s8)
bfc032b0:	8fc30040 	lw	v1,64(s8)
bfc032b4:	2442000c 	addiu	v0,v0,12
bfc032b8:	00021080 	sll	v0,v0,0x2
bfc032bc:	00621021 	addu	v0,v1,v0
bfc032c0:	8c420004 	lw	v0,4(v0)
bfc032c4:	00402021 	move	a0,v0
bfc032c8:	8fc50040 	lw	a1,64(s8)
bfc032cc:	0ff0094e 	jal	bfc02538 <res_cal>
bfc032d0:	00000000 	nop
bfc032d4:	8fc30040 	lw	v1,64(s8)
bfc032d8:	2602001c 	addiu	v0,s0,28
bfc032dc:	00021080 	sll	v0,v0,0x2
bfc032e0:	00621021 	addu	v0,v1,v0
bfc032e4:	e4400004 	swc1	$f0,4(v0)
D:\loongson\projects\ls1d_ucos\Func/tdc-proc.c:228
		if(err) return 1;

		_u32 i;

		TDC->tdc_data.cal = calibrate(TDC->result[TDC->last_ptr0-2], TDC->result[TDC->last_ptr0-1], TDC);
			for(i=0; i<TDC->hitin1; i++)
bfc032e8:	8fc2001c 	lw	v0,28(s8)
bfc032ec:	24420001 	addiu	v0,v0,1
bfc032f0:	afc2001c 	sw	v0,28(s8)
bfc032f4:	8fc20040 	lw	v0,64(s8)
bfc032f8:	8c43000c 	lw	v1,12(v0)
bfc032fc:	8fc2001c 	lw	v0,28(s8)
bfc03300:	0043102b 	sltu	v0,v0,v1
bfc03304:	1440ffe8 	bnez	v0,bfc032a8 <func_twice_time+0x100>
bfc03308:	00000000 	nop
D:\loongson\projects\ls1d_ucos\Func/tdc-proc.c:232
			{
				TDC->res[i] = res_cal(TDC->result[i], TDC);
			}
		TDC->tdc_data.cal = calibrate(TDC->result[TDC->current_ptr0-2], TDC->result[TDC->current_ptr0-1], TDC);
bfc0330c:	8fc20040 	lw	v0,64(s8)
bfc03310:	8c4200b4 	lw	v0,180(v0)
bfc03314:	2442fffe 	addiu	v0,v0,-2
bfc03318:	8fc30040 	lw	v1,64(s8)
bfc0331c:	2442000c 	addiu	v0,v0,12
bfc03320:	00021080 	sll	v0,v0,0x2
bfc03324:	00621021 	addu	v0,v1,v0
bfc03328:	8c440004 	lw	a0,4(v0)
bfc0332c:	8fc20040 	lw	v0,64(s8)
bfc03330:	8c4200b4 	lw	v0,180(v0)
bfc03334:	2442ffff 	addiu	v0,v0,-1
bfc03338:	8fc30040 	lw	v1,64(s8)
bfc0333c:	2442000c 	addiu	v0,v0,12
bfc03340:	00021080 	sll	v0,v0,0x2
bfc03344:	00621021 	addu	v0,v1,v0
bfc03348:	8c420004 	lw	v0,4(v0)
bfc0334c:	00402821 	move	a1,v0
bfc03350:	8fc60040 	lw	a2,64(s8)
bfc03354:	0ff008e4 	jal	bfc02390 <calibrate>
bfc03358:	00000000 	nop
bfc0335c:	00401821 	move	v1,v0
bfc03360:	8fc20040 	lw	v0,64(s8)
bfc03364:	ac430030 	sw	v1,48(v0)
D:\loongson\projects\ls1d_ucos\Func/tdc-proc.c:233
			for(i=TDC->last_ptr0; i<(TDC->last_ptr0 + TDC->hitin1); i++)
bfc03368:	8fc20040 	lw	v0,64(s8)
bfc0336c:	8c4200bc 	lw	v0,188(v0)
bfc03370:	afc2001c 	sw	v0,28(s8)
bfc03374:	0bf00cf2 	j	bfc033c8 <func_twice_time+0x220>
bfc03378:	00000000 	nop
D:\loongson\projects\ls1d_ucos\Func/tdc-proc.c:235
			{
				TDC->res[i] = res_cal(TDC->result[i], TDC);
bfc0337c:	8fd0001c 	lw	s0,28(s8)
bfc03380:	8fc2001c 	lw	v0,28(s8)
bfc03384:	8fc30040 	lw	v1,64(s8)
bfc03388:	2442000c 	addiu	v0,v0,12
bfc0338c:	00021080 	sll	v0,v0,0x2
bfc03390:	00621021 	addu	v0,v1,v0
bfc03394:	8c420004 	lw	v0,4(v0)
bfc03398:	00402021 	move	a0,v0
bfc0339c:	8fc50040 	lw	a1,64(s8)
bfc033a0:	0ff0094e 	jal	bfc02538 <res_cal>
bfc033a4:	00000000 	nop
bfc033a8:	8fc30040 	lw	v1,64(s8)
bfc033ac:	2602001c 	addiu	v0,s0,28
bfc033b0:	00021080 	sll	v0,v0,0x2
bfc033b4:	00621021 	addu	v0,v1,v0
bfc033b8:	e4400004 	swc1	$f0,4(v0)
D:\loongson\projects\ls1d_ucos\Func/tdc-proc.c:233
			for(i=0; i<TDC->hitin1; i++)
			{
				TDC->res[i] = res_cal(TDC->result[i], TDC);
			}
		TDC->tdc_data.cal = calibrate(TDC->result[TDC->current_ptr0-2], TDC->result[TDC->current_ptr0-1], TDC);
			for(i=TDC->last_ptr0; i<(TDC->last_ptr0 + TDC->hitin1); i++)
bfc033bc:	8fc2001c 	lw	v0,28(s8)
bfc033c0:	24420001 	addiu	v0,v0,1
bfc033c4:	afc2001c 	sw	v0,28(s8)
bfc033c8:	8fc20040 	lw	v0,64(s8)
bfc033cc:	8c4300bc 	lw	v1,188(v0)
bfc033d0:	8fc20040 	lw	v0,64(s8)
bfc033d4:	8c42000c 	lw	v0,12(v0)
bfc033d8:	00621821 	addu	v1,v1,v0
bfc033dc:	8fc2001c 	lw	v0,28(s8)
bfc033e0:	0043102b 	sltu	v0,v0,v1
bfc033e4:	1440ffe5 	bnez	v0,bfc0337c <func_twice_time+0x1d4>
bfc033e8:	00000000 	nop
D:\loongson\projects\ls1d_ucos\Func/tdc-proc.c:238
			{
				TDC->res[i] = res_cal(TDC->result[i], TDC);
			}

			_fp32 delta_time = 0;
bfc033ec:	afc00018 	sw	zero,24(s8)
D:\loongson\projects\ls1d_ucos\Func/tdc-proc.c:239
			_fp32 time1 = 0;
bfc033f0:	afc00014 	sw	zero,20(s8)
D:\loongson\projects\ls1d_ucos\Func/tdc-proc.c:240
			_fp32 time2 = 0;
bfc033f4:	afc00010 	sw	zero,16(s8)
D:\loongson\projects\ls1d_ucos\Func/tdc-proc.c:241
	    time1 = ftime_caculate(TDC->res, 0, TDC->hitin1);
bfc033f8:	8fc20040 	lw	v0,64(s8)
bfc033fc:	24430074 	addiu	v1,v0,116
bfc03400:	8fc20040 	lw	v0,64(s8)
bfc03404:	8c42000c 	lw	v0,12(v0)
bfc03408:	00602021 	move	a0,v1
bfc0340c:	00002821 	move	a1,zero
bfc03410:	00403021 	move	a2,v0
bfc03414:	0ff00ab2 	jal	bfc02ac8 <ftime_caculate>
bfc03418:	00000000 	nop
bfc0341c:	e7c00014 	swc1	$f0,20(s8)
D:\loongson\projects\ls1d_ucos\Func/tdc-proc.c:242
	    time2 = ftime_caculate(TDC->res, TDC->last_ptr0, TDC->hitin1);
bfc03420:	8fc20040 	lw	v0,64(s8)
bfc03424:	24430074 	addiu	v1,v0,116
bfc03428:	8fc20040 	lw	v0,64(s8)
bfc0342c:	8c4500bc 	lw	a1,188(v0)
bfc03430:	8fc20040 	lw	v0,64(s8)
bfc03434:	8c42000c 	lw	v0,12(v0)
bfc03438:	00602021 	move	a0,v1
bfc0343c:	00403021 	move	a2,v0
bfc03440:	0ff00ab2 	jal	bfc02ac8 <ftime_caculate>
bfc03444:	00000000 	nop
bfc03448:	e7c00010 	swc1	$f0,16(s8)
D:\loongson\projects\ls1d_ucos\Func/tdc-proc.c:243
	    if(up) {
bfc0344c:	8fc20024 	lw	v0,36(s8)
bfc03450:	1040000d 	beqz	v0,bfc03488 <func_twice_time+0x2e0>
bfc03454:	00000000 	nop
D:\loongson\projects\ls1d_ucos\Func/tdc-proc.c:244
			delta_time = time2 - time1;
bfc03458:	c7c10010 	lwc1	$f1,16(s8)
bfc0345c:	c7c00014 	lwc1	$f0,20(s8)
bfc03460:	46000801 	sub.s	$f0,$f1,$f0
bfc03464:	e7c00018 	swc1	$f0,24(s8)
D:\loongson\projects\ls1d_ucos\Func/tdc-proc.c:245
			(TDC->tdc_data).ftime1 = time1;
bfc03468:	8fc20040 	lw	v0,64(s8)
bfc0346c:	c7c00014 	lwc1	$f0,20(s8)
bfc03470:	e4400024 	swc1	$f0,36(v0)
D:\loongson\projects\ls1d_ucos\Func/tdc-proc.c:246
			(TDC->tdc_data).ftime2 = time2;
bfc03474:	8fc20040 	lw	v0,64(s8)
bfc03478:	c7c00010 	lwc1	$f0,16(s8)
bfc0347c:	e4400028 	swc1	$f0,40(v0)
bfc03480:	0bf00d2c 	j	bfc034b0 <func_twice_time+0x308>
bfc03484:	00000000 	nop
D:\loongson\projects\ls1d_ucos\Func/tdc-proc.c:249
	    }
		else {
			delta_time = time1 - time2;
bfc03488:	c7c10014 	lwc1	$f1,20(s8)
bfc0348c:	c7c00010 	lwc1	$f0,16(s8)
bfc03490:	46000801 	sub.s	$f0,$f1,$f0
bfc03494:	e7c00018 	swc1	$f0,24(s8)
D:\loongson\projects\ls1d_ucos\Func/tdc-proc.c:250
			(TDC->tdc_data).ftime1 = time2;
bfc03498:	8fc20040 	lw	v0,64(s8)
bfc0349c:	c7c00010 	lwc1	$f0,16(s8)
bfc034a0:	e4400024 	swc1	$f0,36(v0)
D:\loongson\projects\ls1d_ucos\Func/tdc-proc.c:251
			(TDC->tdc_data).ftime2 = time1;
bfc034a4:	8fc20040 	lw	v0,64(s8)
bfc034a8:	c7c00014 	lwc1	$f0,20(s8)
bfc034ac:	e4400028 	swc1	$f0,40(v0)
D:\loongson\projects\ls1d_ucos\Func/tdc-proc.c:253
		}
		(TDC->tdc_data).time_delta = delta_time;
bfc034b0:	8fc20040 	lw	v0,64(s8)
bfc034b4:	c7c00018 	lwc1	$f0,24(s8)
bfc034b8:	e440002c 	swc1	$f0,44(v0)
D:\loongson\projects\ls1d_ucos\Func/tdc-proc.c:264
	    break;
	default:
		break;
	}

	return 0;
bfc034bc:	afc00028 	sw	zero,40(s8)
bfc034c0:	8fc20028 	lw	v0,40(s8)
D:\loongson\projects\ls1d_ucos\Func/tdc-proc.c:265
}
bfc034c4:	03c0e821 	move	sp,s8
bfc034c8:	8fbf003c 	lw	ra,60(sp)
bfc034cc:	8fbe0038 	lw	s8,56(sp)
bfc034d0:	8fb00034 	lw	s0,52(sp)
bfc034d4:	27bd0040 	addiu	sp,sp,64
bfc034d8:	03e00008 	jr	ra
bfc034dc:	00000000 	nop

bfc034e0 <func_twice_thsens>:
func_twice_thsens():
D:\loongson\projects\ls1d_ucos\Func/tdc-proc.c:269


static _u32 func_twice_thsens(TDCINFO *TDC)
{
bfc034e0:	27bdffb8 	addiu	sp,sp,-72
bfc034e4:	afbf0044 	sw	ra,68(sp)
bfc034e8:	afbe0040 	sw	s8,64(sp)
bfc034ec:	afb0003c 	sw	s0,60(sp)
bfc034f0:	03a0f021 	move	s8,sp
bfc034f4:	afc40048 	sw	a0,72(s8)
D:\loongson\projects\ls1d_ucos\Func/tdc-proc.c:270
	switch(TDC->tdc_mode){
bfc034f8:	8fc20048 	lw	v0,72(s8)
bfc034fc:	8c430000 	lw	v1,0(v0)
bfc03500:	24020002 	li	v0,2
bfc03504:	146200f2 	bne	v1,v0,bfc038d0 <func_twice_thsens+0x3f0>
bfc03508:	00000000 	nop
D:\loongson\projects\ls1d_ucos\Func/tdc-proc.c:273
	case S_TDC:  //stdc
	{
		if(Thsens[0]&0x8)   //pwrsave
bfc0350c:	3c02bfeb 	lui	v0,0xbfeb
bfc03510:	34428000 	ori	v0,v0,0x8000
bfc03514:	8c420000 	lw	v0,0(v0)
bfc03518:	30420008 	andi	v0,v0,0x8
bfc0351c:	10400012 	beqz	v0,bfc03568 <func_twice_thsens+0x88>
bfc03520:	00000000 	nop
D:\loongson\projects\ls1d_ucos\Func/tdc-proc.c:274
			TDC->res_num = ((Thsens[0]&0x2)>0?4:2)+1;
bfc03524:	3c02bfeb 	lui	v0,0xbfeb
bfc03528:	34428000 	ori	v0,v0,0x8000
bfc0352c:	8c420000 	lw	v0,0(v0)
bfc03530:	30420002 	andi	v0,v0,0x2
bfc03534:	10400005 	beqz	v0,bfc0354c <func_twice_thsens+0x6c>
bfc03538:	00000000 	nop
bfc0353c:	24020005 	li	v0,5
bfc03540:	afc20030 	sw	v0,48(s8)
bfc03544:	0bf00d55 	j	bfc03554 <func_twice_thsens+0x74>
bfc03548:	00000000 	nop
bfc0354c:	24030003 	li	v1,3
bfc03550:	afc30030 	sw	v1,48(s8)
bfc03554:	8fc20048 	lw	v0,72(s8)
bfc03558:	8fc30030 	lw	v1,48(s8)
bfc0355c:	ac4300c4 	sw	v1,196(v0)
bfc03560:	0bf00d69 	j	bfc035a4 <func_twice_thsens+0xc4>
bfc03564:	00000000 	nop
D:\loongson\projects\ls1d_ucos\Func/tdc-proc.c:276
		else
			TDC->res_num = 2*((Thsens[0]&0x2)>0?4:2);  //2 or 4
bfc03568:	3c02bfeb 	lui	v0,0xbfeb
bfc0356c:	34428000 	ori	v0,v0,0x8000
bfc03570:	8c420000 	lw	v0,0(v0)
bfc03574:	30420002 	andi	v0,v0,0x2
bfc03578:	10400005 	beqz	v0,bfc03590 <func_twice_thsens+0xb0>
bfc0357c:	00000000 	nop
bfc03580:	24020008 	li	v0,8
bfc03584:	afc2002c 	sw	v0,44(s8)
bfc03588:	0bf00d66 	j	bfc03598 <func_twice_thsens+0xb8>
bfc0358c:	00000000 	nop
bfc03590:	24030004 	li	v1,4
bfc03594:	afc3002c 	sw	v1,44(s8)
bfc03598:	8fc20048 	lw	v0,72(s8)
bfc0359c:	8fc3002c 	lw	v1,44(s8)
bfc035a0:	ac4300c4 	sw	v1,196(v0)
D:\loongson\projects\ls1d_ucos\Func/tdc-proc.c:278
		_u32 err;
		err = check_res(TDC);
bfc035a4:	8fc40048 	lw	a0,72(s8)
bfc035a8:	3c02bfc0 	lui	v0,0xbfc0
bfc035ac:	245938f4 	addiu	t9,v0,14580
bfc035b0:	0320f809 	jalr	t9
bfc035b4:	00000000 	nop
bfc035b8:	afc20014 	sw	v0,20(s8)
D:\loongson\projects\ls1d_ucos\Func/tdc-proc.c:279
		if(err) return 1;
bfc035bc:	8fc20014 	lw	v0,20(s8)
bfc035c0:	10400005 	beqz	v0,bfc035d8 <func_twice_thsens+0xf8>
bfc035c4:	00000000 	nop
bfc035c8:	24020001 	li	v0,1
bfc035cc:	afc20028 	sw	v0,40(s8)
bfc035d0:	0bf00e35 	j	bfc038d4 <func_twice_thsens+0x3f4>
bfc035d4:	00000000 	nop
D:\loongson\projects\ls1d_ucos\Func/tdc-proc.c:282

		_s32 i;
			for(i=0; i<TDC->current_ptr0; i++)
bfc035d8:	afc00010 	sw	zero,16(s8)
bfc035dc:	0bf00d8c 	j	bfc03630 <func_twice_thsens+0x150>
bfc035e0:	00000000 	nop
D:\loongson\projects\ls1d_ucos\Func/tdc-proc.c:284
			{
				TDC->res[i] = res_cal(TDC->result[i], TDC);
bfc035e4:	8fd00010 	lw	s0,16(s8)
bfc035e8:	8fc20010 	lw	v0,16(s8)
bfc035ec:	8fc30048 	lw	v1,72(s8)
bfc035f0:	2442000c 	addiu	v0,v0,12
bfc035f4:	00021080 	sll	v0,v0,0x2
bfc035f8:	00621021 	addu	v0,v1,v0
bfc035fc:	8c420004 	lw	v0,4(v0)
bfc03600:	00402021 	move	a0,v0
bfc03604:	8fc50048 	lw	a1,72(s8)
bfc03608:	0ff0094e 	jal	bfc02538 <res_cal>
bfc0360c:	00000000 	nop
bfc03610:	8fc30048 	lw	v1,72(s8)
bfc03614:	2602001c 	addiu	v0,s0,28
bfc03618:	00021080 	sll	v0,v0,0x2
bfc0361c:	00621021 	addu	v0,v1,v0
bfc03620:	e4400004 	swc1	$f0,4(v0)
D:\loongson\projects\ls1d_ucos\Func/tdc-proc.c:282
		_u32 err;
		err = check_res(TDC);
		if(err) return 1;

		_s32 i;
			for(i=0; i<TDC->current_ptr0; i++)
bfc03624:	8fc20010 	lw	v0,16(s8)
bfc03628:	24420001 	addiu	v0,v0,1
bfc0362c:	afc20010 	sw	v0,16(s8)
bfc03630:	8fc30010 	lw	v1,16(s8)
bfc03634:	8fc20048 	lw	v0,72(s8)
bfc03638:	8c4200b4 	lw	v0,180(v0)
bfc0363c:	0062102b 	sltu	v0,v1,v0
bfc03640:	1440ffe8 	bnez	v0,bfc035e4 <func_twice_thsens+0x104>
bfc03644:	00000000 	nop
D:\loongson\projects\ls1d_ucos\Func/tdc-proc.c:288
			{
				TDC->res[i] = res_cal(TDC->result[i], TDC);
			}

		_fp32 time[4];
		ptime_caculate(TDC->res, 0, time, TDC);
bfc03648:	8fc20048 	lw	v0,72(s8)
bfc0364c:	24420074 	addiu	v0,v0,116
bfc03650:	27c30018 	addiu	v1,s8,24
bfc03654:	00402021 	move	a0,v0
bfc03658:	00002821 	move	a1,zero
bfc0365c:	00603021 	move	a2,v1
bfc03660:	8fc70048 	lw	a3,72(s8)
bfc03664:	0ff00b4c 	jal	bfc02d30 <ptime_caculate>
bfc03668:	00000000 	nop
D:\loongson\projects\ls1d_ucos\Func/tdc-proc.c:289
		if(Thsens[0]&0x4) {  //4-3-2-1
bfc0366c:	3c02bfeb 	lui	v0,0xbfeb
bfc03670:	34428000 	ori	v0,v0,0x8000
bfc03674:	8c420000 	lw	v0,0(v0)
bfc03678:	30420004 	andi	v0,v0,0x4
bfc0367c:	1040001a 	beqz	v0,bfc036e8 <func_twice_thsens+0x208>
bfc03680:	00000000 	nop
D:\loongson\projects\ls1d_ucos\Func/tdc-proc.c:290
			for(i=3; i>=0; i--)
bfc03684:	24020003 	li	v0,3
bfc03688:	afc20010 	sw	v0,16(s8)
bfc0368c:	0bf00db5 	j	bfc036d4 <func_twice_thsens+0x1f4>
bfc03690:	00000000 	nop
D:\loongson\projects\ls1d_ucos\Func/tdc-proc.c:291
				TDC->tdc_data.ptime[i] = time[3-i];
bfc03694:	8fc40010 	lw	a0,16(s8)
bfc03698:	24030003 	li	v1,3
bfc0369c:	8fc20010 	lw	v0,16(s8)
bfc036a0:	00621023 	subu	v0,v1,v0
bfc036a4:	00021080 	sll	v0,v0,0x2
bfc036a8:	27c30010 	addiu	v1,s8,16
bfc036ac:	00621021 	addu	v0,v1,v0
bfc036b0:	c4400008 	lwc1	$f0,8(v0)
bfc036b4:	8fc30048 	lw	v1,72(s8)
bfc036b8:	24820004 	addiu	v0,a0,4
bfc036bc:	00021080 	sll	v0,v0,0x2
bfc036c0:	00621021 	addu	v0,v1,v0
bfc036c4:	e4400004 	swc1	$f0,4(v0)
D:\loongson\projects\ls1d_ucos\Func/tdc-proc.c:290
			}

		_fp32 time[4];
		ptime_caculate(TDC->res, 0, time, TDC);
		if(Thsens[0]&0x4) {  //4-3-2-1
			for(i=3; i>=0; i--)
bfc036c8:	8fc20010 	lw	v0,16(s8)
bfc036cc:	2442ffff 	addiu	v0,v0,-1
bfc036d0:	afc20010 	sw	v0,16(s8)
bfc036d4:	8fc20010 	lw	v0,16(s8)
bfc036d8:	0441ffee 	bgez	v0,bfc03694 <func_twice_thsens+0x1b4>
bfc036dc:	00000000 	nop
bfc036e0:	0bf00dcf 	j	bfc0373c <func_twice_thsens+0x25c>
bfc036e4:	00000000 	nop
D:\loongson\projects\ls1d_ucos\Func/tdc-proc.c:293
				TDC->tdc_data.ptime[i] = time[3-i];
		} else {
			for(i=0; i<4; i++)
bfc036e8:	afc00010 	sw	zero,16(s8)
bfc036ec:	0bf00dcb 	j	bfc0372c <func_twice_thsens+0x24c>
bfc036f0:	00000000 	nop
D:\loongson\projects\ls1d_ucos\Func/tdc-proc.c:294
				TDC->tdc_data.ptime[i] = time[i];
bfc036f4:	8fc40010 	lw	a0,16(s8)
bfc036f8:	8fc20010 	lw	v0,16(s8)
bfc036fc:	00021080 	sll	v0,v0,0x2
bfc03700:	27c30010 	addiu	v1,s8,16
bfc03704:	00621021 	addu	v0,v1,v0
bfc03708:	c4400008 	lwc1	$f0,8(v0)
bfc0370c:	8fc30048 	lw	v1,72(s8)
bfc03710:	24820004 	addiu	v0,a0,4
bfc03714:	00021080 	sll	v0,v0,0x2
bfc03718:	00621021 	addu	v0,v1,v0
bfc0371c:	e4400004 	swc1	$f0,4(v0)
D:\loongson\projects\ls1d_ucos\Func/tdc-proc.c:293
		ptime_caculate(TDC->res, 0, time, TDC);
		if(Thsens[0]&0x4) {  //4-3-2-1
			for(i=3; i>=0; i--)
				TDC->tdc_data.ptime[i] = time[3-i];
		} else {
			for(i=0; i<4; i++)
bfc03720:	8fc20010 	lw	v0,16(s8)
bfc03724:	24420001 	addiu	v0,v0,1
bfc03728:	afc20010 	sw	v0,16(s8)
bfc0372c:	8fc20010 	lw	v0,16(s8)
bfc03730:	28420004 	slti	v0,v0,4
bfc03734:	1440ffef 	bnez	v0,bfc036f4 <func_twice_thsens+0x214>
bfc03738:	00000000 	nop
D:\loongson\projects\ls1d_ucos\Func/tdc-proc.c:297
				TDC->tdc_data.ptime[i] = time[i];
		}

	    ptime_caculate(TDC->res, TDC->last_ptr0, time, TDC);
bfc0373c:	8fc20048 	lw	v0,72(s8)
bfc03740:	24440074 	addiu	a0,v0,116
bfc03744:	8fc20048 	lw	v0,72(s8)
bfc03748:	8c4200bc 	lw	v0,188(v0)
bfc0374c:	27c30018 	addiu	v1,s8,24
bfc03750:	00402821 	move	a1,v0
bfc03754:	00603021 	move	a2,v1
bfc03758:	8fc70048 	lw	a3,72(s8)
bfc0375c:	0ff00b4c 	jal	bfc02d30 <ptime_caculate>
bfc03760:	00000000 	nop
D:\loongson\projects\ls1d_ucos\Func/tdc-proc.c:298
		if(Thsens[0]&0x4) {  //4-3-2-1
bfc03764:	3c02bfeb 	lui	v0,0xbfeb
bfc03768:	34428000 	ori	v0,v0,0x8000
bfc0376c:	8c420000 	lw	v0,0(v0)
bfc03770:	30420004 	andi	v0,v0,0x4
bfc03774:	1040001f 	beqz	v0,bfc037f4 <func_twice_thsens+0x314>
bfc03778:	00000000 	nop
D:\loongson\projects\ls1d_ucos\Func/tdc-proc.c:299
			for(i=3; i>=0; i--)
bfc0377c:	24020003 	li	v0,3
bfc03780:	afc20010 	sw	v0,16(s8)
bfc03784:	0bf00df8 	j	bfc037e0 <func_twice_thsens+0x300>
bfc03788:	00000000 	nop
D:\loongson\projects\ls1d_ucos\Func/tdc-proc.c:300
				TDC->tdc_data.ptime[i] += time[i];
bfc0378c:	8fc40010 	lw	a0,16(s8)
bfc03790:	8fc20010 	lw	v0,16(s8)
bfc03794:	8fc30048 	lw	v1,72(s8)
bfc03798:	24420004 	addiu	v0,v0,4
bfc0379c:	00021080 	sll	v0,v0,0x2
bfc037a0:	00621021 	addu	v0,v1,v0
bfc037a4:	c4410004 	lwc1	$f1,4(v0)
bfc037a8:	8fc20010 	lw	v0,16(s8)
bfc037ac:	00021080 	sll	v0,v0,0x2
bfc037b0:	27c30010 	addiu	v1,s8,16
bfc037b4:	00621021 	addu	v0,v1,v0
bfc037b8:	c4400008 	lwc1	$f0,8(v0)
bfc037bc:	46000800 	add.s	$f0,$f1,$f0
bfc037c0:	8fc30048 	lw	v1,72(s8)
bfc037c4:	24820004 	addiu	v0,a0,4
bfc037c8:	00021080 	sll	v0,v0,0x2
bfc037cc:	00621021 	addu	v0,v1,v0
bfc037d0:	e4400004 	swc1	$f0,4(v0)
D:\loongson\projects\ls1d_ucos\Func/tdc-proc.c:299
				TDC->tdc_data.ptime[i] = time[i];
		}

	    ptime_caculate(TDC->res, TDC->last_ptr0, time, TDC);
		if(Thsens[0]&0x4) {  //4-3-2-1
			for(i=3; i>=0; i--)
bfc037d4:	8fc20010 	lw	v0,16(s8)
bfc037d8:	2442ffff 	addiu	v0,v0,-1
bfc037dc:	afc20010 	sw	v0,16(s8)
bfc037e0:	8fc20010 	lw	v0,16(s8)
bfc037e4:	0441ffe9 	bgez	v0,bfc0378c <func_twice_thsens+0x2ac>
bfc037e8:	00000000 	nop
bfc037ec:	0bf00e1b 	j	bfc0386c <func_twice_thsens+0x38c>
bfc037f0:	00000000 	nop
D:\loongson\projects\ls1d_ucos\Func/tdc-proc.c:302
				TDC->tdc_data.ptime[i] += time[i];
		} else {
			for(i=0; i<4; i++)
bfc037f4:	afc00010 	sw	zero,16(s8)
bfc037f8:	0bf00e17 	j	bfc0385c <func_twice_thsens+0x37c>
bfc037fc:	00000000 	nop
D:\loongson\projects\ls1d_ucos\Func/tdc-proc.c:303
				TDC->tdc_data.ptime[i] += time[3-i];
bfc03800:	8fc40010 	lw	a0,16(s8)
bfc03804:	8fc20010 	lw	v0,16(s8)
bfc03808:	8fc30048 	lw	v1,72(s8)
bfc0380c:	24420004 	addiu	v0,v0,4
bfc03810:	00021080 	sll	v0,v0,0x2
bfc03814:	00621021 	addu	v0,v1,v0
bfc03818:	c4410004 	lwc1	$f1,4(v0)
bfc0381c:	24030003 	li	v1,3
bfc03820:	8fc20010 	lw	v0,16(s8)
bfc03824:	00621023 	subu	v0,v1,v0
bfc03828:	00021080 	sll	v0,v0,0x2
bfc0382c:	27c30010 	addiu	v1,s8,16
bfc03830:	00621021 	addu	v0,v1,v0
bfc03834:	c4400008 	lwc1	$f0,8(v0)
bfc03838:	46000800 	add.s	$f0,$f1,$f0
bfc0383c:	8fc30048 	lw	v1,72(s8)
bfc03840:	24820004 	addiu	v0,a0,4
bfc03844:	00021080 	sll	v0,v0,0x2
bfc03848:	00621021 	addu	v0,v1,v0
bfc0384c:	e4400004 	swc1	$f0,4(v0)
D:\loongson\projects\ls1d_ucos\Func/tdc-proc.c:302
	    ptime_caculate(TDC->res, TDC->last_ptr0, time, TDC);
		if(Thsens[0]&0x4) {  //4-3-2-1
			for(i=3; i>=0; i--)
				TDC->tdc_data.ptime[i] += time[i];
		} else {
			for(i=0; i<4; i++)
bfc03850:	8fc20010 	lw	v0,16(s8)
bfc03854:	24420001 	addiu	v0,v0,1
bfc03858:	afc20010 	sw	v0,16(s8)
bfc0385c:	8fc20010 	lw	v0,16(s8)
bfc03860:	28420004 	slti	v0,v0,4
bfc03864:	1440ffe6 	bnez	v0,bfc03800 <func_twice_thsens+0x320>
bfc03868:	00000000 	nop
D:\loongson\projects\ls1d_ucos\Func/tdc-proc.c:306
				TDC->tdc_data.ptime[i] += time[3-i];
		}

		for(i=0; i<4; i++)
bfc0386c:	afc00010 	sw	zero,16(s8)
bfc03870:	0bf00e30 	j	bfc038c0 <func_twice_thsens+0x3e0>
bfc03874:	00000000 	nop
D:\loongson\projects\ls1d_ucos\Func/tdc-proc.c:307
			TDC->tdc_data.ptime[i] /= 2;
bfc03878:	8fc40010 	lw	a0,16(s8)
bfc0387c:	8fc20010 	lw	v0,16(s8)
bfc03880:	8fc30048 	lw	v1,72(s8)
bfc03884:	24420004 	addiu	v0,v0,4
bfc03888:	00021080 	sll	v0,v0,0x2
bfc0388c:	00621021 	addu	v0,v1,v0
bfc03890:	c4410004 	lwc1	$f1,4(v0)
bfc03894:	3c02bfc1 	lui	v0,0xbfc1
bfc03898:	c4409820 	lwc1	$f0,-26592(v0)
bfc0389c:	46000803 	div.s	$f0,$f1,$f0
bfc038a0:	8fc30048 	lw	v1,72(s8)
bfc038a4:	24820004 	addiu	v0,a0,4
bfc038a8:	00021080 	sll	v0,v0,0x2
bfc038ac:	00621021 	addu	v0,v1,v0
bfc038b0:	e4400004 	swc1	$f0,4(v0)
D:\loongson\projects\ls1d_ucos\Func/tdc-proc.c:306
		} else {
			for(i=0; i<4; i++)
				TDC->tdc_data.ptime[i] += time[3-i];
		}

		for(i=0; i<4; i++)
bfc038b4:	8fc20010 	lw	v0,16(s8)
bfc038b8:	24420001 	addiu	v0,v0,1
bfc038bc:	afc20010 	sw	v0,16(s8)
bfc038c0:	8fc20010 	lw	v0,16(s8)
bfc038c4:	28420004 	slti	v0,v0,4
bfc038c8:	1440ffeb 	bnez	v0,bfc03878 <func_twice_thsens+0x398>
bfc038cc:	00000000 	nop
D:\loongson\projects\ls1d_ucos\Func/tdc-proc.c:318
	    break;
	default:
		break;
	}

	return 0;
bfc038d0:	afc00028 	sw	zero,40(s8)
bfc038d4:	8fc20028 	lw	v0,40(s8)
D:\loongson\projects\ls1d_ucos\Func/tdc-proc.c:319
}
bfc038d8:	03c0e821 	move	sp,s8
bfc038dc:	8fbf0044 	lw	ra,68(sp)
bfc038e0:	8fbe0040 	lw	s8,64(sp)
bfc038e4:	8fb0003c 	lw	s0,60(sp)
bfc038e8:	27bd0048 	addiu	sp,sp,72
bfc038ec:	03e00008 	jr	ra
bfc038f0:	00000000 	nop

bfc038f4 <check_res>:
check_res():
D:\loongson\projects\ls1d_ucos\Func/tdc-proc.c:322

_u32 check_res(TDCINFO *TDC)
{
bfc038f4:	27bdffe0 	addiu	sp,sp,-32
bfc038f8:	afbe001c 	sw	s8,28(sp)
bfc038fc:	03a0f021 	move	s8,sp
bfc03900:	afc40020 	sw	a0,32(s8)
D:\loongson\projects\ls1d_ucos\Func/tdc-proc.c:323
	TDC->current_ptr0 = (Sonar[8]&0xf);
bfc03904:	3c02bfeb 	lui	v0,0xbfeb
bfc03908:	34424020 	ori	v0,v0,0x4020
bfc0390c:	8c420000 	lw	v0,0(v0)
bfc03910:	3043000f 	andi	v1,v0,0xf
bfc03914:	8fc20020 	lw	v0,32(s8)
bfc03918:	ac4300b4 	sw	v1,180(v0)
D:\loongson\projects\ls1d_ucos\Func/tdc-proc.c:324
	if(TDC->current_ptr0 == 0)
bfc0391c:	8fc20020 	lw	v0,32(s8)
bfc03920:	8c4200b4 	lw	v0,180(v0)
bfc03924:	14400004 	bnez	v0,bfc03938 <check_res+0x44>
bfc03928:	00000000 	nop
D:\loongson\projects\ls1d_ucos\Func/tdc-proc.c:325
		TDC->current_ptr0 = 16;
bfc0392c:	8fc30020 	lw	v1,32(s8)
bfc03930:	24020010 	li	v0,16
bfc03934:	ac6200b4 	sw	v0,180(v1)
D:\loongson\projects\ls1d_ucos\Func/tdc-proc.c:326
	TDC->current_ptr1 = ((Sonar[8]>>4)&0xf);
bfc03938:	3c02bfeb 	lui	v0,0xbfeb
bfc0393c:	34424020 	ori	v0,v0,0x4020
bfc03940:	8c420000 	lw	v0,0(v0)
bfc03944:	00021102 	srl	v0,v0,0x4
bfc03948:	3043000f 	andi	v1,v0,0xf
bfc0394c:	8fc20020 	lw	v0,32(s8)
bfc03950:	ac4300b8 	sw	v1,184(v0)
D:\loongson\projects\ls1d_ucos\Func/tdc-proc.c:327
	if(TDC->current_ptr1 == 0)
bfc03954:	8fc20020 	lw	v0,32(s8)
bfc03958:	8c4200b8 	lw	v0,184(v0)
bfc0395c:	14400004 	bnez	v0,bfc03970 <check_res+0x7c>
bfc03960:	00000000 	nop
D:\loongson\projects\ls1d_ucos\Func/tdc-proc.c:328
		TDC->current_ptr1 = 16;
bfc03964:	8fc30020 	lw	v1,32(s8)
bfc03968:	24020010 	li	v0,16
bfc0396c:	ac6200b8 	sw	v0,184(v1)
D:\loongson\projects\ls1d_ucos\Func/tdc-proc.c:329
	TDC->last_ptr0 = (Sonar[8]>>8)&0xf;
bfc03970:	3c02bfeb 	lui	v0,0xbfeb
bfc03974:	34424020 	ori	v0,v0,0x4020
bfc03978:	8c420000 	lw	v0,0(v0)
bfc0397c:	00021202 	srl	v0,v0,0x8
bfc03980:	3043000f 	andi	v1,v0,0xf
bfc03984:	8fc20020 	lw	v0,32(s8)
bfc03988:	ac4300bc 	sw	v1,188(v0)
D:\loongson\projects\ls1d_ucos\Func/tdc-proc.c:330
	TDC->last_ptr1 = (Sonar[8]>>12)&0xf;
bfc0398c:	3c02bfeb 	lui	v0,0xbfeb
bfc03990:	34424020 	ori	v0,v0,0x4020
bfc03994:	8c420000 	lw	v0,0(v0)
bfc03998:	00021302 	srl	v0,v0,0xc
bfc0399c:	3043000f 	andi	v1,v0,0xf
bfc039a0:	8fc20020 	lw	v0,32(s8)
bfc039a4:	ac4300c0 	sw	v1,192(v0)
D:\loongson\projects\ls1d_ucos\Func/tdc-proc.c:337
	/*
	 * 对于两次测量来说，应该对两个指针都进行检查；
	 * 但如果进行的是一次测量，last指针是不变的，只需要检查current指针。
	 */
//	printf("ptr:0x%x\n",Sonar[8]);
	_u32 err = 0;
bfc039a8:	afc00008 	sw	zero,8(s8)
D:\loongson\projects\ls1d_ucos\Func/tdc-proc.c:338
	err = (((TDC->current_ptr0 - TDC->last_ptr0)%16) != TDC->res_num);
bfc039ac:	8fc20020 	lw	v0,32(s8)
bfc039b0:	8c4300b4 	lw	v1,180(v0)
bfc039b4:	8fc20020 	lw	v0,32(s8)
bfc039b8:	8c4200bc 	lw	v0,188(v0)
bfc039bc:	00621023 	subu	v0,v1,v0
bfc039c0:	3043000f 	andi	v1,v0,0xf
bfc039c4:	8fc20020 	lw	v0,32(s8)
bfc039c8:	8c4200c4 	lw	v0,196(v0)
bfc039cc:	00621026 	xor	v0,v1,v0
bfc039d0:	0002102b 	sltu	v0,zero,v0
bfc039d4:	afc20008 	sw	v0,8(s8)
D:\loongson\projects\ls1d_ucos\Func/tdc-proc.c:339
	if((TDC->mop == mode_3)||(TDC->mop == mode_2))
bfc039d8:	8fc20020 	lw	v0,32(s8)
bfc039dc:	8c4300d4 	lw	v1,212(v0)
bfc039e0:	24020003 	li	v0,3
bfc039e4:	10620006 	beq	v1,v0,bfc03a00 <check_res+0x10c>
bfc039e8:	00000000 	nop
bfc039ec:	8fc20020 	lw	v0,32(s8)
bfc039f0:	8c4300d4 	lw	v1,212(v0)
bfc039f4:	24020002 	li	v0,2
bfc039f8:	14620011 	bne	v1,v0,bfc03a40 <check_res+0x14c>
bfc039fc:	00000000 	nop
D:\loongson\projects\ls1d_ucos\Func/tdc-proc.c:340
		err = (err || TDC->last_ptr0 != TDC->res_num);
bfc03a00:	8fc20008 	lw	v0,8(s8)
bfc03a04:	14400007 	bnez	v0,bfc03a24 <check_res+0x130>
bfc03a08:	00000000 	nop
bfc03a0c:	8fc20020 	lw	v0,32(s8)
bfc03a10:	8c4300bc 	lw	v1,188(v0)
bfc03a14:	8fc20020 	lw	v0,32(s8)
bfc03a18:	8c4200c4 	lw	v0,196(v0)
bfc03a1c:	10620005 	beq	v1,v0,bfc03a34 <check_res+0x140>
bfc03a20:	00000000 	nop
bfc03a24:	24020001 	li	v0,1
bfc03a28:	afc20014 	sw	v0,20(s8)
bfc03a2c:	0bf00e8e 	j	bfc03a38 <check_res+0x144>
bfc03a30:	00000000 	nop
bfc03a34:	afc00014 	sw	zero,20(s8)
bfc03a38:	8fc20014 	lw	v0,20(s8)
bfc03a3c:	afc20008 	sw	v0,8(s8)
D:\loongson\projects\ls1d_ucos\Func/tdc-proc.c:342

	if(err)
bfc03a40:	8fc20008 	lw	v0,8(s8)
bfc03a44:	1040000e 	beqz	v0,bfc03a80 <check_res+0x18c>
bfc03a48:	00000000 	nop
D:\loongson\projects\ls1d_ucos\Func/tdc-proc.c:344
	{
		PMU_SecToken = PMU_SecToken_command;
bfc03a4c:	3c02bfeb 	lui	v0,0xbfeb
bfc03a50:	3443007c 	ori	v1,v0,0x7c
bfc03a54:	3c02cf21 	lui	v0,0xcf21
bfc03a58:	34426e95 	ori	v0,v0,0x6e95
bfc03a5c:	ac620000 	sw	v0,0(v1)
D:\loongson\projects\ls1d_ucos\Func/tdc-proc.c:345
		PMU_CommandW = 0x80000000;  //0xbfeb003c, clear regs, then you can start next measure
bfc03a60:	3c02bfeb 	lui	v0,0xbfeb
bfc03a64:	3443003c 	ori	v1,v0,0x3c
bfc03a68:	3c028000 	lui	v0,0x8000
bfc03a6c:	ac620000 	sw	v0,0(v1)
D:\loongson\projects\ls1d_ucos\Func/tdc-proc.c:347
		//printf("\nERROR: wrong result number!\n");
		return 1;
bfc03a70:	24020001 	li	v0,1
bfc03a74:	afc20010 	sw	v0,16(s8)
bfc03a78:	0bf00ecf 	j	bfc03b3c <check_res+0x248>
bfc03a7c:	00000000 	nop
D:\loongson\projects\ls1d_ucos\Func/tdc-proc.c:350
	}

	_u32 *result = TDC->result;
bfc03a80:	8fc20020 	lw	v0,32(s8)
bfc03a84:	24420034 	addiu	v0,v0,52
bfc03a88:	afc20004 	sw	v0,4(s8)
D:\loongson\projects\ls1d_ucos\Func/tdc-proc.c:352
	_u32 i;
	for(i=0; i<(TDC->current_ptr0); i++)
bfc03a8c:	afc00000 	sw	zero,0(s8)
bfc03a90:	0bf00eb4 	j	bfc03ad0 <check_res+0x1dc>
bfc03a94:	00000000 	nop
D:\loongson\projects\ls1d_ucos\Func/tdc-proc.c:354
	{
		result[i] = Sonar[16+i];    //0xbfeb4040 Result[0]
bfc03a98:	8fc20000 	lw	v0,0(s8)
bfc03a9c:	00021880 	sll	v1,v0,0x2
bfc03aa0:	8fc20004 	lw	v0,4(s8)
bfc03aa4:	00432021 	addu	a0,v0,v1
bfc03aa8:	8fc20000 	lw	v0,0(s8)
bfc03aac:	00021880 	sll	v1,v0,0x2
bfc03ab0:	3c02bfeb 	lui	v0,0xbfeb
bfc03ab4:	34424040 	ori	v0,v0,0x4040
bfc03ab8:	00621021 	addu	v0,v1,v0
bfc03abc:	8c420000 	lw	v0,0(v0)
bfc03ac0:	ac820000 	sw	v0,0(a0)
D:\loongson\projects\ls1d_ucos\Func/tdc-proc.c:352
		return 1;
	}

	_u32 *result = TDC->result;
	_u32 i;
	for(i=0; i<(TDC->current_ptr0); i++)
bfc03ac4:	8fc20000 	lw	v0,0(s8)
bfc03ac8:	24420001 	addiu	v0,v0,1
bfc03acc:	afc20000 	sw	v0,0(s8)
bfc03ad0:	8fc20020 	lw	v0,32(s8)
bfc03ad4:	8c4300b4 	lw	v1,180(v0)
bfc03ad8:	8fc20000 	lw	v0,0(s8)
bfc03adc:	0043102b 	sltu	v0,v0,v1
bfc03ae0:	1440ffed 	bnez	v0,bfc03a98 <check_res+0x1a4>
bfc03ae4:	00000000 	nop
D:\loongson\projects\ls1d_ucos\Func/tdc-proc.c:357
	{
		result[i] = Sonar[16+i];    //0xbfeb4040 Result[0]
	}

	if(TDC->change_flow_direction)
bfc03ae8:	8fc20020 	lw	v0,32(s8)
bfc03aec:	8c4200c8 	lw	v0,200(v0)
bfc03af0:	10400008 	beqz	v0,bfc03b14 <check_res+0x220>
bfc03af4:	00000000 	nop
D:\loongson\projects\ls1d_ucos\Func/tdc-proc.c:358
		Sonar[0] ^= 0xc000;
bfc03af8:	3c02bfeb 	lui	v0,0xbfeb
bfc03afc:	34434000 	ori	v1,v0,0x4000
bfc03b00:	3c02bfeb 	lui	v0,0xbfeb
bfc03b04:	34424000 	ori	v0,v0,0x4000
bfc03b08:	8c420000 	lw	v0,0(v0)
bfc03b0c:	3842c000 	xori	v0,v0,0xc000
bfc03b10:	ac620000 	sw	v0,0(v1)
D:\loongson\projects\ls1d_ucos\Func/tdc-proc.c:359
	PMU_SecToken = PMU_SecToken_command;
bfc03b14:	3c02bfeb 	lui	v0,0xbfeb
bfc03b18:	3443007c 	ori	v1,v0,0x7c
bfc03b1c:	3c02cf21 	lui	v0,0xcf21
bfc03b20:	34426e95 	ori	v0,v0,0x6e95
bfc03b24:	ac620000 	sw	v0,0(v1)
D:\loongson\projects\ls1d_ucos\Func/tdc-proc.c:360
	PMU_CommandW = 0x80000000;  //0xbfeb003c, clear regs, then you can start next measure
bfc03b28:	3c02bfeb 	lui	v0,0xbfeb
bfc03b2c:	3443003c 	ori	v1,v0,0x3c
bfc03b30:	3c028000 	lui	v0,0x8000
bfc03b34:	ac620000 	sw	v0,0(v1)
D:\loongson\projects\ls1d_ucos\Func/tdc-proc.c:362

	return 0;
bfc03b38:	afc00010 	sw	zero,16(s8)
bfc03b3c:	8fc20010 	lw	v0,16(s8)
D:\loongson\projects\ls1d_ucos\Func/tdc-proc.c:363
}
bfc03b40:	03c0e821 	move	sp,s8
bfc03b44:	8fbe001c 	lw	s8,28(sp)
bfc03b48:	27bd0020 	addiu	sp,sp,32
bfc03b4c:	03e00008 	jr	ra
bfc03b50:	00000000 	nop

bfc03b54 <ResReady>:
ResReady():
D:\loongson\projects\ls1d_ucos\Func/tdc-proc.c:367


void	ResReady(void)
{
bfc03b54:	27bdffd0 	addiu	sp,sp,-48
bfc03b58:	afbf002c 	sw	ra,44(sp)
bfc03b5c:	afbe0028 	sw	s8,40(sp)
bfc03b60:	03a0f021 	move	s8,sp
D:\loongson\projects\ls1d_ucos\Func/tdc-proc.c:368
	TDCINFO *TDC = &GTdcInfo;
bfc03b64:	3c02a000 	lui	v0,0xa000
bfc03b68:	2442118c 	addiu	v0,v0,4492
bfc03b6c:	afc20024 	sw	v0,36(s8)
D:\loongson\projects\ls1d_ucos\Func/tdc-proc.c:370
	_u32 tdcsel, tdcsel2, cop;
	tdcsel = ((Sonar[1]>>19)&0x1);    //tdcsel
bfc03b70:	3c02bfeb 	lui	v0,0xbfeb
bfc03b74:	34424004 	ori	v0,v0,0x4004
bfc03b78:	8c420000 	lw	v0,0(v0)
bfc03b7c:	000214c2 	srl	v0,v0,0x13
bfc03b80:	30420001 	andi	v0,v0,0x1
bfc03b84:	afc20020 	sw	v0,32(s8)
D:\loongson\projects\ls1d_ucos\Func/tdc-proc.c:371
	tdcsel2 = ((Sonar[1]>>27)&0x1);    //tdcsel2
bfc03b88:	3c02bfeb 	lui	v0,0xbfeb
bfc03b8c:	34424004 	ori	v0,v0,0x4004
bfc03b90:	8c420000 	lw	v0,0(v0)
bfc03b94:	000216c2 	srl	v0,v0,0x1b
bfc03b98:	30420001 	andi	v0,v0,0x1
bfc03b9c:	afc2001c 	sw	v0,28(s8)
D:\loongson\projects\ls1d_ucos\Func/tdc-proc.c:372
	cop = ((PMU[1]>>9)&0x7);  	//cop
bfc03ba0:	3c02bfeb 	lui	v0,0xbfeb
bfc03ba4:	34420004 	ori	v0,v0,0x4
bfc03ba8:	8c420000 	lw	v0,0(v0)
bfc03bac:	00021242 	srl	v0,v0,0x9
bfc03bb0:	30420007 	andi	v0,v0,0x7
bfc03bb4:	afc20018 	sw	v0,24(s8)
D:\loongson\projects\ls1d_ucos\Func/tdc-proc.c:374

	TDC->tdc_mode = 2*tdcsel2 + tdcsel;
bfc03bb8:	8fc2001c 	lw	v0,28(s8)
bfc03bbc:	00021840 	sll	v1,v0,0x1
bfc03bc0:	8fc20020 	lw	v0,32(s8)
bfc03bc4:	00621821 	addu	v1,v1,v0
bfc03bc8:	8fc20024 	lw	v0,36(s8)
bfc03bcc:	ac430000 	sw	v1,0(v0)
D:\loongson\projects\ls1d_ucos\Func/tdc-proc.c:375
	TDC->mrange = ((Sonar[1]>>18)&0x1);    //mrange2
bfc03bd0:	3c02bfeb 	lui	v0,0xbfeb
bfc03bd4:	34424004 	ori	v0,v0,0x4004
bfc03bd8:	8c420000 	lw	v0,0(v0)
bfc03bdc:	00021482 	srl	v0,v0,0x12
bfc03be0:	30430001 	andi	v1,v0,0x1
bfc03be4:	8fc20024 	lw	v0,36(s8)
bfc03be8:	ac430004 	sw	v1,4(v0)
D:\loongson\projects\ls1d_ucos\Func/tdc-proc.c:376
	TDC->disautocal = ((Sonar[1]>>20)&0x1);    //disautocal
bfc03bec:	3c02bfeb 	lui	v0,0xbfeb
bfc03bf0:	34424004 	ori	v0,v0,0x4004
bfc03bf4:	8c420000 	lw	v0,0(v0)
bfc03bf8:	00021502 	srl	v0,v0,0x14
bfc03bfc:	30430001 	andi	v1,v0,0x1
bfc03c00:	8fc20024 	lw	v0,36(s8)
bfc03c04:	ac430008 	sw	v1,8(v0)
D:\loongson\projects\ls1d_ucos\Func/tdc-proc.c:377
	TDC->hitin1 = ((Sonar[1]>>21)&0x7);    //hitin1
bfc03c08:	3c02bfeb 	lui	v0,0xbfeb
bfc03c0c:	34424004 	ori	v0,v0,0x4004
bfc03c10:	8c420000 	lw	v0,0(v0)
bfc03c14:	00021542 	srl	v0,v0,0x15
bfc03c18:	30430007 	andi	v1,v0,0x7
bfc03c1c:	8fc20024 	lw	v0,36(s8)
bfc03c20:	ac43000c 	sw	v1,12(v0)
D:\loongson\projects\ls1d_ucos\Func/tdc-proc.c:378
	TDC->tdc_opt = ((Sonar[2]>>22)&0xff);    //TDCOpt
bfc03c24:	3c02bfeb 	lui	v0,0xbfeb
bfc03c28:	34424008 	ori	v0,v0,0x4008
bfc03c2c:	8c420000 	lw	v0,0(v0)
bfc03c30:	00021582 	srl	v0,v0,0x16
bfc03c34:	304300ff 	andi	v1,v0,0xff
bfc03c38:	8fc20024 	lw	v0,36(s8)
bfc03c3c:	ac430010 	sw	v1,16(v0)
D:\loongson\projects\ls1d_ucos\Func/tdc-proc.c:379
	TDC->mop = cop;
bfc03c40:	8fc30024 	lw	v1,36(s8)
bfc03c44:	8fc20018 	lw	v0,24(s8)
bfc03c48:	ac6200d4 	sw	v0,212(v1)
D:\loongson\projects\ls1d_ucos\Func/tdc-proc.c:380
	TDC->sonar_PulseDef = SONAR_PulseDef;
bfc03c4c:	3c02bfeb 	lui	v0,0xbfeb
bfc03c50:	34424000 	ori	v0,v0,0x4000
bfc03c54:	8c430000 	lw	v1,0(v0)
bfc03c58:	8fc20024 	lw	v0,36(s8)
bfc03c5c:	ac4300cc 	sw	v1,204(v0)
D:\loongson\projects\ls1d_ucos\Func/tdc-proc.c:381
	TDC->sonar_ResPtr = SONAR_ResPtr;
bfc03c60:	3c02bfeb 	lui	v0,0xbfeb
bfc03c64:	34424020 	ori	v0,v0,0x4020
bfc03c68:	8c430000 	lw	v1,0(v0)
bfc03c6c:	8fc20024 	lw	v0,36(s8)
bfc03c70:	ac4300d0 	sw	v1,208(v0)
D:\loongson\projects\ls1d_ucos\Func/tdc-proc.c:383

	if(TDC->mrange == 0)  						//do nothing, if mrange1
bfc03c74:	8fc20024 	lw	v0,36(s8)
bfc03c78:	8c420004 	lw	v0,4(v0)
bfc03c7c:	14400024 	bnez	v0,bfc03d10 <ResReady+0x1bc>
bfc03c80:	00000000 	nop
D:\loongson\projects\ls1d_ucos\Func/tdc-proc.c:385
	{
		_u32 *result = TDC->result;
bfc03c84:	8fc20024 	lw	v0,36(s8)
bfc03c88:	24420034 	addiu	v0,v0,52
bfc03c8c:	afc20014 	sw	v0,20(s8)
D:\loongson\projects\ls1d_ucos\Func/tdc-proc.c:387
		_u32 i;
		for(i=0; i<16; i++)
bfc03c90:	afc00010 	sw	zero,16(s8)
bfc03c94:	0bf00f35 	j	bfc03cd4 <ResReady+0x180>
bfc03c98:	00000000 	nop
D:\loongson\projects\ls1d_ucos\Func/tdc-proc.c:389
		{
			result[i] = Sonar[16+i];    		//0xbfeb4040 Result[0]
bfc03c9c:	8fc20010 	lw	v0,16(s8)
bfc03ca0:	00021880 	sll	v1,v0,0x2
bfc03ca4:	8fc20014 	lw	v0,20(s8)
bfc03ca8:	00432021 	addu	a0,v0,v1
bfc03cac:	8fc20010 	lw	v0,16(s8)
bfc03cb0:	00021880 	sll	v1,v0,0x2
bfc03cb4:	3c02bfeb 	lui	v0,0xbfeb
bfc03cb8:	34424040 	ori	v0,v0,0x4040
bfc03cbc:	00621021 	addu	v0,v1,v0
bfc03cc0:	8c420000 	lw	v0,0(v0)
bfc03cc4:	ac820000 	sw	v0,0(a0)
D:\loongson\projects\ls1d_ucos\Func/tdc-proc.c:387

	if(TDC->mrange == 0)  						//do nothing, if mrange1
	{
		_u32 *result = TDC->result;
		_u32 i;
		for(i=0; i<16; i++)
bfc03cc8:	8fc20010 	lw	v0,16(s8)
bfc03ccc:	24420001 	addiu	v0,v0,1
bfc03cd0:	afc20010 	sw	v0,16(s8)
bfc03cd4:	8fc20010 	lw	v0,16(s8)
bfc03cd8:	2c420010 	sltiu	v0,v0,16
bfc03cdc:	1440ffef 	bnez	v0,bfc03c9c <ResReady+0x148>
bfc03ce0:	00000000 	nop
D:\loongson\projects\ls1d_ucos\Func/tdc-proc.c:391
		{
			result[i] = Sonar[16+i];    		//0xbfeb4040 Result[0]
		}
		PMU_SecToken = PMU_SecToken_command;
bfc03ce4:	3c02bfeb 	lui	v0,0xbfeb
bfc03ce8:	3443007c 	ori	v1,v0,0x7c
bfc03cec:	3c02cf21 	lui	v0,0xcf21
bfc03cf0:	34426e95 	ori	v0,v0,0x6e95
bfc03cf4:	ac620000 	sw	v0,0(v1)
D:\loongson\projects\ls1d_ucos\Func/tdc-proc.c:392
		PMU_CommandW = 0x80000000;
bfc03cf8:	3c02bfeb 	lui	v0,0xbfeb
bfc03cfc:	3443003c 	ori	v1,v0,0x3c
bfc03d00:	3c028000 	lui	v0,0x8000
bfc03d04:	ac620000 	sw	v0,0(v1)
bfc03d08:	0bf00f7c 	j	bfc03df0 <ResReady+0x29c>
bfc03d0c:	00000000 	nop
D:\loongson\projects\ls1d_ucos\Func/tdc-proc.c:396
		return ;
	}

	switch(cop){  									//cop
bfc03d10:	8fc20018 	lw	v0,24(s8)
bfc03d14:	2c420007 	sltiu	v0,v0,7
bfc03d18:	10400035 	beqz	v0,bfc03df0 <ResReady+0x29c>
bfc03d1c:	00000000 	nop
bfc03d20:	8fc20018 	lw	v0,24(s8)
bfc03d24:	00021880 	sll	v1,v0,0x2
bfc03d28:	3c02bfc1 	lui	v0,0xbfc1
bfc03d2c:	244297f0 	addiu	v0,v0,-26640
bfc03d30:	00621021 	addu	v0,v1,v0
bfc03d34:	8c420000 	lw	v0,0(v0)
bfc03d38:	00400008 	jr	v0
bfc03d3c:	00000000 	nop
D:\loongson\projects\ls1d_ucos\Func/tdc-proc.c:399
	case mode_0:
	//		TDC->change_flow_direction = 1;
		TDC->err = func_once_time(TDC);
bfc03d40:	8fc40024 	lw	a0,36(s8)
bfc03d44:	0ff00a32 	jal	bfc028c8 <func_once_time>
bfc03d48:	00000000 	nop
bfc03d4c:	00401821 	move	v1,v0
bfc03d50:	8fc20024 	lw	v0,36(s8)
bfc03d54:	ac4300d8 	sw	v1,216(v0)
bfc03d58:	0bf00f7c 	j	bfc03df0 <ResReady+0x29c>
bfc03d5c:	00000000 	nop
D:\loongson\projects\ls1d_ucos\Func/tdc-proc.c:402
		break;
	case mode_1:
		TDC->err = func_once_thsens(TDC);
bfc03d60:	8fc40024 	lw	a0,36(s8)
bfc03d64:	0ff00bca 	jal	bfc02f28 <func_once_thsens>
bfc03d68:	00000000 	nop
bfc03d6c:	00401821 	move	v1,v0
bfc03d70:	8fc20024 	lw	v0,36(s8)
bfc03d74:	ac4300d8 	sw	v1,216(v0)
bfc03d78:	0bf00f7c 	j	bfc03df0 <ResReady+0x29c>
bfc03d7c:	00000000 	nop
D:\loongson\projects\ls1d_ucos\Func/tdc-proc.c:405
		break;
	case mode_2:
		TDC->change_flow_direction = 1;
bfc03d80:	8fc30024 	lw	v1,36(s8)
bfc03d84:	24020001 	li	v0,1
bfc03d88:	ac6200c8 	sw	v0,200(v1)
D:\loongson\projects\ls1d_ucos\Func/tdc-proc.c:406
		TDC->err = func_twice_time(TDC);
bfc03d8c:	8fc40024 	lw	a0,36(s8)
bfc03d90:	0ff00c6a 	jal	bfc031a8 <func_twice_time>
bfc03d94:	00000000 	nop
bfc03d98:	00401821 	move	v1,v0
bfc03d9c:	8fc20024 	lw	v0,36(s8)
bfc03da0:	ac4300d8 	sw	v1,216(v0)
bfc03da4:	0bf00f7c 	j	bfc03df0 <ResReady+0x29c>
bfc03da8:	00000000 	nop
D:\loongson\projects\ls1d_ucos\Func/tdc-proc.c:409
		break;
	case mode_3:
		TDC->err = func_twice_thsens(TDC);
bfc03dac:	8fc40024 	lw	a0,36(s8)
bfc03db0:	0ff00d38 	jal	bfc034e0 <func_twice_thsens>
bfc03db4:	00000000 	nop
bfc03db8:	00401821 	move	v1,v0
bfc03dbc:	8fc20024 	lw	v0,36(s8)
bfc03dc0:	ac4300d8 	sw	v1,216(v0)
bfc03dc4:	0bf00f7c 	j	bfc03df0 <ResReady+0x29c>
bfc03dc8:	00000000 	nop
D:\loongson\projects\ls1d_ucos\Func/tdc-proc.c:422
		TDC->res_num = 4;
		TDC->err = func_clkhs_cal(TDC);
		break;
#endif
	case mode_6:
		TDC->res_num = 4;
bfc03dcc:	8fc30024 	lw	v1,36(s8)
bfc03dd0:	24020004 	li	v0,4
bfc03dd4:	ac6200c4 	sw	v0,196(v1)
D:\loongson\projects\ls1d_ucos\Func/tdc-proc.c:423
		TDC->err = func_cap_detection(TDC);
bfc03dd8:	8fc40024 	lw	a0,36(s8)
bfc03ddc:	0ff0092f 	jal	bfc024bc <func_cap_detection>
bfc03de0:	00000000 	nop
bfc03de4:	00401821 	move	v1,v0
bfc03de8:	8fc20024 	lw	v0,36(s8)
bfc03dec:	ac4300d8 	sw	v1,216(v0)
D:\loongson\projects\ls1d_ucos\Func/tdc-proc.c:429
		break;
	default:
		break;
	}
	return ;
}
bfc03df0:	03c0e821 	move	sp,s8
bfc03df4:	8fbf002c 	lw	ra,44(sp)
bfc03df8:	8fbe0028 	lw	s8,40(sp)
bfc03dfc:	27bd0030 	addiu	sp,sp,48
bfc03e00:	03e00008 	jr	ra
bfc03e04:	00000000 	nop

bfc03e08 <TimeTdc>:
TimeTdc():
D:\loongson\projects\ls1d_ucos\Func/tdc-proc.c:433


INT8U	TimeTdc()
{
bfc03e08:	27bdffe0 	addiu	sp,sp,-32
bfc03e0c:	afbf001c 	sw	ra,28(sp)
bfc03e10:	afbe0018 	sw	s8,24(sp)
bfc03e14:	03a0f021 	move	s8,sp
D:\loongson\projects\ls1d_ucos\Func/tdc-proc.c:438
	INT32U	TempTime;
	INT8U	ret;
	static	INT32U		LastTimeTdc;

	ret	= 0;
bfc03e18:	a3c00010 	sb	zero,16(s8)
D:\loongson\projects\ls1d_ucos\Func/tdc-proc.c:439
	TempTime	= OSTimeGet();
bfc03e1c:	3c02bfc0 	lui	v0,0xbfc0
bfc03e20:	245964fc 	addiu	t9,v0,25852
bfc03e24:	0320f809 	jalr	t9
bfc03e28:	00000000 	nop
bfc03e2c:	afc20014 	sw	v0,20(s8)
D:\loongson\projects\ls1d_ucos\Func/tdc-proc.c:440
	if(SampingMode	== USER){
bfc03e30:	3c02a000 	lui	v0,0xa000
bfc03e34:	8c421044 	lw	v0,4164(v0)
bfc03e38:	14400012 	bnez	v0,bfc03e84 <TimeTdc+0x7c>
bfc03e3c:	00000000 	nop
D:\loongson\projects\ls1d_ucos\Func/tdc-proc.c:441
		if( (TempTime - LastTimeTdc) >= (2 * 8000000/ TIMERDLY)){
bfc03e40:	3c02a000 	lui	v0,0xa000
bfc03e44:	8c4310c0 	lw	v1,4288(v0)
bfc03e48:	8fc20014 	lw	v0,20(s8)
bfc03e4c:	00431023 	subu	v0,v0,v1
bfc03e50:	2c4203e8 	sltiu	v0,v0,1000
bfc03e54:	14400008 	bnez	v0,bfc03e78 <TimeTdc+0x70>
bfc03e58:	00000000 	nop
D:\loongson\projects\ls1d_ucos\Func/tdc-proc.c:442
			LastTimeTdc	= TempTime;
bfc03e5c:	3c02a000 	lui	v0,0xa000
bfc03e60:	8fc30014 	lw	v1,20(s8)
bfc03e64:	ac4310c0 	sw	v1,4288(v0)
D:\loongson\projects\ls1d_ucos\Func/tdc-proc.c:443
			ret = 1;
bfc03e68:	24020001 	li	v0,1
bfc03e6c:	a3c20010 	sb	v0,16(s8)
bfc03e70:	0bf00fb5 	j	bfc03ed4 <TimeTdc+0xcc>
bfc03e74:	00000000 	nop
D:\loongson\projects\ls1d_ucos\Func/tdc-proc.c:445
		}else{
			ret = 0;
bfc03e78:	a3c00010 	sb	zero,16(s8)
bfc03e7c:	0bf00fb5 	j	bfc03ed4 <TimeTdc+0xcc>
bfc03e80:	00000000 	nop
D:\loongson\projects\ls1d_ucos\Func/tdc-proc.c:447
		}
	}else if(SampingMode	== DOCIM){
bfc03e84:	3c02a000 	lui	v0,0xa000
bfc03e88:	8c431044 	lw	v1,4164(v0)
bfc03e8c:	24020001 	li	v0,1
bfc03e90:	14620010 	bne	v1,v0,bfc03ed4 <TimeTdc+0xcc>
bfc03e94:	00000000 	nop
D:\loongson\projects\ls1d_ucos\Func/tdc-proc.c:448
		if( (TempTime - LastTimeTdc) >= 250 * 8000/TIMERDLY){
bfc03e98:	3c02a000 	lui	v0,0xa000
bfc03e9c:	8c4310c0 	lw	v1,4288(v0)
bfc03ea0:	8fc20014 	lw	v0,20(s8)
bfc03ea4:	00431023 	subu	v0,v0,v1
bfc03ea8:	2c42007d 	sltiu	v0,v0,125
bfc03eac:	14400008 	bnez	v0,bfc03ed0 <TimeTdc+0xc8>
bfc03eb0:	00000000 	nop
D:\loongson\projects\ls1d_ucos\Func/tdc-proc.c:449
			LastTimeTdc	= TempTime;
bfc03eb4:	3c02a000 	lui	v0,0xa000
bfc03eb8:	8fc30014 	lw	v1,20(s8)
bfc03ebc:	ac4310c0 	sw	v1,4288(v0)
D:\loongson\projects\ls1d_ucos\Func/tdc-proc.c:450
			ret = 1;
bfc03ec0:	24020001 	li	v0,1
bfc03ec4:	a3c20010 	sb	v0,16(s8)
bfc03ec8:	0bf00fb5 	j	bfc03ed4 <TimeTdc+0xcc>
bfc03ecc:	00000000 	nop
D:\loongson\projects\ls1d_ucos\Func/tdc-proc.c:452
		}else{
			ret = 0;
bfc03ed0:	a3c00010 	sb	zero,16(s8)
D:\loongson\projects\ls1d_ucos\Func/tdc-proc.c:455
		}
	}
	return ret;
bfc03ed4:	93c20010 	lbu	v0,16(s8)
D:\loongson\projects\ls1d_ucos\Func/tdc-proc.c:456
}
bfc03ed8:	03c0e821 	move	sp,s8
bfc03edc:	8fbf001c 	lw	ra,28(sp)
bfc03ee0:	8fbe0018 	lw	s8,24(sp)
bfc03ee4:	27bd0020 	addiu	sp,sp,32
bfc03ee8:	03e00008 	jr	ra
bfc03eec:	00000000 	nop

bfc03ef0 <TimeThsens>:
TimeThsens():
D:\loongson\projects\ls1d_ucos\Func/tdc-proc.c:460


INT8U	TimeThsens()
{
bfc03ef0:	27bdffe0 	addiu	sp,sp,-32
bfc03ef4:	afbf001c 	sw	ra,28(sp)
bfc03ef8:	afbe0018 	sw	s8,24(sp)
bfc03efc:	03a0f021 	move	s8,sp
D:\loongson\projects\ls1d_ucos\Func/tdc-proc.c:465
	INT32U	TempTime;
	INT8U	ret;
	static	INT32U	LastThsensTdc;

	ret	= 0;
bfc03f00:	a3c00010 	sb	zero,16(s8)
D:\loongson\projects\ls1d_ucos\Func/tdc-proc.c:466
	TempTime	= OSTimeGet();
bfc03f04:	3c02bfc0 	lui	v0,0xbfc0
bfc03f08:	245964fc 	addiu	t9,v0,25852
bfc03f0c:	0320f809 	jalr	t9
bfc03f10:	00000000 	nop
bfc03f14:	afc20014 	sw	v0,20(s8)
D:\loongson\projects\ls1d_ucos\Func/tdc-proc.c:467
	if(SampingMode	== USER){
bfc03f18:	3c02a000 	lui	v0,0xa000
bfc03f1c:	8c421044 	lw	v0,4164(v0)
bfc03f20:	14400012 	bnez	v0,bfc03f6c <TimeThsens+0x7c>
bfc03f24:	00000000 	nop
D:\loongson\projects\ls1d_ucos\Func/tdc-proc.c:468
		if( (TempTime - LastThsensTdc) >= 12 * 8000000/ TIMERDLY){
bfc03f28:	3c02a000 	lui	v0,0xa000
bfc03f2c:	8c4310c4 	lw	v1,4292(v0)
bfc03f30:	8fc20014 	lw	v0,20(s8)
bfc03f34:	00431023 	subu	v0,v0,v1
bfc03f38:	2c421770 	sltiu	v0,v0,6000
bfc03f3c:	14400008 	bnez	v0,bfc03f60 <TimeThsens+0x70>
bfc03f40:	00000000 	nop
D:\loongson\projects\ls1d_ucos\Func/tdc-proc.c:469
			LastThsensTdc	= TempTime;
bfc03f44:	3c02a000 	lui	v0,0xa000
bfc03f48:	8fc30014 	lw	v1,20(s8)
bfc03f4c:	ac4310c4 	sw	v1,4292(v0)
D:\loongson\projects\ls1d_ucos\Func/tdc-proc.c:470
			ret = 1;
bfc03f50:	24020001 	li	v0,1
bfc03f54:	a3c20010 	sb	v0,16(s8)
bfc03f58:	0bf00fef 	j	bfc03fbc <TimeThsens+0xcc>
bfc03f5c:	00000000 	nop
D:\loongson\projects\ls1d_ucos\Func/tdc-proc.c:472
		}else{
			ret = 0;
bfc03f60:	a3c00010 	sb	zero,16(s8)
bfc03f64:	0bf00fef 	j	bfc03fbc <TimeThsens+0xcc>
bfc03f68:	00000000 	nop
D:\loongson\projects\ls1d_ucos\Func/tdc-proc.c:474
		}
	}else if(SampingMode	== DOCIM){
bfc03f6c:	3c02a000 	lui	v0,0xa000
bfc03f70:	8c431044 	lw	v1,4164(v0)
bfc03f74:	24020001 	li	v0,1
bfc03f78:	14620010 	bne	v1,v0,bfc03fbc <TimeThsens+0xcc>
bfc03f7c:	00000000 	nop
D:\loongson\projects\ls1d_ucos\Func/tdc-proc.c:475
		if( (TempTime - LastThsensTdc) >= 2 * 8000000/ TIMERDLY){
bfc03f80:	3c02a000 	lui	v0,0xa000
bfc03f84:	8c4310c4 	lw	v1,4292(v0)
bfc03f88:	8fc20014 	lw	v0,20(s8)
bfc03f8c:	00431023 	subu	v0,v0,v1
bfc03f90:	2c4203e8 	sltiu	v0,v0,1000
bfc03f94:	14400008 	bnez	v0,bfc03fb8 <TimeThsens+0xc8>
bfc03f98:	00000000 	nop
D:\loongson\projects\ls1d_ucos\Func/tdc-proc.c:476
			LastThsensTdc	= TempTime;
bfc03f9c:	3c02a000 	lui	v0,0xa000
bfc03fa0:	8fc30014 	lw	v1,20(s8)
bfc03fa4:	ac4310c4 	sw	v1,4292(v0)
D:\loongson\projects\ls1d_ucos\Func/tdc-proc.c:477
			ret = 1;
bfc03fa8:	24020001 	li	v0,1
bfc03fac:	a3c20010 	sb	v0,16(s8)
bfc03fb0:	0bf00fef 	j	bfc03fbc <TimeThsens+0xcc>
bfc03fb4:	00000000 	nop
D:\loongson\projects\ls1d_ucos\Func/tdc-proc.c:479
		}else{
			ret = 0;
bfc03fb8:	a3c00010 	sb	zero,16(s8)
D:\loongson\projects\ls1d_ucos\Func/tdc-proc.c:482
		}
	}
	return ret;
bfc03fbc:	93c20010 	lbu	v0,16(s8)
D:\loongson\projects\ls1d_ucos\Func/tdc-proc.c:483
}
bfc03fc0:	03c0e821 	move	sp,s8
bfc03fc4:	8fbf001c 	lw	ra,28(sp)
bfc03fc8:	8fbe0018 	lw	s8,24(sp)
bfc03fcc:	27bd0020 	addiu	sp,sp,32
bfc03fd0:	03e00008 	jr	ra
bfc03fd4:	00000000 	nop

bfc03fd8 <TdcSampProc>:
TdcSampProc():
D:\loongson\projects\ls1d_ucos\Func/tdc-proc.c:496
 * pmu_compare 的数值，因此需等待一段时间之后，pmu把 cpu唤醒，此时再做 TimeTdc() 也不迟！！
 * 实际中最好这里加入打印语句观察 发生这种情况的频率。（估计也极少发生！！）
 * 这个进程优先级设置为最低，只有这样才能当这个进程 OSSemPend 的时候立刻进入idle进程休眠掉！
 * ****************************************************/
void	TdcSampProc(OS_EVENT *pGSemTdcInt)
{
bfc03fd8:	27bdffe0 	addiu	sp,sp,-32
bfc03fdc:	afbf001c 	sw	ra,28(sp)
bfc03fe0:	afbe0018 	sw	s8,24(sp)
bfc03fe4:	03a0f021 	move	s8,sp
bfc03fe8:	afc40020 	sw	a0,32(s8)
D:\loongson\projects\ls1d_ucos\Func/tdc-proc.c:501
	INT8U err;

//NextTimeTdc:
	///下面两个 pend 应该 pend 的是同一个信号量！！！
	if( (TimeTdc() || CASE_ISSET(TIMEWAKE) ) && (!CASE_ISSET(THSENSWAKE) ) )
bfc03fec:	0ff00f82 	jal	bfc03e08 <TimeTdc>
bfc03ff0:	00000000 	nop
bfc03ff4:	14400006 	bnez	v0,bfc04010 <TdcSampProc+0x38>
bfc03ff8:	00000000 	nop
bfc03ffc:	3c02a000 	lui	v0,0xa000
bfc04000:	8c4210b0 	lw	v0,4272(v0)
bfc04004:	30420010 	andi	v0,v0,0x10
bfc04008:	10400027 	beqz	v0,bfc040a8 <TdcSampProc+0xd0>
bfc0400c:	00000000 	nop
bfc04010:	3c02a000 	lui	v0,0xa000
bfc04014:	8c4210b0 	lw	v0,4272(v0)
bfc04018:	30420020 	andi	v0,v0,0x20
bfc0401c:	14400022 	bnez	v0,bfc040a8 <TdcSampProc+0xd0>
bfc04020:	00000000 	nop
D:\loongson\projects\ls1d_ucos\Func/tdc-proc.c:503
	{
		if( !CASE_ISSET(TIMEWAKE) ){
bfc04024:	3c02a000 	lui	v0,0xa000
bfc04028:	8c4210b0 	lw	v0,4272(v0)
bfc0402c:	30420010 	andi	v0,v0,0x10
bfc04030:	1440000e 	bnez	v0,bfc0406c <TdcSampProc+0x94>
bfc04034:	00000000 	nop
D:\loongson\projects\ls1d_ucos\Func/tdc-proc.c:504
			SetTdcMop(DOUBLETIME);
bfc04038:	24040008 	li	a0,8
bfc0403c:	3c02bfc1 	lui	v0,0xbfc1
bfc04040:	245984d0 	addiu	t9,v0,-31536
bfc04044:	0320f809 	jalr	t9
bfc04048:	00000000 	nop
D:\loongson\projects\ls1d_ucos\Func/tdc-proc.c:505
			StartTdc();
bfc0404c:	3c02bfc1 	lui	v0,0xbfc1
bfc04050:	2459858c 	addiu	t9,v0,-31348
bfc04054:	0320f809 	jalr	t9
bfc04058:	00000000 	nop
D:\loongson\projects\ls1d_ucos\Func/tdc-proc.c:506
			EnSleep();
bfc0405c:	3c02bfc1 	lui	v0,0xbfc1
bfc04060:	24598f38 	addiu	t9,v0,-28872
bfc04064:	0320f809 	jalr	t9
bfc04068:	00000000 	nop
D:\loongson\projects\ls1d_ucos\Func/tdc-proc.c:508
		}
		OSSemPend(pGSemTdcInt,0,&err);
bfc0406c:	8fc40020 	lw	a0,32(s8)
bfc04070:	00002821 	move	a1,zero
bfc04074:	27c20010 	addiu	v0,s8,16
bfc04078:	00403021 	move	a2,v0
bfc0407c:	3c02bfc0 	lui	v0,0xbfc0
bfc04080:	24594a94 	addiu	t9,v0,19092
bfc04084:	0320f809 	jalr	t9
bfc04088:	00000000 	nop
D:\loongson\projects\ls1d_ucos\Func/tdc-proc.c:509
		ResReady();
bfc0408c:	0ff00ed5 	jal	bfc03b54 <ResReady>
bfc04090:	00000000 	nop
D:\loongson\projects\ls1d_ucos\Func/tdc-proc.c:510
		DataProcess(DOUBLETIME);
bfc04094:	24040008 	li	a0,8
bfc04098:	3c02bfc0 	lui	v0,0xbfc0
bfc0409c:	245943d4 	addiu	t9,v0,17364
bfc040a0:	0320f809 	jalr	t9
bfc040a4:	00000000 	nop
D:\loongson\projects\ls1d_ucos\Func/tdc-proc.c:512
	}
	if(TimeThsens () || CASE_ISSET(THSENSWAKE) )
bfc040a8:	0ff00fbc 	jal	bfc03ef0 <TimeThsens>
bfc040ac:	00000000 	nop
bfc040b0:	14400006 	bnez	v0,bfc040cc <TdcSampProc+0xf4>
bfc040b4:	00000000 	nop
bfc040b8:	3c02a000 	lui	v0,0xa000
bfc040bc:	8c4210b0 	lw	v0,4272(v0)
bfc040c0:	30420020 	andi	v0,v0,0x20
bfc040c4:	10400031 	beqz	v0,bfc0418c <TdcSampProc+0x1b4>
bfc040c8:	00000000 	nop
D:\loongson\projects\ls1d_ucos\Func/tdc-proc.c:514
	{
		if(!CASE_ISSET(THSENSWAKE) ){
bfc040cc:	3c02a000 	lui	v0,0xa000
bfc040d0:	8c4210b0 	lw	v0,4272(v0)
bfc040d4:	30420020 	andi	v0,v0,0x20
bfc040d8:	1440000e 	bnez	v0,bfc04114 <TdcSampProc+0x13c>
bfc040dc:	00000000 	nop
D:\loongson\projects\ls1d_ucos\Func/tdc-proc.c:515
			SetTdcMop(DOUBLETHSENS);
bfc040e0:	2404000c 	li	a0,12
bfc040e4:	3c02bfc1 	lui	v0,0xbfc1
bfc040e8:	245984d0 	addiu	t9,v0,-31536
bfc040ec:	0320f809 	jalr	t9
bfc040f0:	00000000 	nop
D:\loongson\projects\ls1d_ucos\Func/tdc-proc.c:516
			StartTdc();
bfc040f4:	3c02bfc1 	lui	v0,0xbfc1
bfc040f8:	2459858c 	addiu	t9,v0,-31348
bfc040fc:	0320f809 	jalr	t9
bfc04100:	00000000 	nop
D:\loongson\projects\ls1d_ucos\Func/tdc-proc.c:517
			EnSleep();
bfc04104:	3c02bfc1 	lui	v0,0xbfc1
bfc04108:	24598f38 	addiu	t9,v0,-28872
bfc0410c:	0320f809 	jalr	t9
bfc04110:	00000000 	nop
D:\loongson\projects\ls1d_ucos\Func/tdc-proc.c:519
		}
		OSSemPend(pGSemTdcInt,0,&err);
bfc04114:	8fc40020 	lw	a0,32(s8)
bfc04118:	00002821 	move	a1,zero
bfc0411c:	27c20010 	addiu	v0,s8,16
bfc04120:	00403021 	move	a2,v0
bfc04124:	3c02bfc0 	lui	v0,0xbfc0
bfc04128:	24594a94 	addiu	t9,v0,19092
bfc0412c:	0320f809 	jalr	t9
bfc04130:	00000000 	nop
D:\loongson\projects\ls1d_ucos\Func/tdc-proc.c:520
		ResReady();
bfc04134:	0ff00ed5 	jal	bfc03b54 <ResReady>
bfc04138:	00000000 	nop
D:\loongson\projects\ls1d_ucos\Func/tdc-proc.c:521
		DataProcess(DOUBLETHSENS);
bfc0413c:	2404000c 	li	a0,12
bfc04140:	3c02bfc0 	lui	v0,0xbfc0
bfc04144:	245943d4 	addiu	t9,v0,17364
bfc04148:	0320f809 	jalr	t9
bfc0414c:	00000000 	nop
D:\loongson\projects\ls1d_ucos\Func/tdc-proc.c:522
		if(TimeTdc() && CASE_ISSET(THSENSWAKE) ){
bfc04150:	0ff00f82 	jal	bfc03e08 <TimeTdc>
bfc04154:	00000000 	nop
bfc04158:	1040000c 	beqz	v0,bfc0418c <TdcSampProc+0x1b4>
bfc0415c:	00000000 	nop
bfc04160:	3c02a000 	lui	v0,0xa000
bfc04164:	8c4210b0 	lw	v0,4272(v0)
bfc04168:	30420020 	andi	v0,v0,0x20
bfc0416c:	10400007 	beqz	v0,bfc0418c <TdcSampProc+0x1b4>
bfc04170:	00000000 	nop
D:\loongson\projects\ls1d_ucos\Func/tdc-proc.c:523
			puts("hp\n");
bfc04174:	3c02bfc1 	lui	v0,0xbfc1
bfc04178:	2444980c 	addiu	a0,v0,-26612
bfc0417c:	3c02bfc1 	lui	v0,0xbfc1
bfc04180:	24599390 	addiu	t9,v0,-27760
bfc04184:	0320f809 	jalr	t9
bfc04188:	00000000 	nop
D:\loongson\projects\ls1d_ucos\Func/tdc-proc.c:527
			//goto  NextTimeTdc
		}
	}
}
bfc0418c:	03c0e821 	move	sp,s8
bfc04190:	8fbf001c 	lw	ra,28(sp)
bfc04194:	8fbe0018 	lw	s8,24(sp)
bfc04198:	27bd0020 	addiu	sp,sp,32
bfc0419c:	03e00008 	jr	ra
bfc041a0:	00000000 	nop

bfc041a4 <CapaciDetec>:
CapaciDetec():
D:\loongson\projects\ls1d_ucos\Func/tdc-proc.c:531


INT8U	CapaciDetec(OS_EVENT *pGSemTdcInt,INT8U SampMode)
{
bfc041a4:	27bdffe0 	addiu	sp,sp,-32
bfc041a8:	afbf001c 	sw	ra,28(sp)
bfc041ac:	afbe0018 	sw	s8,24(sp)
bfc041b0:	03a0f021 	move	s8,sp
bfc041b4:	afc40020 	sw	a0,32(s8)
bfc041b8:	00a01021 	move	v0,a1
bfc041bc:	a3c20024 	sb	v0,36(s8)
D:\loongson\projects\ls1d_ucos\Func/tdc-proc.c:533
	INT8U		err;
	InitTdc();
bfc041c0:	3c02bfc1 	lui	v0,0xbfc1
bfc041c4:	24598320 	addiu	t9,v0,-31968
bfc041c8:	0320f809 	jalr	t9
bfc041cc:	00000000 	nop
D:\loongson\projects\ls1d_ucos\Func/tdc-proc.c:534
	SelectTdc(S_TDC);
bfc041d0:	24040002 	li	a0,2
bfc041d4:	3c02bfc1 	lui	v0,0xbfc1
bfc041d8:	24598444 	addiu	t9,v0,-31676
bfc041dc:	0320f809 	jalr	t9
bfc041e0:	00000000 	nop
D:\loongson\projects\ls1d_ucos\Func/tdc-proc.c:535
	SetTdcMop(SampMode);
bfc041e4:	93c20024 	lbu	v0,36(s8)
bfc041e8:	00402021 	move	a0,v0
bfc041ec:	3c02bfc1 	lui	v0,0xbfc1
bfc041f0:	245984d0 	addiu	t9,v0,-31536
bfc041f4:	0320f809 	jalr	t9
bfc041f8:	00000000 	nop
D:\loongson\projects\ls1d_ucos\Func/tdc-proc.c:536
	StartTdc();
bfc041fc:	3c02bfc1 	lui	v0,0xbfc1
bfc04200:	2459858c 	addiu	t9,v0,-31348
bfc04204:	0320f809 	jalr	t9
bfc04208:	00000000 	nop
D:\loongson\projects\ls1d_ucos\Func/tdc-proc.c:537
	OSSemPend(pGSemTdcInt,0,&err);
bfc0420c:	8fc40020 	lw	a0,32(s8)
bfc04210:	00002821 	move	a1,zero
bfc04214:	27c20010 	addiu	v0,s8,16
bfc04218:	00403021 	move	a2,v0
bfc0421c:	3c02bfc0 	lui	v0,0xbfc0
bfc04220:	24594a94 	addiu	t9,v0,19092
bfc04224:	0320f809 	jalr	t9
bfc04228:	00000000 	nop
D:\loongson\projects\ls1d_ucos\Func/tdc-proc.c:538
	if(err == OS_NO_ERR){					/// 这个    换能器电容检测   超过10ms，不到20ms
bfc0422c:	93c20010 	lbu	v0,16(s8)
bfc04230:	14400003 	bnez	v0,bfc04240 <CapaciDetec+0x9c>
bfc04234:	00000000 	nop
D:\loongson\projects\ls1d_ucos\Func/tdc-proc.c:539
		ResReady();
bfc04238:	0ff00ed5 	jal	bfc03b54 <ResReady>
bfc0423c:	00000000 	nop
D:\loongson\projects\ls1d_ucos\Func/tdc-proc.c:541
	}
	return GTdcInfo.err;
bfc04240:	3c02a000 	lui	v0,0xa000
bfc04244:	2442118c 	addiu	v0,v0,4492
bfc04248:	8c4200d8 	lw	v0,216(v0)
bfc0424c:	304200ff 	andi	v0,v0,0xff
D:\loongson\projects\ls1d_ucos\Func/tdc-proc.c:542
}
bfc04250:	03c0e821 	move	sp,s8
bfc04254:	8fbf001c 	lw	ra,28(sp)
bfc04258:	8fbe0018 	lw	s8,24(sp)
bfc0425c:	27bd0020 	addiu	sp,sp,32
bfc04260:	03e00008 	jr	ra
bfc04264:	00000000 	nop

bfc04268 <ProcTime>:
ProcTime():
D:\loongson\projects\ls1d_ucos\Func/tdc-proc.c:548


/**处理超声波
 * **/
void	ProcTime(_fp32 time)
{
bfc04268:	27bdfff8 	addiu	sp,sp,-8
bfc0426c:	afbe0004 	sw	s8,4(sp)
bfc04270:	03a0f021 	move	s8,sp
bfc04274:	e7cc0008 	swc1	$f12,8(s8)
D:\loongson\projects\ls1d_ucos\Func/tdc-proc.c:549
	AccumHeat	+= 3.1382f;
bfc04278:	3c02a000 	lui	v0,0xa000
bfc0427c:	c4411050 	lwc1	$f1,4176(v0)
bfc04280:	3c02bfc1 	lui	v0,0xbfc1
bfc04284:	c4409824 	lwc1	$f0,-26588(v0)
bfc04288:	46000800 	add.s	$f0,$f1,$f0
bfc0428c:	3c02a000 	lui	v0,0xa000
bfc04290:	e4401050 	swc1	$f0,4176(v0)
D:\loongson\projects\ls1d_ucos\Func/tdc-proc.c:550
	Power		= 3.14f;
bfc04294:	3c03a000 	lui	v1,0xa000
bfc04298:	3c02bfc1 	lui	v0,0xbfc1
bfc0429c:	c4409828 	lwc1	$f0,-26584(v0)
bfc042a0:	e4601078 	swc1	$f0,4216(v1)
D:\loongson\projects\ls1d_ucos\Func/tdc-proc.c:551
	InteFlux	+= 1.52f;
bfc042a4:	3c02a000 	lui	v0,0xa000
bfc042a8:	c441106c 	lwc1	$f1,4204(v0)
bfc042ac:	3c02bfc1 	lui	v0,0xbfc1
bfc042b0:	c440982c 	lwc1	$f0,-26580(v0)
bfc042b4:	46000800 	add.s	$f0,$f1,$f0
bfc042b8:	3c02a000 	lui	v0,0xa000
bfc042bc:	e440106c 	swc1	$f0,4204(v0)
D:\loongson\projects\ls1d_ucos\Func/tdc-proc.c:552
	InstantFlux	= 4.66f;
bfc042c0:	3c03a000 	lui	v1,0xa000
bfc042c4:	3c02bfc1 	lui	v0,0xbfc1
bfc042c8:	c4409830 	lwc1	$f0,-26576(v0)
bfc042cc:	e4601018 	swc1	$f0,4120(v1)
D:\loongson\projects\ls1d_ucos\Func/tdc-proc.c:553
	InstantHeat	= 6.23f;
bfc042d0:	3c03a000 	lui	v1,0xa000
bfc042d4:	3c02bfc1 	lui	v0,0xbfc1
bfc042d8:	c4409834 	lwc1	$f0,-26572(v0)
bfc042dc:	e4601004 	swc1	$f0,4100(v1)
D:\loongson\projects\ls1d_ucos\Func/tdc-proc.c:554
}
bfc042e0:	03c0e821 	move	sp,s8
bfc042e4:	8fbe0004 	lw	s8,4(sp)
bfc042e8:	27bd0008 	addiu	sp,sp,8
bfc042ec:	03e00008 	jr	ra
bfc042f0:	00000000 	nop

bfc042f4 <ProcThsens>:
ProcThsens():
D:\loongson\projects\ls1d_ucos\Func/tdc-proc.c:559

/**处理温度测试！
 * **/
void	ProcThsens(_fp32 time1,_fp32 time2)
{
bfc042f4:	27bdfff8 	addiu	sp,sp,-8
bfc042f8:	afbe0004 	sw	s8,4(sp)
bfc042fc:	03a0f021 	move	s8,sp
bfc04300:	e7cc0008 	swc1	$f12,8(s8)
bfc04304:	e7cd000c 	swc1	$f13,12(s8)
D:\loongson\projects\ls1d_ucos\Func/tdc-proc.c:560
	InTemp	= 64.42f;
bfc04308:	3c03a000 	lui	v1,0xa000
bfc0430c:	3c02bfc1 	lui	v0,0xbfc1
bfc04310:	c4409838 	lwc1	$f0,-26568(v0)
bfc04314:	e4601094 	swc1	$f0,4244(v1)
D:\loongson\projects\ls1d_ucos\Func/tdc-proc.c:561
	OutTemp	= 43.82f;
bfc04318:	3c03a000 	lui	v1,0xa000
bfc0431c:	3c02bfc1 	lui	v0,0xbfc1
bfc04320:	c440983c 	lwc1	$f0,-26564(v0)
bfc04324:	e4601090 	swc1	$f0,4240(v1)
D:\loongson\projects\ls1d_ucos\Func/tdc-proc.c:562
	DammingTemp	= (43.82f + 64.42f)/2;
bfc04328:	3c03a000 	lui	v1,0xa000
bfc0432c:	3c02bfc1 	lui	v0,0xbfc1
bfc04330:	c4409840 	lwc1	$f0,-26560(v0)
bfc04334:	e460105c 	swc1	$f0,4188(v1)
D:\loongson\projects\ls1d_ucos\Func/tdc-proc.c:563
	DiffTemp	= 64.42f - 43.82f;
bfc04338:	3c03a000 	lui	v1,0xa000
bfc0433c:	3c02bfc1 	lui	v0,0xbfc1
bfc04340:	c4409844 	lwc1	$f0,-26556(v0)
bfc04344:	e460101c 	swc1	$f0,4124(v1)
D:\loongson\projects\ls1d_ucos\Func/tdc-proc.c:564
}
bfc04348:	03c0e821 	move	sp,s8
bfc0434c:	8fbe0004 	lw	s8,4(sp)
bfc04350:	27bd0008 	addiu	sp,sp,8
bfc04354:	03e00008 	jr	ra
bfc04358:	00000000 	nop

bfc0435c <time_to_temp>:
time_to_temp():
D:\loongson\projects\ls1d_ucos\Func/tdc-proc.c:567

_fp32 time_to_temp(_fp32 time, _fp32 standard)
{
bfc0435c:	27bdfff0 	addiu	sp,sp,-16
bfc04360:	afbe000c 	sw	s8,12(sp)
bfc04364:	03a0f021 	move	s8,sp
bfc04368:	e7cc0010 	swc1	$f12,16(s8)
bfc0436c:	e7cd0014 	swc1	$f13,20(s8)
D:\loongson\projects\ls1d_ucos\Func/tdc-proc.c:568
	_fp32 r_input = time/standard;
bfc04370:	c7c10010 	lwc1	$f1,16(s8)
bfc04374:	c7c00014 	lwc1	$f0,20(s8)
bfc04378:	46000803 	div.s	$f0,$f1,$f0
bfc0437c:	e7c00004 	swc1	$f0,4(s8)
D:\loongson\projects\ls1d_ucos\Func/tdc-proc.c:571
	_fp32 temp;
    /******************************************************************************************************************************/
	temp = 10.1373f*r_input*r_input + 235.515f*r_input - 245.649725f;
bfc04380:	c7c10004 	lwc1	$f1,4(s8)
bfc04384:	3c02bfc1 	lui	v0,0xbfc1
bfc04388:	c4409848 	lwc1	$f0,-26552(v0)
bfc0438c:	46000842 	mul.s	$f1,$f1,$f0
bfc04390:	c7c00004 	lwc1	$f0,4(s8)
bfc04394:	46000882 	mul.s	$f2,$f1,$f0
bfc04398:	c7c10004 	lwc1	$f1,4(s8)
bfc0439c:	3c02bfc1 	lui	v0,0xbfc1
bfc043a0:	c440984c 	lwc1	$f0,-26548(v0)
bfc043a4:	46000802 	mul.s	$f0,$f1,$f0
bfc043a8:	46001040 	add.s	$f1,$f2,$f0
bfc043ac:	3c02bfc1 	lui	v0,0xbfc1
bfc043b0:	c4409850 	lwc1	$f0,-26544(v0)
bfc043b4:	46000801 	sub.s	$f0,$f1,$f0
bfc043b8:	e7c00000 	swc1	$f0,0(s8)
D:\loongson\projects\ls1d_ucos\Func/tdc-proc.c:573

	return temp;
bfc043bc:	c7c00000 	lwc1	$f0,0(s8)
D:\loongson\projects\ls1d_ucos\Func/tdc-proc.c:574
}
bfc043c0:	03c0e821 	move	sp,s8
bfc043c4:	8fbe000c 	lw	s8,12(sp)
bfc043c8:	27bd0010 	addiu	sp,sp,16
bfc043cc:	03e00008 	jr	ra
bfc043d0:	00000000 	nop

bfc043d4 <DataProcess>:
DataProcess():
D:\loongson\projects\ls1d_ucos\Func/tdc-proc.c:581

/** 随意处理的， 这里的公式没有任何意义！！
 * 使用时还需根据情况修改才行~
 * **/
void	DataProcess(INT8U SampMode)
{
bfc043d4:	27bdffd8 	addiu	sp,sp,-40
bfc043d8:	afbf0024 	sw	ra,36(sp)
bfc043dc:	afbe0020 	sw	s8,32(sp)
bfc043e0:	03a0f021 	move	s8,sp
bfc043e4:	00801021 	move	v0,a0
bfc043e8:	a3c20028 	sb	v0,40(s8)
D:\loongson\projects\ls1d_ucos\Func/tdc-proc.c:584
	//_fp32 time1;	,time2
	//_u32 i;
	TDCINFO *TDC	= &GTdcInfo;
bfc043ec:	3c02a000 	lui	v0,0xa000
bfc043f0:	2442118c 	addiu	v0,v0,4492
bfc043f4:	afc2001c 	sw	v0,28(s8)
D:\loongson\projects\ls1d_ucos\Func/tdc-proc.c:585
	if(SampMode == DOUBLETIME){
bfc043f8:	93c30028 	lbu	v1,40(s8)
bfc043fc:	24020008 	li	v0,8
bfc04400:	1062005d 	beq	v1,v0,bfc04578 <DataProcess+0x1a4>
bfc04404:	00000000 	nop
D:\loongson\projects\ls1d_ucos\Func/tdc-proc.c:602
		printf("\nup:%d\tdown:%d\tdelta:%d",
				(_u32)TDC->tdc_data.ftime1,
				(_u32)TDC->tdc_data.ftime2,
				(_u32)TDC->tdc_data.time_delta
		);*/
	}else if(SampMode == DOUBLETHSENS){
bfc04408:	93c30028 	lbu	v1,40(s8)
bfc0440c:	2402000c 	li	v0,12
bfc04410:	14620059 	bne	v1,v0,bfc04578 <DataProcess+0x1a4>
bfc04414:	00000000 	nop
D:\loongson\projects\ls1d_ucos\Func/tdc-proc.c:612
			time1	= GTdcInfo.tdc_data.ptime[0] + GTdcInfo.tdc_data.ptime[1];
			time2	= GTdcInfo.tdc_data.ptime[2] + GTdcInfo.tdc_data.ptime[3];
		}
		ProcThsens(time1,time2);*/
		_fp32 tmp;
		tmp = TDC->tdc_data.ptime[2] + TDC->tdc_data.ptime[3];
bfc04418:	8fc2001c 	lw	v0,28(s8)
bfc0441c:	c441001c 	lwc1	$f1,28(v0)
bfc04420:	8fc2001c 	lw	v0,28(s8)
bfc04424:	c4400020 	lwc1	$f0,32(v0)
bfc04428:	46000800 	add.s	$f0,$f1,$f0
bfc0442c:	e7c00018 	swc1	$f0,24(s8)
D:\loongson\projects\ls1d_ucos\Func/tdc-proc.c:613
		if((tmp < 0.0001f) && (tmp > -0.0001f)){
bfc04430:	c7c10018 	lwc1	$f1,24(s8)
bfc04434:	3c02bfc1 	lui	v0,0xbfc1
bfc04438:	c4409854 	lwc1	$f0,-26540(v0)
bfc0443c:	4600083c 	c.lt.s	$f1,$f0
bfc04440:	4500000f 	bc1f	bfc04480 <DataProcess+0xac>
bfc04444:	00000000 	nop
bfc04448:	c7c10018 	lwc1	$f1,24(s8)
bfc0444c:	3c02bfc1 	lui	v0,0xbfc1
bfc04450:	c4409858 	lwc1	$f0,-26536(v0)
bfc04454:	4601003c 	c.lt.s	$f0,$f1
bfc04458:	45000009 	bc1f	bfc04480 <DataProcess+0xac>
bfc0445c:	00000000 	nop
D:\loongson\projects\ls1d_ucos\Func/tdc-proc.c:614
			puts("err");
bfc04460:	3c02bfc1 	lui	v0,0xbfc1
bfc04464:	24449810 	addiu	a0,v0,-26608
bfc04468:	3c02bfc1 	lui	v0,0xbfc1
bfc0446c:	24599390 	addiu	t9,v0,-27760
bfc04470:	0320f809 	jalr	t9
bfc04474:	00000000 	nop
bfc04478:	0bf0115e 	j	bfc04578 <DataProcess+0x1a4>
bfc0447c:	00000000 	nop
D:\loongson\projects\ls1d_ucos\Func/tdc-proc.c:617
			return ;
		}
		_fp32 temp1 = time_to_temp(TDC->tdc_data.ptime[0]*2, tmp);
bfc04480:	8fc2001c 	lw	v0,28(s8)
bfc04484:	c4400014 	lwc1	$f0,20(v0)
bfc04488:	46000000 	add.s	$f0,$f0,$f0
bfc0448c:	46000306 	mov.s	$f12,$f0
bfc04490:	c7cd0018 	lwc1	$f13,24(s8)
bfc04494:	0ff010d7 	jal	bfc0435c <time_to_temp>
bfc04498:	00000000 	nop
bfc0449c:	e7c00014 	swc1	$f0,20(s8)
D:\loongson\projects\ls1d_ucos\Func/tdc-proc.c:618
		_fp32 temp2 = time_to_temp(TDC->tdc_data.ptime[1]*2, tmp);
bfc044a0:	8fc2001c 	lw	v0,28(s8)
bfc044a4:	c4400018 	lwc1	$f0,24(v0)
bfc044a8:	46000000 	add.s	$f0,$f0,$f0
bfc044ac:	46000306 	mov.s	$f12,$f0
bfc044b0:	c7cd0018 	lwc1	$f13,24(s8)
bfc044b4:	0ff010d7 	jal	bfc0435c <time_to_temp>
bfc044b8:	00000000 	nop
bfc044bc:	e7c00010 	swc1	$f0,16(s8)
D:\loongson\projects\ls1d_ucos\Func/tdc-proc.c:620
		static char	buf[64];
		ftoa(buf, temp1, 4);
bfc044c0:	3c02a000 	lui	v0,0xa000
bfc044c4:	244410c8 	addiu	a0,v0,4296
bfc044c8:	8fc50014 	lw	a1,20(s8)
bfc044cc:	24060004 	li	a2,4
bfc044d0:	3c02bfc0 	lui	v0,0xbfc0
bfc044d4:	245979f8 	addiu	t9,v0,31224
bfc044d8:	0320f809 	jalr	t9
bfc044dc:	00000000 	nop
D:\loongson\projects\ls1d_ucos\Func/tdc-proc.c:621
		puts("\n");
bfc044e0:	3c02bfc1 	lui	v0,0xbfc1
bfc044e4:	24449814 	addiu	a0,v0,-26604
bfc044e8:	3c02bfc1 	lui	v0,0xbfc1
bfc044ec:	24599390 	addiu	t9,v0,-27760
bfc044f0:	0320f809 	jalr	t9
bfc044f4:	00000000 	nop
D:\loongson\projects\ls1d_ucos\Func/tdc-proc.c:622
		puts(buf);
bfc044f8:	3c02a000 	lui	v0,0xa000
bfc044fc:	244410c8 	addiu	a0,v0,4296
bfc04500:	3c02bfc1 	lui	v0,0xbfc1
bfc04504:	24599390 	addiu	t9,v0,-27760
bfc04508:	0320f809 	jalr	t9
bfc0450c:	00000000 	nop
D:\loongson\projects\ls1d_ucos\Func/tdc-proc.c:623
		puts("\n");
bfc04510:	3c02bfc1 	lui	v0,0xbfc1
bfc04514:	24449814 	addiu	a0,v0,-26604
bfc04518:	3c02bfc1 	lui	v0,0xbfc1
bfc0451c:	24599390 	addiu	t9,v0,-27760
bfc04520:	0320f809 	jalr	t9
bfc04524:	00000000 	nop
D:\loongson\projects\ls1d_ucos\Func/tdc-proc.c:624
		ftoa(buf, temp2, 4);
bfc04528:	3c02a000 	lui	v0,0xa000
bfc0452c:	244410c8 	addiu	a0,v0,4296
bfc04530:	8fc50010 	lw	a1,16(s8)
bfc04534:	24060004 	li	a2,4
bfc04538:	3c02bfc0 	lui	v0,0xbfc0
bfc0453c:	245979f8 	addiu	t9,v0,31224
bfc04540:	0320f809 	jalr	t9
bfc04544:	00000000 	nop
D:\loongson\projects\ls1d_ucos\Func/tdc-proc.c:625
		puts(buf);/**/
bfc04548:	3c02a000 	lui	v0,0xa000
bfc0454c:	244410c8 	addiu	a0,v0,4296
bfc04550:	3c02bfc1 	lui	v0,0xbfc1
bfc04554:	24599390 	addiu	t9,v0,-27760
bfc04558:	0320f809 	jalr	t9
bfc0455c:	00000000 	nop
D:\loongson\projects\ls1d_ucos\Func/tdc-proc.c:626
		puts("\n");
bfc04560:	3c02bfc1 	lui	v0,0xbfc1
bfc04564:	24449814 	addiu	a0,v0,-26604
bfc04568:	3c02bfc1 	lui	v0,0xbfc1
bfc0456c:	24599390 	addiu	t9,v0,-27760
bfc04570:	0320f809 	jalr	t9
bfc04574:	00000000 	nop
D:\loongson\projects\ls1d_ucos\Func/tdc-proc.c:628
	}
}
bfc04578:	03c0e821 	move	sp,s8
bfc0457c:	8fbf0024 	lw	ra,36(sp)
bfc04580:	8fbe0020 	lw	s8,32(sp)
bfc04584:	27bd0028 	addiu	sp,sp,40
bfc04588:	03e00008 	jr	ra
bfc0458c:	00000000 	nop

bfc04590 <InitTimeDate>:
InitTimeDate():
D:\loongson\projects\ls1d_ucos\Func/TimeDate.c:6
#include "includes.h"



void	InitTimeDate(void)
{
bfc04590:	27bdfff8 	addiu	sp,sp,-8
bfc04594:	afbe0004 	sw	s8,4(sp)
bfc04598:	03a0f021 	move	s8,sp
D:\loongson\projects\ls1d_ucos\Func/TimeDate.c:7
	year	= 14;
bfc0459c:	3c03a000 	lui	v1,0xa000
bfc045a0:	2402000e 	li	v0,14
bfc045a4:	a062107e 	sb	v0,4222(v1)
D:\loongson\projects\ls1d_ucos\Func/TimeDate.c:8
	month	= 6;
bfc045a8:	3c03a000 	lui	v1,0xa000
bfc045ac:	24020006 	li	v0,6
bfc045b0:	a062102c 	sb	v0,4140(v1)
D:\loongson\projects\ls1d_ucos\Func/TimeDate.c:9
	day		= 19;
bfc045b4:	3c03a000 	lui	v1,0xa000
bfc045b8:	24020013 	li	v0,19
bfc045bc:	a062107f 	sb	v0,4223(v1)
D:\loongson\projects\ls1d_ucos\Func/TimeDate.c:10
	hour	= 18;
bfc045c0:	3c03a000 	lui	v1,0xa000
bfc045c4:	24020012 	li	v0,18
bfc045c8:	a0621060 	sb	v0,4192(v1)
D:\loongson\projects\ls1d_ucos\Func/TimeDate.c:11
	minute	= 30;
bfc045cc:	3c03a000 	lui	v1,0xa000
bfc045d0:	2402001e 	li	v0,30
bfc045d4:	a062103c 	sb	v0,4156(v1)
D:\loongson\projects\ls1d_ucos\Func/TimeDate.c:12
	second	= 00;
bfc045d8:	3c02a000 	lui	v0,0xa000
bfc045dc:	a0401034 	sb	zero,4148(v0)
D:\loongson\projects\ls1d_ucos\Func/TimeDate.c:13
}
bfc045e0:	03c0e821 	move	sp,s8
bfc045e4:	8fbe0004 	lw	s8,4(sp)
bfc045e8:	27bd0008 	addiu	sp,sp,8
bfc045ec:	03e00008 	jr	ra
bfc045f0:	00000000 	nop

bfc045f4 <IsLeap>:
IsLeap():
D:\loongson\projects\ls1d_ucos\Func/TimeDate.c:18

/// 能被4整除且又能不能被 100 整除 是闰年 能  直接被400整除也是闰年
/// 做 求余 操作 %,应该不涉及到浮点寄存器，通过反汇编分析没发现诸如 $fx之类的 。
INT8U	IsLeap (INT32U year)
{
bfc045f4:	27bdffe8 	addiu	sp,sp,-24
bfc045f8:	afbe0014 	sw	s8,20(sp)
bfc045fc:	03a0f021 	move	s8,sp
bfc04600:	afc40018 	sw	a0,24(s8)
D:\loongson\projects\ls1d_ucos\Func/TimeDate.c:19
	return ((year % 4 == 0) && (year % 100 != 0)) || (year % 400 == 0);
bfc04604:	8fc20018 	lw	v0,24(s8)
bfc04608:	30420003 	andi	v0,v0,0x3
bfc0460c:	14400013 	bnez	v0,bfc0465c <IsLeap+0x68>
bfc04610:	00000000 	nop
bfc04614:	8fc40018 	lw	a0,24(s8)
bfc04618:	3c0251eb 	lui	v0,0x51eb
bfc0461c:	3442851f 	ori	v0,v0,0x851f
bfc04620:	00820019 	multu	a0,v0
bfc04624:	00001010 	mfhi	v0
bfc04628:	00021142 	srl	v0,v0,0x5
bfc0462c:	afc20004 	sw	v0,4(s8)
bfc04630:	8fc20004 	lw	v0,4(s8)
bfc04634:	00021080 	sll	v0,v0,0x2
bfc04638:	00021880 	sll	v1,v0,0x2
bfc0463c:	00431021 	addu	v0,v0,v1
bfc04640:	00021880 	sll	v1,v0,0x2
bfc04644:	00431021 	addu	v0,v0,v1
bfc04648:	00821023 	subu	v0,a0,v0
bfc0464c:	afc20004 	sw	v0,4(s8)
bfc04650:	8fc20004 	lw	v0,4(s8)
bfc04654:	14400013 	bnez	v0,bfc046a4 <IsLeap+0xb0>
bfc04658:	00000000 	nop
bfc0465c:	8fc40018 	lw	a0,24(s8)
bfc04660:	3c0251eb 	lui	v0,0x51eb
bfc04664:	3442851f 	ori	v0,v0,0x851f
bfc04668:	00820019 	multu	a0,v0
bfc0466c:	00001010 	mfhi	v0
bfc04670:	000211c2 	srl	v0,v0,0x7
bfc04674:	afc20000 	sw	v0,0(s8)
bfc04678:	8fc20000 	lw	v0,0(s8)
bfc0467c:	00021100 	sll	v0,v0,0x4
bfc04680:	00021880 	sll	v1,v0,0x2
bfc04684:	00431021 	addu	v0,v0,v1
bfc04688:	00021880 	sll	v1,v0,0x2
bfc0468c:	00431021 	addu	v0,v0,v1
bfc04690:	00821023 	subu	v0,a0,v0
bfc04694:	afc20000 	sw	v0,0(s8)
bfc04698:	8fc20000 	lw	v0,0(s8)
bfc0469c:	14400005 	bnez	v0,bfc046b4 <IsLeap+0xc0>
bfc046a0:	00000000 	nop
bfc046a4:	24030001 	li	v1,1
bfc046a8:	afc30008 	sw	v1,8(s8)
bfc046ac:	0bf011ae 	j	bfc046b8 <IsLeap+0xc4>
bfc046b0:	00000000 	nop
bfc046b4:	afc00008 	sw	zero,8(s8)
bfc046b8:	8fc30008 	lw	v1,8(s8)
bfc046bc:	306200ff 	andi	v0,v1,0xff
D:\loongson\projects\ls1d_ucos\Func/TimeDate.c:20
}
bfc046c0:	03c0e821 	move	sp,s8
bfc046c4:	8fbe0014 	lw	s8,20(sp)
bfc046c8:	27bd0018 	addiu	sp,sp,24
bfc046cc:	03e00008 	jr	ra
bfc046d0:	00000000 	nop

bfc046d4 <SystemClock>:
SystemClock():
D:\loongson\projects\ls1d_ucos\Func/TimeDate.c:30
/// 返回TRUE 	表示OSTimeGet 处理完毕， SumTime 小于1秒
/// 返回FALSE 表示SumTime 大于1秒，仍然需要处理
/// 在一些特定的时刻，比如整小时 时间校正， 在某个日起的电压检测 ，有时候会阻塞起来，
/// 所以这里需要单独的一个任务来调用这个函数
BOOLEAN	SystemClock()
{
bfc046d4:	27bdffd0 	addiu	sp,sp,-48
bfc046d8:	afbf002c 	sw	ra,44(sp)
bfc046dc:	afbe0028 	sw	s8,40(sp)
bfc046e0:	03a0f021 	move	s8,sp
D:\loongson\projects\ls1d_ucos\Func/TimeDate.c:35
	static INT32U 	LastTime;
	static INT32U	SumTime;
	INT32U	TempTime;

	TempTime	= OSTimeGet();
bfc046e4:	3c02bfc0 	lui	v0,0xbfc0
bfc046e8:	245964fc 	addiu	t9,v0,25852
bfc046ec:	0320f809 	jalr	t9
bfc046f0:	00000000 	nop
bfc046f4:	afc20010 	sw	v0,16(s8)
D:\loongson\projects\ls1d_ucos\Func/TimeDate.c:36
	SumTime		+= TempTime - LastTime;
bfc046f8:	3c02a000 	lui	v0,0xa000
bfc046fc:	8c431114 	lw	v1,4372(v0)
bfc04700:	8fc20010 	lw	v0,16(s8)
bfc04704:	00431823 	subu	v1,v0,v1
bfc04708:	3c02a000 	lui	v0,0xa000
bfc0470c:	8c421110 	lw	v0,4368(v0)
bfc04710:	00621821 	addu	v1,v1,v0
bfc04714:	3c02a000 	lui	v0,0xa000
bfc04718:	ac431110 	sw	v1,4368(v0)
D:\loongson\projects\ls1d_ucos\Func/TimeDate.c:37
	LastTime	= TempTime;
bfc0471c:	3c03a000 	lui	v1,0xa000
bfc04720:	8fc20010 	lw	v0,16(s8)
bfc04724:	ac621114 	sw	v0,4372(v1)
D:\loongson\projects\ls1d_ucos\Func/TimeDate.c:38
	if(SumTime >= (8000000/ TIMERDLY)){								/// 1s 时间
bfc04728:	3c02a000 	lui	v0,0xa000
bfc0472c:	8c421110 	lw	v0,4368(v0)
bfc04730:	2c4201f4 	sltiu	v0,v0,500
bfc04734:	1440008f 	bnez	v0,bfc04974 <SystemClock+0x2a0>
bfc04738:	00000000 	nop
D:\loongson\projects\ls1d_ucos\Func/TimeDate.c:39
		SumTime	-= 8000000/ TIMERDLY;
bfc0473c:	3c02a000 	lui	v0,0xa000
bfc04740:	8c421110 	lw	v0,4368(v0)
bfc04744:	2443fe0c 	addiu	v1,v0,-500
bfc04748:	3c02a000 	lui	v0,0xa000
bfc0474c:	ac431110 	sw	v1,4368(v0)
D:\loongson\projects\ls1d_ucos\Func/TimeDate.c:40
		second	++;
bfc04750:	3c02a000 	lui	v0,0xa000
bfc04754:	90421034 	lbu	v0,4148(v0)
bfc04758:	304200ff 	andi	v0,v0,0xff
bfc0475c:	24420001 	addiu	v0,v0,1
bfc04760:	304300ff 	andi	v1,v0,0xff
bfc04764:	3c02a000 	lui	v0,0xa000
bfc04768:	a0431034 	sb	v1,4148(v0)
D:\loongson\projects\ls1d_ucos\Func/TimeDate.c:41
		VoltageCtrl();								/// 每1秒种进行一次电压采样，是不是一有些 频繁了？？
bfc0476c:	3c02bfc1 	lui	v0,0xbfc1
bfc04770:	2459816c 	addiu	t9,v0,-32404
bfc04774:	0320f809 	jalr	t9
bfc04778:	00000000 	nop
D:\loongson\projects\ls1d_ucos\Func/TimeDate.c:42
		if(second >= 60){
bfc0477c:	3c02a000 	lui	v0,0xa000
bfc04780:	90421034 	lbu	v0,4148(v0)
bfc04784:	304200ff 	andi	v0,v0,0xff
bfc04788:	2c42003c 	sltiu	v0,v0,60
bfc0478c:	14400079 	bnez	v0,bfc04974 <SystemClock+0x2a0>
bfc04790:	00000000 	nop
D:\loongson\projects\ls1d_ucos\Func/TimeDate.c:43
			second -= 60;
bfc04794:	3c02a000 	lui	v0,0xa000
bfc04798:	90421034 	lbu	v0,4148(v0)
bfc0479c:	304200ff 	andi	v0,v0,0xff
bfc047a0:	2442ffc4 	addiu	v0,v0,-60
bfc047a4:	304300ff 	andi	v1,v0,0xff
bfc047a8:	3c02a000 	lui	v0,0xa000
bfc047ac:	a0431034 	sb	v1,4148(v0)
D:\loongson\projects\ls1d_ucos\Func/TimeDate.c:44
			minute	++;
bfc047b0:	3c02a000 	lui	v0,0xa000
bfc047b4:	9042103c 	lbu	v0,4156(v0)
bfc047b8:	304200ff 	andi	v0,v0,0xff
bfc047bc:	24420001 	addiu	v0,v0,1
bfc047c0:	304300ff 	andi	v1,v0,0xff
bfc047c4:	3c02a000 	lui	v0,0xa000
bfc047c8:	a043103c 	sb	v1,4156(v0)
D:\loongson\projects\ls1d_ucos\Func/TimeDate.c:47
			//if(minute == 1)
			//	MonthlySave();
			if(minute >= 60){
bfc047cc:	3c02a000 	lui	v0,0xa000
bfc047d0:	9042103c 	lbu	v0,4156(v0)
bfc047d4:	304200ff 	andi	v0,v0,0xff
bfc047d8:	2c42003c 	sltiu	v0,v0,60
bfc047dc:	14400065 	bnez	v0,bfc04974 <SystemClock+0x2a0>
bfc047e0:	00000000 	nop
D:\loongson\projects\ls1d_ucos\Func/TimeDate.c:48
				minute -= 60;
bfc047e4:	3c02a000 	lui	v0,0xa000
bfc047e8:	9042103c 	lbu	v0,4156(v0)
bfc047ec:	304200ff 	andi	v0,v0,0xff
bfc047f0:	2442ffc4 	addiu	v0,v0,-60
bfc047f4:	304300ff 	andi	v1,v0,0xff
bfc047f8:	3c02a000 	lui	v0,0xa000
bfc047fc:	a043103c 	sb	v1,4156(v0)
D:\loongson\projects\ls1d_ucos\Func/TimeDate.c:49
				hour	++;
bfc04800:	3c02a000 	lui	v0,0xa000
bfc04804:	90421060 	lbu	v0,4192(v0)
bfc04808:	304200ff 	andi	v0,v0,0xff
bfc0480c:	24420001 	addiu	v0,v0,1
bfc04810:	304300ff 	andi	v1,v0,0xff
bfc04814:	3c02a000 	lui	v0,0xa000
bfc04818:	a0431060 	sb	v1,4192(v0)
D:\loongson\projects\ls1d_ucos\Func/TimeDate.c:50
				if(hour >= 24){
bfc0481c:	3c02a000 	lui	v0,0xa000
bfc04820:	90421060 	lbu	v0,4192(v0)
bfc04824:	304200ff 	andi	v0,v0,0xff
bfc04828:	2c420018 	sltiu	v0,v0,24
bfc0482c:	14400051 	bnez	v0,bfc04974 <SystemClock+0x2a0>
bfc04830:	00000000 	nop
D:\loongson\projects\ls1d_ucos\Func/TimeDate.c:51
					hour -= 24;
bfc04834:	3c02a000 	lui	v0,0xa000
bfc04838:	90421060 	lbu	v0,4192(v0)
bfc0483c:	304200ff 	andi	v0,v0,0xff
bfc04840:	2442ffe8 	addiu	v0,v0,-24
bfc04844:	304300ff 	andi	v1,v0,0xff
bfc04848:	3c02a000 	lui	v0,0xa000
bfc0484c:	a0431060 	sb	v1,4192(v0)
D:\loongson\projects\ls1d_ucos\Func/TimeDate.c:52
					day	++;
bfc04850:	3c02a000 	lui	v0,0xa000
bfc04854:	9042107f 	lbu	v0,4223(v0)
bfc04858:	304200ff 	andi	v0,v0,0xff
bfc0485c:	24420001 	addiu	v0,v0,1
bfc04860:	304300ff 	andi	v1,v0,0xff
bfc04864:	3c02a000 	lui	v0,0xa000
bfc04868:	a043107f 	sb	v1,4223(v0)
D:\loongson\projects\ls1d_ucos\Func/TimeDate.c:53
					if(day > (MonthDays[month] + ((month == 2) ? IsLeap(year) : 0)) ){
bfc0486c:	3c02a000 	lui	v0,0xa000
bfc04870:	9042107f 	lbu	v0,4223(v0)
bfc04874:	304200ff 	andi	v0,v0,0xff
bfc04878:	afc20020 	sw	v0,32(s8)
bfc0487c:	3c02a000 	lui	v0,0xa000
bfc04880:	9042102c 	lbu	v0,4140(v0)
bfc04884:	304200ff 	andi	v0,v0,0xff
bfc04888:	00401821 	move	v1,v0
bfc0488c:	3c02bfc1 	lui	v0,0xbfc1
bfc04890:	2442972c 	addiu	v0,v0,-26836
bfc04894:	00621021 	addu	v0,v1,v0
bfc04898:	90420000 	lbu	v0,0(v0)
bfc0489c:	afc2001c 	sw	v0,28(s8)
bfc048a0:	3c02a000 	lui	v0,0xa000
bfc048a4:	9042102c 	lbu	v0,4140(v0)
bfc048a8:	304300ff 	andi	v1,v0,0xff
bfc048ac:	24020002 	li	v0,2
bfc048b0:	1462000a 	bne	v1,v0,bfc048dc <SystemClock+0x208>
bfc048b4:	00000000 	nop
bfc048b8:	3c02a000 	lui	v0,0xa000
bfc048bc:	9042107e 	lbu	v0,4222(v0)
bfc048c0:	304200ff 	andi	v0,v0,0xff
bfc048c4:	00402021 	move	a0,v0
bfc048c8:	0ff0117d 	jal	bfc045f4 <IsLeap>
bfc048cc:	00000000 	nop
bfc048d0:	afc20018 	sw	v0,24(s8)
bfc048d4:	0bf01238 	j	bfc048e0 <SystemClock+0x20c>
bfc048d8:	00000000 	nop
bfc048dc:	afc00018 	sw	zero,24(s8)
bfc048e0:	8fc3001c 	lw	v1,28(s8)
bfc048e4:	8fc40018 	lw	a0,24(s8)
bfc048e8:	00641021 	addu	v0,v1,a0
bfc048ec:	8fc30020 	lw	v1,32(s8)
bfc048f0:	0043102a 	slt	v0,v0,v1
bfc048f4:	1040001f 	beqz	v0,bfc04974 <SystemClock+0x2a0>
bfc048f8:	00000000 	nop
D:\loongson\projects\ls1d_ucos\Func/TimeDate.c:54
						day	= 1;
bfc048fc:	3c03a000 	lui	v1,0xa000
bfc04900:	24020001 	li	v0,1
bfc04904:	a062107f 	sb	v0,4223(v1)
D:\loongson\projects\ls1d_ucos\Func/TimeDate.c:55
						month ++;
bfc04908:	3c02a000 	lui	v0,0xa000
bfc0490c:	9042102c 	lbu	v0,4140(v0)
bfc04910:	304200ff 	andi	v0,v0,0xff
bfc04914:	24420001 	addiu	v0,v0,1
bfc04918:	304300ff 	andi	v1,v0,0xff
bfc0491c:	3c02a000 	lui	v0,0xa000
bfc04920:	a043102c 	sb	v1,4140(v0)
D:\loongson\projects\ls1d_ucos\Func/TimeDate.c:56
						if(month >= 13){
bfc04924:	3c02a000 	lui	v0,0xa000
bfc04928:	9042102c 	lbu	v0,4140(v0)
bfc0492c:	304200ff 	andi	v0,v0,0xff
bfc04930:	2c42000d 	sltiu	v0,v0,13
bfc04934:	1440000f 	bnez	v0,bfc04974 <SystemClock+0x2a0>
bfc04938:	00000000 	nop
D:\loongson\projects\ls1d_ucos\Func/TimeDate.c:57
							month -= 12;
bfc0493c:	3c02a000 	lui	v0,0xa000
bfc04940:	9042102c 	lbu	v0,4140(v0)
bfc04944:	304200ff 	andi	v0,v0,0xff
bfc04948:	2442fff4 	addiu	v0,v0,-12
bfc0494c:	304300ff 	andi	v1,v0,0xff
bfc04950:	3c02a000 	lui	v0,0xa000
bfc04954:	a043102c 	sb	v1,4140(v0)
D:\loongson\projects\ls1d_ucos\Func/TimeDate.c:58
							year ++;
bfc04958:	3c02a000 	lui	v0,0xa000
bfc0495c:	9042107e 	lbu	v0,4222(v0)
bfc04960:	304200ff 	andi	v0,v0,0xff
bfc04964:	24420001 	addiu	v0,v0,1
bfc04968:	304300ff 	andi	v1,v0,0xff
bfc0496c:	3c02a000 	lui	v0,0xa000
bfc04970:	a043107e 	sb	v1,4222(v0)
D:\loongson\projects\ls1d_ucos\Func/TimeDate.c:65
					}
				}
			}
		}
	}
	return (SumTime < (8000000/ TIMERDLY) );
bfc04974:	3c02a000 	lui	v0,0xa000
bfc04978:	8c421110 	lw	v0,4368(v0)
bfc0497c:	2c4201f4 	sltiu	v0,v0,500
D:\loongson\projects\ls1d_ucos\Func/TimeDate.c:66
}
bfc04980:	03c0e821 	move	sp,s8
bfc04984:	8fbf002c 	lw	ra,44(sp)
bfc04988:	8fbe0028 	lw	s8,40(sp)
bfc0498c:	27bd0030 	addiu	sp,sp,48
bfc04990:	03e00008 	jr	ra
bfc04994:	00000000 	nop
bfc04998:	00000000 	nop
bfc0499c:	00000000 	nop

bfc049a0 <OSSemCreate>:
OSSemCreate():
D:\loongson\projects\ls1d_ucos\source/os_sem.c:84
*              == (void *)0  if no event control blocks were available
*********************************************************************************************************
*/

OS_EVENT  *OSSemCreate (INT16U cnt)
{
bfc049a0:	27bdffd8 	addiu	sp,sp,-40
bfc049a4:	afbf0024 	sw	ra,36(sp)
bfc049a8:	afbe0020 	sw	s8,32(sp)
bfc049ac:	03a0f021 	move	s8,sp
bfc049b0:	00801021 	move	v0,a0
bfc049b4:	a7c20028 	sh	v0,40(s8)
D:\loongson\projects\ls1d_ucos\source/os_sem.c:91
    OS_CPU_SR  cpu_sr;
#endif
    OS_EVENT  *pevent;


    if (OSIntNesting > 0) {                                /* See if called from ISR ...               */
bfc049b8:	3c02a000 	lui	v0,0xa000
bfc049bc:	90421098 	lbu	v0,4248(v0)
bfc049c0:	10400004 	beqz	v0,bfc049d4 <OSSemCreate+0x34>
bfc049c4:	00000000 	nop
D:\loongson\projects\ls1d_ucos\source/os_sem.c:92
        return ((OS_EVENT *)0);                            /* ... can't CREATE from an ISR             */
bfc049c8:	afc00018 	sw	zero,24(s8)
bfc049cc:	0bf0129e 	j	bfc04a78 <OSSemCreate+0xd8>
bfc049d0:	00000000 	nop
D:\loongson\projects\ls1d_ucos\source/os_sem.c:94
    }
    OS_ENTER_CRITICAL();
bfc049d4:	3c02bfc0 	lui	v0,0xbfc0
bfc049d8:	245973f0 	addiu	t9,v0,29680
bfc049dc:	0320f809 	jalr	t9
bfc049e0:	00000000 	nop
bfc049e4:	afc20014 	sw	v0,20(s8)
D:\loongson\projects\ls1d_ucos\source/os_sem.c:95
    pevent = OSEventFreeList;                              /* Get next free event control block        */
bfc049e8:	3c02a000 	lui	v0,0xa000
bfc049ec:	8c421080 	lw	v0,4224(v0)
bfc049f0:	afc20010 	sw	v0,16(s8)
D:\loongson\projects\ls1d_ucos\source/os_sem.c:96
    if (OSEventFreeList != (OS_EVENT *)0) {                /* See if pool of free ECB pool was empty   */
bfc049f4:	3c02a000 	lui	v0,0xa000
bfc049f8:	8c421080 	lw	v0,4224(v0)
bfc049fc:	10400007 	beqz	v0,bfc04a1c <OSSemCreate+0x7c>
bfc04a00:	00000000 	nop
D:\loongson\projects\ls1d_ucos\source/os_sem.c:97
        OSEventFreeList = (OS_EVENT *)OSEventFreeList->OSEventPtr;
bfc04a04:	3c02a000 	lui	v0,0xa000
bfc04a08:	8c421080 	lw	v0,4224(v0)
bfc04a0c:	8c420004 	lw	v0,4(v0)
bfc04a10:	00401821 	move	v1,v0
bfc04a14:	3c02a000 	lui	v0,0xa000
bfc04a18:	ac431080 	sw	v1,4224(v0)
D:\loongson\projects\ls1d_ucos\source/os_sem.c:99
    }
    OS_EXIT_CRITICAL();
bfc04a1c:	8fc40014 	lw	a0,20(s8)
bfc04a20:	3c02bfc0 	lui	v0,0xbfc0
bfc04a24:	24597408 	addiu	t9,v0,29704
bfc04a28:	0320f809 	jalr	t9
bfc04a2c:	00000000 	nop
D:\loongson\projects\ls1d_ucos\source/os_sem.c:100
    if (pevent != (OS_EVENT *)0) {                         /* Get an event control block               */
bfc04a30:	8fc20010 	lw	v0,16(s8)
bfc04a34:	1040000e 	beqz	v0,bfc04a70 <OSSemCreate+0xd0>
bfc04a38:	00000000 	nop
D:\loongson\projects\ls1d_ucos\source/os_sem.c:101
        pevent->OSEventType = OS_EVENT_TYPE_SEM;
bfc04a3c:	8fc30010 	lw	v1,16(s8)
bfc04a40:	24020003 	li	v0,3
bfc04a44:	a0620000 	sb	v0,0(v1)
D:\loongson\projects\ls1d_ucos\source/os_sem.c:102
        pevent->OSEventCnt  = cnt;                         /* Set semaphore value                      */
bfc04a48:	8fc30010 	lw	v1,16(s8)
bfc04a4c:	97c20028 	lhu	v0,40(s8)
bfc04a50:	a4620002 	sh	v0,2(v1)
D:\loongson\projects\ls1d_ucos\source/os_sem.c:103
        pevent->OSEventPtr  = (void *)0;                   /* Unlink from ECB free list                */
bfc04a54:	8fc20010 	lw	v0,16(s8)
bfc04a58:	ac400004 	sw	zero,4(v0)
D:\loongson\projects\ls1d_ucos\source/os_sem.c:104
        OS_EventWaitListInit(pevent);                      /* Initialize to 'nobody waiting' on sem.   */
bfc04a5c:	8fc40010 	lw	a0,16(s8)
bfc04a60:	3c02bfc0 	lui	v0,0xbfc0
bfc04a64:	24595c44 	addiu	t9,v0,23620
bfc04a68:	0320f809 	jalr	t9
bfc04a6c:	00000000 	nop
D:\loongson\projects\ls1d_ucos\source/os_sem.c:106
    }
    return (pevent);
bfc04a70:	8fc20010 	lw	v0,16(s8)
bfc04a74:	afc20018 	sw	v0,24(s8)
bfc04a78:	8fc20018 	lw	v0,24(s8)
D:\loongson\projects\ls1d_ucos\source/os_sem.c:107
}
bfc04a7c:	03c0e821 	move	sp,s8
bfc04a80:	8fbf0024 	lw	ra,36(sp)
bfc04a84:	8fbe0020 	lw	s8,32(sp)
bfc04a88:	27bd0028 	addiu	sp,sp,40
bfc04a8c:	03e00008 	jr	ra
bfc04a90:	00000000 	nop

bfc04a94 <OSSemPend>:
OSSemPend():
D:\loongson\projects\ls1d_ucos\source/os_sem.c:245
* Returns    : none
*********************************************************************************************************
*/

void  OSSemPend (OS_EVENT *pevent, INT16U timeout, INT8U *err)
{
bfc04a94:	27bdffe0 	addiu	sp,sp,-32
bfc04a98:	afbf001c 	sw	ra,28(sp)
bfc04a9c:	afbe0018 	sw	s8,24(sp)
bfc04aa0:	03a0f021 	move	s8,sp
bfc04aa4:	afc40020 	sw	a0,32(s8)
bfc04aa8:	00a01021 	move	v0,a1
bfc04aac:	afc60028 	sw	a2,40(s8)
bfc04ab0:	a7c20024 	sh	v0,36(s8)
D:\loongson\projects\ls1d_ucos\source/os_sem.c:251
#if OS_CRITICAL_METHOD == 3                           /* Allocate storage for CPU status register      */
    OS_CPU_SR  cpu_sr;
#endif


    if (OSIntNesting > 0) {                           /* See if called from ISR ...                    */
bfc04ab4:	3c02a000 	lui	v0,0xa000
bfc04ab8:	90421098 	lbu	v0,4248(v0)
bfc04abc:	10400006 	beqz	v0,bfc04ad8 <OSSemPend+0x44>
bfc04ac0:	00000000 	nop
D:\loongson\projects\ls1d_ucos\source/os_sem.c:252
        *err = OS_ERR_PEND_ISR;                       /* ... can't PEND from an ISR                    */
bfc04ac4:	8fc30028 	lw	v1,40(s8)
bfc04ac8:	24020002 	li	v0,2
bfc04acc:	a0620000 	sb	v0,0(v1)
bfc04ad0:	0bf0130d 	j	bfc04c34 <OSSemPend+0x1a0>
bfc04ad4:	00000000 	nop
D:\loongson\projects\ls1d_ucos\source/os_sem.c:265
    if (pevent->OSEventType != OS_EVENT_TYPE_SEM) {   /* Validate event block type                     */
        *err = OS_ERR_EVENT_TYPE;
        return;
    }
#endif
    OS_ENTER_CRITICAL();
bfc04ad8:	3c02bfc0 	lui	v0,0xbfc0
bfc04adc:	245973f0 	addiu	t9,v0,29680
bfc04ae0:	0320f809 	jalr	t9
bfc04ae4:	00000000 	nop
bfc04ae8:	afc20010 	sw	v0,16(s8)
D:\loongson\projects\ls1d_ucos\source/os_sem.c:266
    if (pevent->OSEventCnt > 0) {                     /* If sem. is positive, resource available ...   */
bfc04aec:	8fc20020 	lw	v0,32(s8)
bfc04af0:	94420002 	lhu	v0,2(v0)
bfc04af4:	10400010 	beqz	v0,bfc04b38 <OSSemPend+0xa4>
bfc04af8:	00000000 	nop
D:\loongson\projects\ls1d_ucos\source/os_sem.c:267
        pevent->OSEventCnt--;                         /* ... decrement semaphore only if positive.     */
bfc04afc:	8fc20020 	lw	v0,32(s8)
bfc04b00:	94420002 	lhu	v0,2(v0)
bfc04b04:	2442ffff 	addiu	v0,v0,-1
bfc04b08:	3043ffff 	andi	v1,v0,0xffff
bfc04b0c:	8fc20020 	lw	v0,32(s8)
bfc04b10:	a4430002 	sh	v1,2(v0)
D:\loongson\projects\ls1d_ucos\source/os_sem.c:268
        OS_EXIT_CRITICAL();
bfc04b14:	8fc40010 	lw	a0,16(s8)
bfc04b18:	3c02bfc0 	lui	v0,0xbfc0
bfc04b1c:	24597408 	addiu	t9,v0,29704
bfc04b20:	0320f809 	jalr	t9
bfc04b24:	00000000 	nop
D:\loongson\projects\ls1d_ucos\source/os_sem.c:269
        *err = OS_NO_ERR;
bfc04b28:	8fc20028 	lw	v0,40(s8)
bfc04b2c:	a0400000 	sb	zero,0(v0)
bfc04b30:	0bf0130d 	j	bfc04c34 <OSSemPend+0x1a0>
bfc04b34:	00000000 	nop
D:\loongson\projects\ls1d_ucos\source/os_sem.c:273
        return;
    }
                                                      /* Otherwise, must wait until event occurs       */
    OSTCBCur->OSTCBStat |= OS_STAT_SEM;               /* Resource not available, pend on semaphore     */
bfc04b38:	3c02a000 	lui	v0,0xa000
bfc04b3c:	8c4310a0 	lw	v1,4256(v0)
bfc04b40:	3c02a000 	lui	v0,0xa000
bfc04b44:	8c4210a0 	lw	v0,4256(v0)
bfc04b48:	90420016 	lbu	v0,22(v0)
bfc04b4c:	34420001 	ori	v0,v0,0x1
bfc04b50:	304200ff 	andi	v0,v0,0xff
bfc04b54:	a0620016 	sb	v0,22(v1)
D:\loongson\projects\ls1d_ucos\source/os_sem.c:274
    OSTCBCur->OSTCBDly   = timeout;                   /* Store pend timeout in TCB                     */
bfc04b58:	3c02a000 	lui	v0,0xa000
bfc04b5c:	8c4310a0 	lw	v1,4256(v0)
bfc04b60:	97c20024 	lhu	v0,36(s8)
bfc04b64:	a4620014 	sh	v0,20(v1)
D:\loongson\projects\ls1d_ucos\source/os_sem.c:275
    OS_EventTaskWait(pevent);                         /* Suspend task until event or timeout occurs    */
bfc04b68:	8fc40020 	lw	a0,32(s8)
bfc04b6c:	3c02bfc0 	lui	v0,0xbfc0
bfc04b70:	245959c0 	addiu	t9,v0,22976
bfc04b74:	0320f809 	jalr	t9
bfc04b78:	00000000 	nop
D:\loongson\projects\ls1d_ucos\source/os_sem.c:276
    OS_EXIT_CRITICAL();
bfc04b7c:	8fc40010 	lw	a0,16(s8)
bfc04b80:	3c02bfc0 	lui	v0,0xbfc0
bfc04b84:	24597408 	addiu	t9,v0,29704
bfc04b88:	0320f809 	jalr	t9
bfc04b8c:	00000000 	nop
D:\loongson\projects\ls1d_ucos\source/os_sem.c:277
    OS_Sched();                                       /* Find next highest priority task ready         */
bfc04b90:	3c02bfc0 	lui	v0,0xbfc0
bfc04b94:	24595fcc 	addiu	t9,v0,24524
bfc04b98:	0320f809 	jalr	t9
bfc04b9c:	00000000 	nop
D:\loongson\projects\ls1d_ucos\source/os_sem.c:278
    OS_ENTER_CRITICAL();
bfc04ba0:	3c02bfc0 	lui	v0,0xbfc0
bfc04ba4:	245973f0 	addiu	t9,v0,29680
bfc04ba8:	0320f809 	jalr	t9
bfc04bac:	00000000 	nop
bfc04bb0:	afc20010 	sw	v0,16(s8)
D:\loongson\projects\ls1d_ucos\source/os_sem.c:279
    if (OSTCBCur->OSTCBStat & OS_STAT_SEM) {          /* Must have timed out if still waiting for event*/
bfc04bb4:	3c02a000 	lui	v0,0xa000
bfc04bb8:	8c4210a0 	lw	v0,4256(v0)
bfc04bbc:	90420016 	lbu	v0,22(v0)
bfc04bc0:	30420001 	andi	v0,v0,0x1
bfc04bc4:	304200ff 	andi	v0,v0,0xff
bfc04bc8:	10400010 	beqz	v0,bfc04c0c <OSSemPend+0x178>
bfc04bcc:	00000000 	nop
D:\loongson\projects\ls1d_ucos\source/os_sem.c:280
        OS_EventTO(pevent);
bfc04bd0:	8fc40020 	lw	a0,32(s8)
bfc04bd4:	3c02bfc0 	lui	v0,0xbfc0
bfc04bd8:	24595b3c 	addiu	t9,v0,23356
bfc04bdc:	0320f809 	jalr	t9
bfc04be0:	00000000 	nop
D:\loongson\projects\ls1d_ucos\source/os_sem.c:281
        OS_EXIT_CRITICAL();
bfc04be4:	8fc40010 	lw	a0,16(s8)
bfc04be8:	3c02bfc0 	lui	v0,0xbfc0
bfc04bec:	24597408 	addiu	t9,v0,29704
bfc04bf0:	0320f809 	jalr	t9
bfc04bf4:	00000000 	nop
D:\loongson\projects\ls1d_ucos\source/os_sem.c:282
        *err = OS_TIMEOUT;                            /* Indicate that didn't get event within TO      */
bfc04bf8:	8fc30028 	lw	v1,40(s8)
bfc04bfc:	2402000a 	li	v0,10
bfc04c00:	a0620000 	sb	v0,0(v1)
bfc04c04:	0bf0130d 	j	bfc04c34 <OSSemPend+0x1a0>
bfc04c08:	00000000 	nop
D:\loongson\projects\ls1d_ucos\source/os_sem.c:285
        return;
    }
    OSTCBCur->OSTCBEventPtr = (OS_EVENT *)0;
bfc04c0c:	3c02a000 	lui	v0,0xa000
bfc04c10:	8c4210a0 	lw	v0,4256(v0)
bfc04c14:	ac40000c 	sw	zero,12(v0)
D:\loongson\projects\ls1d_ucos\source/os_sem.c:286
    OS_EXIT_CRITICAL();
bfc04c18:	8fc40010 	lw	a0,16(s8)
bfc04c1c:	3c02bfc0 	lui	v0,0xbfc0
bfc04c20:	24597408 	addiu	t9,v0,29704
bfc04c24:	0320f809 	jalr	t9
bfc04c28:	00000000 	nop
D:\loongson\projects\ls1d_ucos\source/os_sem.c:287
    *err = OS_NO_ERR;
bfc04c2c:	8fc20028 	lw	v0,40(s8)
bfc04c30:	a0400000 	sb	zero,0(v0)
D:\loongson\projects\ls1d_ucos\source/os_sem.c:288
}
bfc04c34:	03c0e821 	move	sp,s8
bfc04c38:	8fbf001c 	lw	ra,28(sp)
bfc04c3c:	8fbe0018 	lw	s8,24(sp)
bfc04c40:	27bd0020 	addiu	sp,sp,32
bfc04c44:	03e00008 	jr	ra
bfc04c48:	00000000 	nop

bfc04c4c <OSSemPost>:
OSSemPost():
D:\loongson\projects\ls1d_ucos\source/os_sem.c:309
*              OS_ERR_PEVENT_NULL  If 'pevent' is a NULL pointer.
*********************************************************************************************************
*/

INT8U  OSSemPost (OS_EVENT *pevent)
{
bfc04c4c:	27bdffd8 	addiu	sp,sp,-40
bfc04c50:	afbf0024 	sw	ra,36(sp)
bfc04c54:	afbe0020 	sw	s8,32(sp)
bfc04c58:	03a0f021 	move	s8,sp
bfc04c5c:	afc40028 	sw	a0,40(s8)
D:\loongson\projects\ls1d_ucos\source/os_sem.c:323
    }
    if (pevent->OSEventType != OS_EVENT_TYPE_SEM) {        /* Validate event block type                */
        return (OS_ERR_EVENT_TYPE);
    }
#endif
    OS_ENTER_CRITICAL();
bfc04c60:	3c02bfc0 	lui	v0,0xbfc0
bfc04c64:	245973f0 	addiu	t9,v0,29680
bfc04c68:	0320f809 	jalr	t9
bfc04c6c:	00000000 	nop
bfc04c70:	afc20010 	sw	v0,16(s8)
D:\loongson\projects\ls1d_ucos\source/os_sem.c:324
    if (pevent->OSEventGrp != 0x00) {                      /* See if any task waiting for semaphore    */
bfc04c74:	8fc20028 	lw	v0,40(s8)
bfc04c78:	90420001 	lbu	v0,1(v0)
bfc04c7c:	10400014 	beqz	v0,bfc04cd0 <OSSemPost+0x84>
bfc04c80:	00000000 	nop
D:\loongson\projects\ls1d_ucos\source/os_sem.c:325
        OS_EventTaskRdy(pevent, (void *)0, OS_STAT_SEM);   /* Ready highest prio task waiting on event */
bfc04c84:	8fc40028 	lw	a0,40(s8)
bfc04c88:	00002821 	move	a1,zero
bfc04c8c:	24060001 	li	a2,1
bfc04c90:	3c02bfc0 	lui	v0,0xbfc0
bfc04c94:	2459579c 	addiu	t9,v0,22428
bfc04c98:	0320f809 	jalr	t9
bfc04c9c:	00000000 	nop
D:\loongson\projects\ls1d_ucos\source/os_sem.c:326
        OS_EXIT_CRITICAL();
bfc04ca0:	8fc40010 	lw	a0,16(s8)
bfc04ca4:	3c02bfc0 	lui	v0,0xbfc0
bfc04ca8:	24597408 	addiu	t9,v0,29704
bfc04cac:	0320f809 	jalr	t9
bfc04cb0:	00000000 	nop
D:\loongson\projects\ls1d_ucos\source/os_sem.c:327
        OS_Sched();                                        /* Find highest priority task ready to run  */
bfc04cb4:	3c02bfc0 	lui	v0,0xbfc0
bfc04cb8:	24595fcc 	addiu	t9,v0,24524
bfc04cbc:	0320f809 	jalr	t9
bfc04cc0:	00000000 	nop
D:\loongson\projects\ls1d_ucos\source/os_sem.c:328
        return (OS_NO_ERR);
bfc04cc4:	afc00018 	sw	zero,24(s8)
bfc04cc8:	0bf0134e 	j	bfc04d38 <OSSemPost+0xec>
bfc04ccc:	00000000 	nop
D:\loongson\projects\ls1d_ucos\source/os_sem.c:330
    }
    if (pevent->OSEventCnt < 65535) {                 /* Make sure semaphore will not overflow         */
bfc04cd0:	8fc20028 	lw	v0,40(s8)
bfc04cd4:	94430002 	lhu	v1,2(v0)
bfc04cd8:	3402ffff 	li	v0,0xffff
bfc04cdc:	1062000f 	beq	v1,v0,bfc04d1c <OSSemPost+0xd0>
bfc04ce0:	00000000 	nop
D:\loongson\projects\ls1d_ucos\source/os_sem.c:331
        pevent->OSEventCnt++;                         /* Increment semaphore count to register event   */
bfc04ce4:	8fc20028 	lw	v0,40(s8)
bfc04ce8:	94420002 	lhu	v0,2(v0)
bfc04cec:	24420001 	addiu	v0,v0,1
bfc04cf0:	3043ffff 	andi	v1,v0,0xffff
bfc04cf4:	8fc20028 	lw	v0,40(s8)
bfc04cf8:	a4430002 	sh	v1,2(v0)
D:\loongson\projects\ls1d_ucos\source/os_sem.c:332
        OS_EXIT_CRITICAL();
bfc04cfc:	8fc40010 	lw	a0,16(s8)
bfc04d00:	3c02bfc0 	lui	v0,0xbfc0
bfc04d04:	24597408 	addiu	t9,v0,29704
bfc04d08:	0320f809 	jalr	t9
bfc04d0c:	00000000 	nop
D:\loongson\projects\ls1d_ucos\source/os_sem.c:333
        return (OS_NO_ERR);
bfc04d10:	afc00018 	sw	zero,24(s8)
bfc04d14:	0bf0134e 	j	bfc04d38 <OSSemPost+0xec>
bfc04d18:	00000000 	nop
D:\loongson\projects\ls1d_ucos\source/os_sem.c:335
    }
    OS_EXIT_CRITICAL();                               /* Semaphore value has reached its maximum       */
bfc04d1c:	8fc40010 	lw	a0,16(s8)
bfc04d20:	3c02bfc0 	lui	v0,0xbfc0
bfc04d24:	24597408 	addiu	t9,v0,29704
bfc04d28:	0320f809 	jalr	t9
bfc04d2c:	00000000 	nop
D:\loongson\projects\ls1d_ucos\source/os_sem.c:336
    return (OS_SEM_OVF);
bfc04d30:	24020032 	li	v0,50
bfc04d34:	afc20018 	sw	v0,24(s8)
bfc04d38:	8fc20018 	lw	v0,24(s8)
D:\loongson\projects\ls1d_ucos\source/os_sem.c:337
}
bfc04d3c:	03c0e821 	move	sp,s8
bfc04d40:	8fbf0024 	lw	ra,36(sp)
bfc04d44:	8fbe0020 	lw	s8,32(sp)
bfc04d48:	27bd0028 	addiu	sp,sp,40
bfc04d4c:	03e00008 	jr	ra
bfc04d50:	00000000 	nop

bfc04d54 <OSSemQuery>:
OSSemQuery():
D:\loongson\projects\ls1d_ucos\source/os_sem.c:359
*********************************************************************************************************
*/

#if OS_SEM_QUERY_EN > 0
INT8U  OSSemQuery (OS_EVENT *pevent, OS_SEM_DATA *pdata)
{
bfc04d54:	27bdffd8 	addiu	sp,sp,-40
bfc04d58:	afbf0024 	sw	ra,36(sp)
bfc04d5c:	afbe0020 	sw	s8,32(sp)
bfc04d60:	03a0f021 	move	s8,sp
bfc04d64:	afc40028 	sw	a0,40(s8)
bfc04d68:	afc5002c 	sw	a1,44(s8)
D:\loongson\projects\ls1d_ucos\source/os_sem.c:375
    }
    if (pevent->OSEventType != OS_EVENT_TYPE_SEM) {        /* Validate event block type                */
        return (OS_ERR_EVENT_TYPE);
    }
#endif
    OS_ENTER_CRITICAL();
bfc04d6c:	3c02bfc0 	lui	v0,0xbfc0
bfc04d70:	245973f0 	addiu	t9,v0,29680
bfc04d74:	0320f809 	jalr	t9
bfc04d78:	00000000 	nop
bfc04d7c:	afc20018 	sw	v0,24(s8)
D:\loongson\projects\ls1d_ucos\source/os_sem.c:376
    pdata->OSEventGrp = pevent->OSEventGrp;                /* Copy message mailbox wait list           */
bfc04d80:	8fc20028 	lw	v0,40(s8)
bfc04d84:	90430001 	lbu	v1,1(v0)
bfc04d88:	8fc2002c 	lw	v0,44(s8)
bfc04d8c:	a043000a 	sb	v1,10(v0)
D:\loongson\projects\ls1d_ucos\source/os_sem.c:377
    psrc              = &pevent->OSEventTbl[0];
bfc04d90:	8fc20028 	lw	v0,40(s8)
bfc04d94:	24420008 	addiu	v0,v0,8
bfc04d98:	afc20014 	sw	v0,20(s8)
D:\loongson\projects\ls1d_ucos\source/os_sem.c:378
    pdest             = &pdata->OSEventTbl[0];
bfc04d9c:	8fc2002c 	lw	v0,44(s8)
bfc04da0:	24420002 	addiu	v0,v0,2
bfc04da4:	afc20010 	sw	v0,16(s8)
D:\loongson\projects\ls1d_ucos\source/os_sem.c:380
#if OS_EVENT_TBL_SIZE > 0
    *pdest++          = *psrc++;
bfc04da8:	8fc20014 	lw	v0,20(s8)
bfc04dac:	90430000 	lbu	v1,0(v0)
bfc04db0:	8fc20010 	lw	v0,16(s8)
bfc04db4:	a0430000 	sb	v1,0(v0)
bfc04db8:	8fc20010 	lw	v0,16(s8)
bfc04dbc:	24420001 	addiu	v0,v0,1
bfc04dc0:	afc20010 	sw	v0,16(s8)
bfc04dc4:	8fc20014 	lw	v0,20(s8)
bfc04dc8:	24420001 	addiu	v0,v0,1
bfc04dcc:	afc20014 	sw	v0,20(s8)
D:\loongson\projects\ls1d_ucos\source/os_sem.c:384
#endif

#if OS_EVENT_TBL_SIZE > 1
    *pdest++          = *psrc++;
bfc04dd0:	8fc20014 	lw	v0,20(s8)
bfc04dd4:	90430000 	lbu	v1,0(v0)
bfc04dd8:	8fc20010 	lw	v0,16(s8)
bfc04ddc:	a0430000 	sb	v1,0(v0)
bfc04de0:	8fc20010 	lw	v0,16(s8)
bfc04de4:	24420001 	addiu	v0,v0,1
bfc04de8:	afc20010 	sw	v0,16(s8)
bfc04dec:	8fc20014 	lw	v0,20(s8)
bfc04df0:	24420001 	addiu	v0,v0,1
bfc04df4:	afc20014 	sw	v0,20(s8)
D:\loongson\projects\ls1d_ucos\source/os_sem.c:388
#endif

#if OS_EVENT_TBL_SIZE > 2
    *pdest++          = *psrc++;
bfc04df8:	8fc20014 	lw	v0,20(s8)
bfc04dfc:	90430000 	lbu	v1,0(v0)
bfc04e00:	8fc20010 	lw	v0,16(s8)
bfc04e04:	a0430000 	sb	v1,0(v0)
bfc04e08:	8fc20010 	lw	v0,16(s8)
bfc04e0c:	24420001 	addiu	v0,v0,1
bfc04e10:	afc20010 	sw	v0,16(s8)
bfc04e14:	8fc20014 	lw	v0,20(s8)
bfc04e18:	24420001 	addiu	v0,v0,1
bfc04e1c:	afc20014 	sw	v0,20(s8)
D:\loongson\projects\ls1d_ucos\source/os_sem.c:392
#endif

#if OS_EVENT_TBL_SIZE > 3
    *pdest++          = *psrc++;
bfc04e20:	8fc20014 	lw	v0,20(s8)
bfc04e24:	90430000 	lbu	v1,0(v0)
bfc04e28:	8fc20010 	lw	v0,16(s8)
bfc04e2c:	a0430000 	sb	v1,0(v0)
bfc04e30:	8fc20010 	lw	v0,16(s8)
bfc04e34:	24420001 	addiu	v0,v0,1
bfc04e38:	afc20010 	sw	v0,16(s8)
bfc04e3c:	8fc20014 	lw	v0,20(s8)
bfc04e40:	24420001 	addiu	v0,v0,1
bfc04e44:	afc20014 	sw	v0,20(s8)
D:\loongson\projects\ls1d_ucos\source/os_sem.c:396
#endif

#if OS_EVENT_TBL_SIZE > 4
    *pdest++          = *psrc++;
bfc04e48:	8fc20014 	lw	v0,20(s8)
bfc04e4c:	90430000 	lbu	v1,0(v0)
bfc04e50:	8fc20010 	lw	v0,16(s8)
bfc04e54:	a0430000 	sb	v1,0(v0)
bfc04e58:	8fc20010 	lw	v0,16(s8)
bfc04e5c:	24420001 	addiu	v0,v0,1
bfc04e60:	afc20010 	sw	v0,16(s8)
bfc04e64:	8fc20014 	lw	v0,20(s8)
bfc04e68:	24420001 	addiu	v0,v0,1
bfc04e6c:	afc20014 	sw	v0,20(s8)
D:\loongson\projects\ls1d_ucos\source/os_sem.c:400
#endif

#if OS_EVENT_TBL_SIZE > 5
    *pdest++          = *psrc++;
bfc04e70:	8fc20014 	lw	v0,20(s8)
bfc04e74:	90430000 	lbu	v1,0(v0)
bfc04e78:	8fc20010 	lw	v0,16(s8)
bfc04e7c:	a0430000 	sb	v1,0(v0)
bfc04e80:	8fc20010 	lw	v0,16(s8)
bfc04e84:	24420001 	addiu	v0,v0,1
bfc04e88:	afc20010 	sw	v0,16(s8)
bfc04e8c:	8fc20014 	lw	v0,20(s8)
bfc04e90:	24420001 	addiu	v0,v0,1
bfc04e94:	afc20014 	sw	v0,20(s8)
D:\loongson\projects\ls1d_ucos\source/os_sem.c:404
#endif

#if OS_EVENT_TBL_SIZE > 6
    *pdest++          = *psrc++;
bfc04e98:	8fc20014 	lw	v0,20(s8)
bfc04e9c:	90430000 	lbu	v1,0(v0)
bfc04ea0:	8fc20010 	lw	v0,16(s8)
bfc04ea4:	a0430000 	sb	v1,0(v0)
bfc04ea8:	8fc20010 	lw	v0,16(s8)
bfc04eac:	24420001 	addiu	v0,v0,1
bfc04eb0:	afc20010 	sw	v0,16(s8)
bfc04eb4:	8fc20014 	lw	v0,20(s8)
bfc04eb8:	24420001 	addiu	v0,v0,1
bfc04ebc:	afc20014 	sw	v0,20(s8)
D:\loongson\projects\ls1d_ucos\source/os_sem.c:408
#endif

#if OS_EVENT_TBL_SIZE > 7
    *pdest            = *psrc;
bfc04ec0:	8fc20014 	lw	v0,20(s8)
bfc04ec4:	90430000 	lbu	v1,0(v0)
bfc04ec8:	8fc20010 	lw	v0,16(s8)
bfc04ecc:	a0430000 	sb	v1,0(v0)
D:\loongson\projects\ls1d_ucos\source/os_sem.c:410
#endif
    pdata->OSCnt      = pevent->OSEventCnt;                /* Get semaphore count                      */
bfc04ed0:	8fc20028 	lw	v0,40(s8)
bfc04ed4:	94430002 	lhu	v1,2(v0)
bfc04ed8:	8fc2002c 	lw	v0,44(s8)
bfc04edc:	a4430000 	sh	v1,0(v0)
D:\loongson\projects\ls1d_ucos\source/os_sem.c:411
    OS_EXIT_CRITICAL();
bfc04ee0:	8fc40018 	lw	a0,24(s8)
bfc04ee4:	3c02bfc0 	lui	v0,0xbfc0
bfc04ee8:	24597408 	addiu	t9,v0,29704
bfc04eec:	0320f809 	jalr	t9
bfc04ef0:	00000000 	nop
D:\loongson\projects\ls1d_ucos\source/os_sem.c:412
    return (OS_NO_ERR);
bfc04ef4:	00001021 	move	v0,zero
D:\loongson\projects\ls1d_ucos\source/os_sem.c:413
}
bfc04ef8:	03c0e821 	move	sp,s8
bfc04efc:	8fbf0024 	lw	ra,36(sp)
bfc04f00:	8fbe0020 	lw	s8,32(sp)
bfc04f04:	27bd0028 	addiu	sp,sp,40
bfc04f08:	03e00008 	jr	ra
bfc04f0c:	00000000 	nop

bfc04f10 <OSTaskCreate>:
OSTaskCreate():
D:\loongson\projects\ls1d_ucos\source/os_task.c:160
*********************************************************************************************************
*/

#if OS_TASK_CREATE_EN > 0
INT8U  OSTaskCreate (void (*task)(void *pd), void *pdata, OS_STK *ptos, INT8U prio)
{
bfc04f10:	27bdffc0 	addiu	sp,sp,-64
bfc04f14:	afbf003c 	sw	ra,60(sp)
bfc04f18:	afbe0038 	sw	s8,56(sp)
bfc04f1c:	03a0f021 	move	s8,sp
bfc04f20:	afc40040 	sw	a0,64(s8)
bfc04f24:	afc50044 	sw	a1,68(s8)
bfc04f28:	afc60048 	sw	a2,72(s8)
bfc04f2c:	00e01021 	move	v0,a3
bfc04f30:	a3c2004c 	sb	v0,76(s8)
D:\loongson\projects\ls1d_ucos\source/os_task.c:173
#if OS_ARG_CHK_EN > 0
    if (prio > OS_LOWEST_PRIO) {             /* Make sure priority is within allowable range           */
        return (OS_PRIO_INVALID);
    }
#endif
    OS_ENTER_CRITICAL();
bfc04f34:	3c02bfc0 	lui	v0,0xbfc0
bfc04f38:	245973f0 	addiu	t9,v0,29680
bfc04f3c:	0320f809 	jalr	t9
bfc04f40:	00000000 	nop
bfc04f44:	afc20028 	sw	v0,40(s8)
D:\loongson\projects\ls1d_ucos\source/os_task.c:174
    if (OSTCBPrioTbl[prio] == (OS_TCB *)0) { /* Make sure task doesn't already exist at this priority  */
bfc04f48:	93c2004c 	lbu	v0,76(s8)
bfc04f4c:	00021880 	sll	v1,v0,0x2
bfc04f50:	3c02a000 	lui	v0,0xa000
bfc04f54:	00621021 	addu	v0,v1,v0
bfc04f58:	8c420000 	lw	v0,0(v0)
bfc04f5c:	14400053 	bnez	v0,bfc050ac <OSTaskCreate+0x19c>
bfc04f60:	00000000 	nop
D:\loongson\projects\ls1d_ucos\source/os_task.c:175
        OSTCBPrioTbl[prio] = (OS_TCB *)1;    /* Reserve the priority to prevent others from doing ...  */
bfc04f64:	93c2004c 	lbu	v0,76(s8)
bfc04f68:	00021880 	sll	v1,v0,0x2
bfc04f6c:	3c02a000 	lui	v0,0xa000
bfc04f70:	00621821 	addu	v1,v1,v0
bfc04f74:	24020001 	li	v0,1
bfc04f78:	ac620000 	sw	v0,0(v1)
D:\loongson\projects\ls1d_ucos\source/os_task.c:177
                                             /* ... the same thing until task is created.              */
        OS_EXIT_CRITICAL();
bfc04f7c:	8fc40028 	lw	a0,40(s8)
bfc04f80:	3c02bfc0 	lui	v0,0xbfc0
bfc04f84:	24597408 	addiu	t9,v0,29704
bfc04f88:	0320f809 	jalr	t9
bfc04f8c:	00000000 	nop
D:\loongson\projects\ls1d_ucos\source/os_task.c:178
        psp = (OS_STK *)OSTaskStkInit(task, pdata, ptos, 0);    /* Initialize the task's stack         */
bfc04f90:	8fc40040 	lw	a0,64(s8)
bfc04f94:	8fc50044 	lw	a1,68(s8)
bfc04f98:	8fc60048 	lw	a2,72(s8)
bfc04f9c:	00003821 	move	a3,zero
bfc04fa0:	3c02bfc0 	lui	v0,0xbfc0
bfc04fa4:	24596e90 	addiu	t9,v0,28304
bfc04fa8:	0320f809 	jalr	t9
bfc04fac:	00000000 	nop
bfc04fb0:	afc20024 	sw	v0,36(s8)
D:\loongson\projects\ls1d_ucos\source/os_task.c:180

        err = OS_TCBInit(prio, psp, (OS_STK *)0, 0, 0, (void *)0, 0);
bfc04fb4:	93c2004c 	lbu	v0,76(s8)
bfc04fb8:	afa00010 	sw	zero,16(sp)
bfc04fbc:	afa00014 	sw	zero,20(sp)
bfc04fc0:	afa00018 	sw	zero,24(sp)
bfc04fc4:	00402021 	move	a0,v0
bfc04fc8:	8fc50024 	lw	a1,36(s8)
bfc04fcc:	00003021 	move	a2,zero
bfc04fd0:	00003821 	move	a3,zero
bfc04fd4:	3c02bfc0 	lui	v0,0xbfc0
bfc04fd8:	24596150 	addiu	t9,v0,24912
bfc04fdc:	0320f809 	jalr	t9
bfc04fe0:	00000000 	nop
bfc04fe4:	a3c20020 	sb	v0,32(s8)
D:\loongson\projects\ls1d_ucos\source/os_task.c:181
        if (err == OS_NO_ERR) {
bfc04fe8:	93c20020 	lbu	v0,32(s8)
bfc04fec:	1440001c 	bnez	v0,bfc05060 <OSTaskCreate+0x150>
bfc04ff0:	00000000 	nop
D:\loongson\projects\ls1d_ucos\source/os_task.c:182
            OS_ENTER_CRITICAL();
bfc04ff4:	3c02bfc0 	lui	v0,0xbfc0
bfc04ff8:	245973f0 	addiu	t9,v0,29680
bfc04ffc:	0320f809 	jalr	t9
bfc05000:	00000000 	nop
bfc05004:	afc20028 	sw	v0,40(s8)
D:\loongson\projects\ls1d_ucos\source/os_task.c:183
            OSTaskCtr++;                                        /* Increment the #tasks counter        */
bfc05008:	3c02a000 	lui	v0,0xa000
bfc0500c:	90421058 	lbu	v0,4184(v0)
bfc05010:	24420001 	addiu	v0,v0,1
bfc05014:	304300ff 	andi	v1,v0,0xff
bfc05018:	3c02a000 	lui	v0,0xa000
bfc0501c:	a0431058 	sb	v1,4184(v0)
D:\loongson\projects\ls1d_ucos\source/os_task.c:184
            OS_EXIT_CRITICAL();
bfc05020:	8fc40028 	lw	a0,40(s8)
bfc05024:	3c02bfc0 	lui	v0,0xbfc0
bfc05028:	24597408 	addiu	t9,v0,29704
bfc0502c:	0320f809 	jalr	t9
bfc05030:	00000000 	nop
D:\loongson\projects\ls1d_ucos\source/os_task.c:185
            if (OSRunning == TRUE) {         /* Find highest priority task if multitasking has started */
bfc05034:	3c02a000 	lui	v0,0xa000
bfc05038:	90431002 	lbu	v1,4098(v0)
bfc0503c:	24020001 	li	v0,1
bfc05040:	14620016 	bne	v1,v0,bfc0509c <OSTaskCreate+0x18c>
bfc05044:	00000000 	nop
D:\loongson\projects\ls1d_ucos\source/os_task.c:186
                OS_Sched();
bfc05048:	3c02bfc0 	lui	v0,0xbfc0
bfc0504c:	24595fcc 	addiu	t9,v0,24524
bfc05050:	0320f809 	jalr	t9
bfc05054:	00000000 	nop
bfc05058:	0bf01427 	j	bfc0509c <OSTaskCreate+0x18c>
bfc0505c:	00000000 	nop
D:\loongson\projects\ls1d_ucos\source/os_task.c:189
            }
        } else {
            OS_ENTER_CRITICAL();
bfc05060:	3c02bfc0 	lui	v0,0xbfc0
bfc05064:	245973f0 	addiu	t9,v0,29680
bfc05068:	0320f809 	jalr	t9
bfc0506c:	00000000 	nop
bfc05070:	afc20028 	sw	v0,40(s8)
D:\loongson\projects\ls1d_ucos\source/os_task.c:190
            OSTCBPrioTbl[prio] = (OS_TCB *)0;/* Make this priority available to others                 */
bfc05074:	93c2004c 	lbu	v0,76(s8)
bfc05078:	00021880 	sll	v1,v0,0x2
bfc0507c:	3c02a000 	lui	v0,0xa000
bfc05080:	00621021 	addu	v0,v1,v0
bfc05084:	ac400000 	sw	zero,0(v0)
D:\loongson\projects\ls1d_ucos\source/os_task.c:191
            OS_EXIT_CRITICAL();
bfc05088:	8fc40028 	lw	a0,40(s8)
bfc0508c:	3c02bfc0 	lui	v0,0xbfc0
bfc05090:	24597408 	addiu	t9,v0,29704
bfc05094:	0320f809 	jalr	t9
bfc05098:	00000000 	nop
D:\loongson\projects\ls1d_ucos\source/os_task.c:193
        }
        return (err);
bfc0509c:	93c20020 	lbu	v0,32(s8)
bfc050a0:	afc20030 	sw	v0,48(s8)
bfc050a4:	0bf01432 	j	bfc050c8 <OSTaskCreate+0x1b8>
bfc050a8:	00000000 	nop
D:\loongson\projects\ls1d_ucos\source/os_task.c:195
    }
    OS_EXIT_CRITICAL();
bfc050ac:	8fc40028 	lw	a0,40(s8)
bfc050b0:	3c02bfc0 	lui	v0,0xbfc0
bfc050b4:	24597408 	addiu	t9,v0,29704
bfc050b8:	0320f809 	jalr	t9
bfc050bc:	00000000 	nop
D:\loongson\projects\ls1d_ucos\source/os_task.c:196
    return (OS_PRIO_EXIST);
bfc050c0:	24020028 	li	v0,40
bfc050c4:	afc20030 	sw	v0,48(s8)
bfc050c8:	8fc20030 	lw	v0,48(s8)
D:\loongson\projects\ls1d_ucos\source/os_task.c:197
}
bfc050cc:	03c0e821 	move	sp,s8
bfc050d0:	8fbf003c 	lw	ra,60(sp)
bfc050d4:	8fbe0038 	lw	s8,56(sp)
bfc050d8:	27bd0040 	addiu	sp,sp,64
bfc050dc:	03e00008 	jr	ra
bfc050e0:	00000000 	nop
bfc050e4:	00000000 	nop
bfc050e8:	00000000 	nop
bfc050ec:	00000000 	nop

bfc050f0 <OSInit>:
OSInit():
D:\loongson\projects\ls1d_ucos\source/os_core.c:88
*
* Returns    : none
*********************************************************************************************************
*/
void  OSInit (void)
{
bfc050f0:	27bdffe8 	addiu	sp,sp,-24
bfc050f4:	afbf0014 	sw	ra,20(sp)
bfc050f8:	afbe0010 	sw	s8,16(sp)
bfc050fc:	03a0f021 	move	s8,sp
D:\loongson\projects\ls1d_ucos\source/os_core.c:89
    OS_InitMisc();                                               /* Initialize miscellaneous variables       */
bfc05100:	3c02bfc0 	lui	v0,0xbfc0
bfc05104:	24595dbc 	addiu	t9,v0,23996
bfc05108:	0320f809 	jalr	t9
bfc0510c:	00000000 	nop
D:\loongson\projects\ls1d_ucos\source/os_core.c:91

    OS_InitMips();												 /* 初始化   wGP 跟 wSR							*/
bfc05110:	3c02bfc0 	lui	v0,0xbfc0
bfc05114:	24597414 	addiu	t9,v0,29716
bfc05118:	0320f809 	jalr	t9
bfc0511c:	00000000 	nop
D:\loongson\projects\ls1d_ucos\source/os_core.c:92
    OS_InitTimer();
bfc05120:	3c02bfc0 	lui	v0,0xbfc0
bfc05124:	24596e18 	addiu	t9,v0,28184
bfc05128:	0320f809 	jalr	t9
bfc0512c:	00000000 	nop
D:\loongson\projects\ls1d_ucos\source/os_core.c:94

    OS_InitRdyList();                                            /* Initialize the Ready List                */
bfc05130:	3c02bfc0 	lui	v0,0xbfc0
bfc05134:	24595e0c 	addiu	t9,v0,24076
bfc05138:	0320f809 	jalr	t9
bfc0513c:	00000000 	nop
D:\loongson\projects\ls1d_ucos\source/os_core.c:95
    OS_InitTCBList();                                            /* Initialize the free list of OS_TCBs      */
bfc05140:	3c02bfc0 	lui	v0,0xbfc0
bfc05144:	24595eec 	addiu	t9,v0,24300
bfc05148:	0320f809 	jalr	t9
bfc0514c:	00000000 	nop
D:\loongson\projects\ls1d_ucos\source/os_core.c:97

    OS_InitEventList();                                          /* Initialize the free list of OS_EVENTs    */
bfc05150:	3c02bfc0 	lui	v0,0xbfc0
bfc05154:	24595d10 	addiu	t9,v0,23824
bfc05158:	0320f809 	jalr	t9
bfc0515c:	00000000 	nop
D:\loongson\projects\ls1d_ucos\source/os_core.c:110
#endif

#if (OS_Q_EN > 0) && (OS_MAX_QS > 0)
    OS_QInit();                                                  /* Initialize the message queue structures  */
#endif
    OS_InitTaskIdle();                                           /* Create the Idle Task                     */
bfc05160:	3c02bfc0 	lui	v0,0xbfc0
bfc05164:	24595e9c 	addiu	t9,v0,24220
bfc05168:	0320f809 	jalr	t9
bfc0516c:	00000000 	nop
D:\loongson\projects\ls1d_ucos\source/os_core.c:115
#if OS_TASK_STAT_EN > 0
    OS_InitTaskStat();                                           /* Create the Statistic Task                */
#endif

}
bfc05170:	03c0e821 	move	sp,s8
bfc05174:	8fbf0014 	lw	ra,20(sp)
bfc05178:	8fbe0010 	lw	s8,16(sp)
bfc0517c:	27bd0018 	addiu	sp,sp,24
bfc05180:	03e00008 	jr	ra
bfc05184:	00000000 	nop

bfc05188 <OSIntEnter>:
OSIntEnter():
D:\loongson\projects\ls1d_ucos\source/os_core.c:143
*                 OSIntEnter() is always called with interrupts disabled.
*********************************************************************************************************
*/

void  OSIntEnter (void)
{
bfc05188:	27bdfff8 	addiu	sp,sp,-8
bfc0518c:	afbe0004 	sw	s8,4(sp)
bfc05190:	03a0f021 	move	s8,sp
D:\loongson\projects\ls1d_ucos\source/os_core.c:144
    if (OSRunning == TRUE) {
bfc05194:	3c02a000 	lui	v0,0xa000
bfc05198:	90431002 	lbu	v1,4098(v0)
bfc0519c:	24020001 	li	v0,1
bfc051a0:	1462000c 	bne	v1,v0,bfc051d4 <OSIntEnter+0x4c>
bfc051a4:	00000000 	nop
D:\loongson\projects\ls1d_ucos\source/os_core.c:145
        if (OSIntNesting < 255) {
bfc051a8:	3c02a000 	lui	v0,0xa000
bfc051ac:	90431098 	lbu	v1,4248(v0)
bfc051b0:	240200ff 	li	v0,255
bfc051b4:	10620007 	beq	v1,v0,bfc051d4 <OSIntEnter+0x4c>
bfc051b8:	00000000 	nop
D:\loongson\projects\ls1d_ucos\source/os_core.c:146
            OSIntNesting++;                      /* Increment ISR nesting level                        */
bfc051bc:	3c02a000 	lui	v0,0xa000
bfc051c0:	90421098 	lbu	v0,4248(v0)
bfc051c4:	24420001 	addiu	v0,v0,1
bfc051c8:	304300ff 	andi	v1,v0,0xff
bfc051cc:	3c02a000 	lui	v0,0xa000
bfc051d0:	a0431098 	sb	v1,4248(v0)
D:\loongson\projects\ls1d_ucos\source/os_core.c:149
        }
    }
}
bfc051d4:	03c0e821 	move	sp,s8
bfc051d8:	8fbe0004 	lw	s8,4(sp)
bfc051dc:	27bd0008 	addiu	sp,sp,8
bfc051e0:	03e00008 	jr	ra
bfc051e4:	00000000 	nop

bfc051e8 <OSIntExit>:
OSIntExit():
D:\loongson\projects\ls1d_ucos\source/os_core.c:171
*              2) Rescheduling is prevented when the scheduler is locked (see OS_SchedLock())
*********************************************************************************************************
*/

void  OSIntExit (void)
{
bfc051e8:	27bdffe0 	addiu	sp,sp,-32
bfc051ec:	afbf001c 	sw	ra,28(sp)
bfc051f0:	afbe0018 	sw	s8,24(sp)
bfc051f4:	03a0f021 	move	s8,sp
D:\loongson\projects\ls1d_ucos\source/os_core.c:176
#if OS_CRITICAL_METHOD == 3                                /* Allocate storage for CPU status register */
    OS_CPU_SR  cpu_sr;
#endif

    if (OSRunning == TRUE) {
bfc051f8:	3c02a000 	lui	v0,0xa000
bfc051fc:	90431002 	lbu	v1,4098(v0)
bfc05200:	24020001 	li	v0,1
bfc05204:	14620051 	bne	v1,v0,bfc0534c <OSIntExit+0x164>
bfc05208:	00000000 	nop
D:\loongson\projects\ls1d_ucos\source/os_core.c:177
        OS_ENTER_CRITICAL();
bfc0520c:	3c02bfc0 	lui	v0,0xbfc0
bfc05210:	245973f0 	addiu	t9,v0,29680
bfc05214:	0320f809 	jalr	t9
bfc05218:	00000000 	nop
bfc0521c:	afc20010 	sw	v0,16(s8)
D:\loongson\projects\ls1d_ucos\source/os_core.c:178
        if (OSIntNesting > 0) {                            /* Prevent OSIntNesting from wrapping       */
bfc05220:	3c02a000 	lui	v0,0xa000
bfc05224:	90421098 	lbu	v0,4248(v0)
bfc05228:	10400007 	beqz	v0,bfc05248 <OSIntExit+0x60>
bfc0522c:	00000000 	nop
D:\loongson\projects\ls1d_ucos\source/os_core.c:179
            OSIntNesting--;
bfc05230:	3c02a000 	lui	v0,0xa000
bfc05234:	90421098 	lbu	v0,4248(v0)
bfc05238:	2442ffff 	addiu	v0,v0,-1
bfc0523c:	304300ff 	andi	v1,v0,0xff
bfc05240:	3c02a000 	lui	v0,0xa000
bfc05244:	a0431098 	sb	v1,4248(v0)
D:\loongson\projects\ls1d_ucos\source/os_core.c:181
        }
        if ((OSIntNesting == 0) && (OSLockNesting == 0)) { /* Reschedule only if all ISRs complete ... */
bfc05248:	3c02a000 	lui	v0,0xa000
bfc0524c:	90421098 	lbu	v0,4248(v0)
bfc05250:	14400039 	bnez	v0,bfc05338 <OSIntExit+0x150>
bfc05254:	00000000 	nop
bfc05258:	3c02a000 	lui	v0,0xa000
bfc0525c:	90421001 	lbu	v0,4097(v0)
bfc05260:	14400035 	bnez	v0,bfc05338 <OSIntExit+0x150>
bfc05264:	00000000 	nop
D:\loongson\projects\ls1d_ucos\source/os_core.c:182
            OSIntExitY    = OSUnMapTbl[OSRdyGrp];          /* ... and not locked.                      */
bfc05268:	3c02a000 	lui	v0,0xa000
bfc0526c:	90421068 	lbu	v0,4200(v0)
bfc05270:	00401821 	move	v1,v0
bfc05274:	3c02bfc1 	lui	v0,0xbfc1
bfc05278:	24429868 	addiu	v0,v0,-26520
bfc0527c:	00621021 	addu	v0,v1,v0
bfc05280:	90430000 	lbu	v1,0(v0)
bfc05284:	3c02a000 	lui	v0,0xa000
bfc05288:	a0431085 	sb	v1,4229(v0)
D:\loongson\projects\ls1d_ucos\source/os_core.c:183
            OSPrioHighRdy = (INT8U)((OSIntExitY << 3) + OSUnMapTbl[OSRdyTbl[OSIntExitY]]);
bfc0528c:	3c02a000 	lui	v0,0xa000
bfc05290:	90421085 	lbu	v0,4229(v0)
bfc05294:	000210c0 	sll	v0,v0,0x3
bfc05298:	304400ff 	andi	a0,v0,0xff
bfc0529c:	3c02a000 	lui	v0,0xa000
bfc052a0:	90421085 	lbu	v0,4229(v0)
bfc052a4:	00401821 	move	v1,v0
bfc052a8:	3c02a000 	lui	v0,0xa000
bfc052ac:	24421070 	addiu	v0,v0,4208
bfc052b0:	00621021 	addu	v0,v1,v0
bfc052b4:	90420000 	lbu	v0,0(v0)
bfc052b8:	00401821 	move	v1,v0
bfc052bc:	3c02bfc1 	lui	v0,0xbfc1
bfc052c0:	24429868 	addiu	v0,v0,-26520
bfc052c4:	00621021 	addu	v0,v1,v0
bfc052c8:	90420000 	lbu	v0,0(v0)
bfc052cc:	00821021 	addu	v0,a0,v0
bfc052d0:	304300ff 	andi	v1,v0,0xff
bfc052d4:	3c02a000 	lui	v0,0xa000
bfc052d8:	a0431010 	sb	v1,4112(v0)
D:\loongson\projects\ls1d_ucos\source/os_core.c:184
            if (OSPrioHighRdy != OSPrioCur) {              /* No Ctx Sw if current task is highest rdy */
bfc052dc:	3c02a000 	lui	v0,0xa000
bfc052e0:	90431010 	lbu	v1,4112(v0)
bfc052e4:	3c02a000 	lui	v0,0xa000
bfc052e8:	90421020 	lbu	v0,4128(v0)
bfc052ec:	10620012 	beq	v1,v0,bfc05338 <OSIntExit+0x150>
bfc052f0:	00000000 	nop
D:\loongson\projects\ls1d_ucos\source/os_core.c:185
                OSTCBHighRdy  = OSTCBPrioTbl[OSPrioHighRdy];
bfc052f4:	3c02a000 	lui	v0,0xa000
bfc052f8:	90421010 	lbu	v0,4112(v0)
bfc052fc:	00021880 	sll	v1,v0,0x2
bfc05300:	3c02a000 	lui	v0,0xa000
bfc05304:	00621021 	addu	v0,v1,v0
bfc05308:	8c430000 	lw	v1,0(v0)
bfc0530c:	3c02a000 	lui	v0,0xa000
bfc05310:	ac431064 	sw	v1,4196(v0)
D:\loongson\projects\ls1d_ucos\source/os_core.c:186
                OSCtxSwCtr++;                              /* Keep track of the number of ctx switches */
bfc05314:	3c02a000 	lui	v0,0xa000
bfc05318:	8c421030 	lw	v0,4144(v0)
bfc0531c:	24430001 	addiu	v1,v0,1
bfc05320:	3c02a000 	lui	v0,0xa000
bfc05324:	ac431030 	sw	v1,4144(v0)
D:\loongson\projects\ls1d_ucos\source/os_core.c:187
                OSIntCtxSw();                              /* Perform interrupt level ctx switch       */
bfc05328:	3c02bfc0 	lui	v0,0xbfc0
bfc0532c:	2459732c 	addiu	t9,v0,29484
bfc05330:	0320f809 	jalr	t9
bfc05334:	00000000 	nop
D:\loongson\projects\ls1d_ucos\source/os_core.c:190
            }
        }
        OS_EXIT_CRITICAL();
bfc05338:	8fc40010 	lw	a0,16(s8)
bfc0533c:	3c02bfc0 	lui	v0,0xbfc0
bfc05340:	24597408 	addiu	t9,v0,29704
bfc05344:	0320f809 	jalr	t9
bfc05348:	00000000 	nop
D:\loongson\projects\ls1d_ucos\source/os_core.c:192
    }
}
bfc0534c:	03c0e821 	move	sp,s8
bfc05350:	8fbf001c 	lw	ra,28(sp)
bfc05354:	8fbe0018 	lw	s8,24(sp)
bfc05358:	27bd0020 	addiu	sp,sp,32
bfc0535c:	03e00008 	jr	ra
bfc05360:	00000000 	nop

bfc05364 <OSSchedLock>:
OSSchedLock():
D:\loongson\projects\ls1d_ucos\source/os_core.c:212
*********************************************************************************************************
*/

#if OS_SCHED_LOCK_EN > 0
void  OSSchedLock (void)
{
bfc05364:	27bdffe0 	addiu	sp,sp,-32
bfc05368:	afbf001c 	sw	ra,28(sp)
bfc0536c:	afbe0018 	sw	s8,24(sp)
bfc05370:	03a0f021 	move	s8,sp
D:\loongson\projects\ls1d_ucos\source/os_core.c:218
#if OS_CRITICAL_METHOD == 3                      /* Allocate storage for CPU status register           */
    OS_CPU_SR  cpu_sr;
#endif


    if (OSRunning == TRUE) {                     /* Make sure multitasking is running                  */
bfc05374:	3c02a000 	lui	v0,0xa000
bfc05378:	90431002 	lbu	v1,4098(v0)
bfc0537c:	24020001 	li	v0,1
bfc05380:	14620016 	bne	v1,v0,bfc053dc <OSSchedLock+0x78>
bfc05384:	00000000 	nop
D:\loongson\projects\ls1d_ucos\source/os_core.c:219
        OS_ENTER_CRITICAL();
bfc05388:	3c02bfc0 	lui	v0,0xbfc0
bfc0538c:	245973f0 	addiu	t9,v0,29680
bfc05390:	0320f809 	jalr	t9
bfc05394:	00000000 	nop
bfc05398:	afc20010 	sw	v0,16(s8)
D:\loongson\projects\ls1d_ucos\source/os_core.c:220
        if (OSLockNesting < 255) {               /* Prevent OSLockNesting from wrapping back to 0      */
bfc0539c:	3c02a000 	lui	v0,0xa000
bfc053a0:	90431001 	lbu	v1,4097(v0)
bfc053a4:	240200ff 	li	v0,255
bfc053a8:	10620007 	beq	v1,v0,bfc053c8 <OSSchedLock+0x64>
bfc053ac:	00000000 	nop
D:\loongson\projects\ls1d_ucos\source/os_core.c:221
            OSLockNesting++;                     /* Increment lock nesting level                       */
bfc053b0:	3c02a000 	lui	v0,0xa000
bfc053b4:	90421001 	lbu	v0,4097(v0)
bfc053b8:	24420001 	addiu	v0,v0,1
bfc053bc:	304300ff 	andi	v1,v0,0xff
bfc053c0:	3c02a000 	lui	v0,0xa000
bfc053c4:	a0431001 	sb	v1,4097(v0)
D:\loongson\projects\ls1d_ucos\source/os_core.c:223
        }
        OS_EXIT_CRITICAL();
bfc053c8:	8fc40010 	lw	a0,16(s8)
bfc053cc:	3c02bfc0 	lui	v0,0xbfc0
bfc053d0:	24597408 	addiu	t9,v0,29704
bfc053d4:	0320f809 	jalr	t9
bfc053d8:	00000000 	nop
D:\loongson\projects\ls1d_ucos\source/os_core.c:225
    }
}
bfc053dc:	03c0e821 	move	sp,s8
bfc053e0:	8fbf001c 	lw	ra,28(sp)
bfc053e4:	8fbe0018 	lw	s8,24(sp)
bfc053e8:	27bd0020 	addiu	sp,sp,32
bfc053ec:	03e00008 	jr	ra
bfc053f0:	00000000 	nop

bfc053f4 <OSSchedUnlock>:
OSSchedUnlock():
D:\loongson\projects\ls1d_ucos\source/os_core.c:246
*********************************************************************************************************
*/

#if OS_SCHED_LOCK_EN > 0
void  OSSchedUnlock (void)
{
bfc053f4:	27bdffe0 	addiu	sp,sp,-32
bfc053f8:	afbf001c 	sw	ra,28(sp)
bfc053fc:	afbe0018 	sw	s8,24(sp)
bfc05400:	03a0f021 	move	s8,sp
D:\loongson\projects\ls1d_ucos\source/os_core.c:252
#if OS_CRITICAL_METHOD == 3                                /* Allocate storage for CPU status register */
    OS_CPU_SR  cpu_sr;
#endif


    if (OSRunning == TRUE) {                                   /* Make sure multitasking is running    */
bfc05404:	3c02a000 	lui	v0,0xa000
bfc05408:	90431002 	lbu	v1,4098(v0)
bfc0540c:	24020001 	li	v0,1
bfc05410:	1462002f 	bne	v1,v0,bfc054d0 <OSSchedUnlock+0xdc>
bfc05414:	00000000 	nop
D:\loongson\projects\ls1d_ucos\source/os_core.c:253
        OS_ENTER_CRITICAL();
bfc05418:	3c02bfc0 	lui	v0,0xbfc0
bfc0541c:	245973f0 	addiu	t9,v0,29680
bfc05420:	0320f809 	jalr	t9
bfc05424:	00000000 	nop
bfc05428:	afc20010 	sw	v0,16(s8)
D:\loongson\projects\ls1d_ucos\source/os_core.c:254
        if (OSLockNesting > 0) {                               /* Do not decrement if already 0        */
bfc0542c:	3c02a000 	lui	v0,0xa000
bfc05430:	90421001 	lbu	v0,4097(v0)
bfc05434:	10400021 	beqz	v0,bfc054bc <OSSchedUnlock+0xc8>
bfc05438:	00000000 	nop
D:\loongson\projects\ls1d_ucos\source/os_core.c:255
            OSLockNesting--;                                   /* Decrement lock nesting level         */
bfc0543c:	3c02a000 	lui	v0,0xa000
bfc05440:	90421001 	lbu	v0,4097(v0)
bfc05444:	2442ffff 	addiu	v0,v0,-1
bfc05448:	304300ff 	andi	v1,v0,0xff
bfc0544c:	3c02a000 	lui	v0,0xa000
bfc05450:	a0431001 	sb	v1,4097(v0)
D:\loongson\projects\ls1d_ucos\source/os_core.c:256
            if ((OSLockNesting == 0) && (OSIntNesting == 0)) { /* See if sched. enabled and not an ISR */
bfc05454:	3c02a000 	lui	v0,0xa000
bfc05458:	90421001 	lbu	v0,4097(v0)
bfc0545c:	14400010 	bnez	v0,bfc054a0 <OSSchedUnlock+0xac>
bfc05460:	00000000 	nop
bfc05464:	3c02a000 	lui	v0,0xa000
bfc05468:	90421098 	lbu	v0,4248(v0)
bfc0546c:	1440000c 	bnez	v0,bfc054a0 <OSSchedUnlock+0xac>
bfc05470:	00000000 	nop
D:\loongson\projects\ls1d_ucos\source/os_core.c:257
                OS_EXIT_CRITICAL();
bfc05474:	8fc40010 	lw	a0,16(s8)
bfc05478:	3c02bfc0 	lui	v0,0xbfc0
bfc0547c:	24597408 	addiu	t9,v0,29704
bfc05480:	0320f809 	jalr	t9
bfc05484:	00000000 	nop
D:\loongson\projects\ls1d_ucos\source/os_core.c:258
                OS_Sched();                                    /* See if a HPT is ready                */
bfc05488:	3c02bfc0 	lui	v0,0xbfc0
bfc0548c:	24595fcc 	addiu	t9,v0,24524
bfc05490:	0320f809 	jalr	t9
bfc05494:	00000000 	nop
bfc05498:	0bf01534 	j	bfc054d0 <OSSchedUnlock+0xdc>
bfc0549c:	00000000 	nop
D:\loongson\projects\ls1d_ucos\source/os_core.c:260
            } else {
                OS_EXIT_CRITICAL();
bfc054a0:	8fc40010 	lw	a0,16(s8)
bfc054a4:	3c02bfc0 	lui	v0,0xbfc0
bfc054a8:	24597408 	addiu	t9,v0,29704
bfc054ac:	0320f809 	jalr	t9
bfc054b0:	00000000 	nop
bfc054b4:	0bf01534 	j	bfc054d0 <OSSchedUnlock+0xdc>
bfc054b8:	00000000 	nop
D:\loongson\projects\ls1d_ucos\source/os_core.c:263
            }
        } else {
            OS_EXIT_CRITICAL();
bfc054bc:	8fc40010 	lw	a0,16(s8)
bfc054c0:	3c02bfc0 	lui	v0,0xbfc0
bfc054c4:	24597408 	addiu	t9,v0,29704
bfc054c8:	0320f809 	jalr	t9
bfc054cc:	00000000 	nop
D:\loongson\projects\ls1d_ucos\source/os_core.c:266
        }
    }
}
bfc054d0:	03c0e821 	move	sp,s8
bfc054d4:	8fbf001c 	lw	ra,28(sp)
bfc054d8:	8fbe0018 	lw	s8,24(sp)
bfc054dc:	27bd0020 	addiu	sp,sp,32
bfc054e0:	03e00008 	jr	ra
bfc054e4:	00000000 	nop

bfc054e8 <OSStart>:
OSStart():
D:\loongson\projects\ls1d_ucos\source/os_core.c:291
*                 d_ Execute the task.
*********************************************************************************************************
*/

void  OSStart (void)
{
bfc054e8:	27bdffe0 	addiu	sp,sp,-32
bfc054ec:	afbf001c 	sw	ra,28(sp)
bfc054f0:	afbe0018 	sw	s8,24(sp)
bfc054f4:	03a0f021 	move	s8,sp
D:\loongson\projects\ls1d_ucos\source/os_core.c:295
    INT8U y;
    INT8U x;

    if (OSRunning == FALSE) {
bfc054f8:	3c02a000 	lui	v0,0xa000
bfc054fc:	90421002 	lbu	v0,4098(v0)
bfc05500:	14400030 	bnez	v0,bfc055c4 <OSStart+0xdc>
bfc05504:	00000000 	nop
D:\loongson\projects\ls1d_ucos\source/os_core.c:296
        y             = OSUnMapTbl[OSRdyGrp];        /* Find highest priority's task priority number   */
bfc05508:	3c02a000 	lui	v0,0xa000
bfc0550c:	90421068 	lbu	v0,4200(v0)
bfc05510:	00401821 	move	v1,v0
bfc05514:	3c02bfc1 	lui	v0,0xbfc1
bfc05518:	24429868 	addiu	v0,v0,-26520
bfc0551c:	00621021 	addu	v0,v1,v0
bfc05520:	90420000 	lbu	v0,0(v0)
bfc05524:	a3c20011 	sb	v0,17(s8)
D:\loongson\projects\ls1d_ucos\source/os_core.c:297
        x             = OSUnMapTbl[OSRdyTbl[y]];
bfc05528:	93c30011 	lbu	v1,17(s8)
bfc0552c:	3c02a000 	lui	v0,0xa000
bfc05530:	24421070 	addiu	v0,v0,4208
bfc05534:	00621021 	addu	v0,v1,v0
bfc05538:	90420000 	lbu	v0,0(v0)
bfc0553c:	00401821 	move	v1,v0
bfc05540:	3c02bfc1 	lui	v0,0xbfc1
bfc05544:	24429868 	addiu	v0,v0,-26520
bfc05548:	00621021 	addu	v0,v1,v0
bfc0554c:	90420000 	lbu	v0,0(v0)
bfc05550:	a3c20010 	sb	v0,16(s8)
D:\loongson\projects\ls1d_ucos\source/os_core.c:298
        OSPrioHighRdy = (INT8U)((y << 3) + x);
bfc05554:	93c20011 	lbu	v0,17(s8)
bfc05558:	000210c0 	sll	v0,v0,0x3
bfc0555c:	304300ff 	andi	v1,v0,0xff
bfc05560:	93c20010 	lbu	v0,16(s8)
bfc05564:	00621021 	addu	v0,v1,v0
bfc05568:	304300ff 	andi	v1,v0,0xff
bfc0556c:	3c02a000 	lui	v0,0xa000
bfc05570:	a0431010 	sb	v1,4112(v0)
D:\loongson\projects\ls1d_ucos\source/os_core.c:299
        OSPrioCur     = OSPrioHighRdy;
bfc05574:	3c02a000 	lui	v0,0xa000
bfc05578:	90431010 	lbu	v1,4112(v0)
bfc0557c:	3c02a000 	lui	v0,0xa000
bfc05580:	a0431020 	sb	v1,4128(v0)
D:\loongson\projects\ls1d_ucos\source/os_core.c:300
        OSTCBHighRdy  = OSTCBPrioTbl[OSPrioHighRdy]; /* Point to highest priority task ready to run    */
bfc05584:	3c02a000 	lui	v0,0xa000
bfc05588:	90421010 	lbu	v0,4112(v0)
bfc0558c:	00021880 	sll	v1,v0,0x2
bfc05590:	3c02a000 	lui	v0,0xa000
bfc05594:	00621021 	addu	v0,v1,v0
bfc05598:	8c430000 	lw	v1,0(v0)
bfc0559c:	3c02a000 	lui	v0,0xa000
bfc055a0:	ac431064 	sw	v1,4196(v0)
D:\loongson\projects\ls1d_ucos\source/os_core.c:301
        OSTCBCur      = OSTCBHighRdy;
bfc055a4:	3c02a000 	lui	v0,0xa000
bfc055a8:	8c431064 	lw	v1,4196(v0)
bfc055ac:	3c02a000 	lui	v0,0xa000
bfc055b0:	ac4310a0 	sw	v1,4256(v0)
D:\loongson\projects\ls1d_ucos\source/os_core.c:302
        OSStartHighRdy();                            /* Execute target specific code to start task     */
bfc055b4:	3c02bfc0 	lui	v0,0xbfc0
bfc055b8:	24597140 	addiu	t9,v0,28992
bfc055bc:	0320f809 	jalr	t9
bfc055c0:	00000000 	nop
D:\loongson\projects\ls1d_ucos\source/os_core.c:304
    }
}
bfc055c4:	03c0e821 	move	sp,s8
bfc055c8:	8fbf001c 	lw	ra,28(sp)
bfc055cc:	8fbe0018 	lw	s8,24(sp)
bfc055d0:	27bd0020 	addiu	sp,sp,32
bfc055d4:	03e00008 	jr	ra
bfc055d8:	00000000 	nop

bfc055dc <OSTimeTick>:
OSTimeTick():
D:\loongson\projects\ls1d_ucos\source/os_core.c:361
* Returns    : none
*********************************************************************************************************
*/

void  OSTimeTick (void)
{
bfc055dc:	27bdffe0 	addiu	sp,sp,-32
bfc055e0:	afbf001c 	sw	ra,28(sp)
bfc055e4:	afbe0018 	sw	s8,24(sp)
bfc055e8:	03a0f021 	move	s8,sp
D:\loongson\projects\ls1d_ucos\source/os_core.c:369
#endif
    OS_TCB    *ptcb;

    ///OSTimeTickHook();                                      /* Call user definable hook                 */
#if OS_TIME_GET_SET_EN > 0
    OS_ENTER_CRITICAL();                                   /* Update the 32-bit tick counter           */
bfc055ec:	3c02bfc0 	lui	v0,0xbfc0
bfc055f0:	245973f0 	addiu	t9,v0,29680
bfc055f4:	0320f809 	jalr	t9
bfc055f8:	00000000 	nop
bfc055fc:	afc20014 	sw	v0,20(s8)
D:\loongson\projects\ls1d_ucos\source/os_core.c:370
    OSTime++;
bfc05600:	3c02a000 	lui	v0,0xa000
bfc05604:	8c4210a8 	lw	v0,4264(v0)
bfc05608:	24430001 	addiu	v1,v0,1
bfc0560c:	3c02a000 	lui	v0,0xa000
bfc05610:	ac4310a8 	sw	v1,4264(v0)
D:\loongson\projects\ls1d_ucos\source/os_core.c:371
    OS_EXIT_CRITICAL();
bfc05614:	8fc40014 	lw	a0,20(s8)
bfc05618:	3c02bfc0 	lui	v0,0xbfc0
bfc0561c:	24597408 	addiu	t9,v0,29704
bfc05620:	0320f809 	jalr	t9
bfc05624:	00000000 	nop
D:\loongson\projects\ls1d_ucos\source/os_core.c:373
#endif
    if (OSRunning == TRUE) {
bfc05628:	3c02a000 	lui	v0,0xa000
bfc0562c:	90431002 	lbu	v1,4098(v0)
bfc05630:	24020001 	li	v0,1
bfc05634:	1462004a 	bne	v1,v0,bfc05760 <OSTimeTick+0x184>
bfc05638:	00000000 	nop
D:\loongson\projects\ls1d_ucos\source/os_core.c:374
        ptcb = OSTCBList;                                  /* Point at first TCB in TCB list           */
bfc0563c:	3c02a000 	lui	v0,0xa000
bfc05640:	8c421028 	lw	v0,4136(v0)
bfc05644:	afc20010 	sw	v0,16(s8)
bfc05648:	0bf015d3 	j	bfc0574c <OSTimeTick+0x170>
bfc0564c:	00000000 	nop
D:\loongson\projects\ls1d_ucos\source/os_core.c:376
        while (ptcb->OSTCBPrio != OS_IDLE_PRIO) {          /* Go through all TCBs in TCB list          */
            OS_ENTER_CRITICAL();
bfc05650:	3c02bfc0 	lui	v0,0xbfc0
bfc05654:	245973f0 	addiu	t9,v0,29680
bfc05658:	0320f809 	jalr	t9
bfc0565c:	00000000 	nop
bfc05660:	afc20014 	sw	v0,20(s8)
D:\loongson\projects\ls1d_ucos\source/os_core.c:377
            if (ptcb->OSTCBDly != 0) {                     /* Delayed or waiting for event with TO     */
bfc05664:	8fc20010 	lw	v0,16(s8)
bfc05668:	94420014 	lhu	v0,20(v0)
bfc0566c:	1040002f 	beqz	v0,bfc0572c <OSTimeTick+0x150>
bfc05670:	00000000 	nop
D:\loongson\projects\ls1d_ucos\source/os_core.c:378
                if (--ptcb->OSTCBDly == 0) {               /* Decrement nbr of ticks to end of delay   */
bfc05674:	8fc20010 	lw	v0,16(s8)
bfc05678:	94420014 	lhu	v0,20(v0)
bfc0567c:	2442ffff 	addiu	v0,v0,-1
bfc05680:	3043ffff 	andi	v1,v0,0xffff
bfc05684:	8fc20010 	lw	v0,16(s8)
bfc05688:	a4430014 	sh	v1,20(v0)
bfc0568c:	8fc20010 	lw	v0,16(s8)
bfc05690:	94420014 	lhu	v0,20(v0)
bfc05694:	14400025 	bnez	v0,bfc0572c <OSTimeTick+0x150>
bfc05698:	00000000 	nop
D:\loongson\projects\ls1d_ucos\source/os_core.c:379
                    if ((ptcb->OSTCBStat & OS_STAT_SUSPEND) == OS_STAT_RDY) { /* Is task suspended?    */
bfc0569c:	8fc20010 	lw	v0,16(s8)
bfc056a0:	90420016 	lbu	v0,22(v0)
bfc056a4:	30420008 	andi	v0,v0,0x8
bfc056a8:	1440001d 	bnez	v0,bfc05720 <OSTimeTick+0x144>
bfc056ac:	00000000 	nop
D:\loongson\projects\ls1d_ucos\source/os_core.c:380
                        OSRdyGrp               |= ptcb->OSTCBBitY; /* No,  Make task R-to-R (timed out)*/
bfc056b0:	8fc20010 	lw	v0,16(s8)
bfc056b4:	9043001b 	lbu	v1,27(v0)
bfc056b8:	3c02a000 	lui	v0,0xa000
bfc056bc:	90421068 	lbu	v0,4200(v0)
bfc056c0:	00621025 	or	v0,v1,v0
bfc056c4:	304300ff 	andi	v1,v0,0xff
bfc056c8:	3c02a000 	lui	v0,0xa000
bfc056cc:	a0431068 	sb	v1,4200(v0)
D:\loongson\projects\ls1d_ucos\source/os_core.c:381
                        OSRdyTbl[ptcb->OSTCBY] |= ptcb->OSTCBBitX;
bfc056d0:	8fc20010 	lw	v0,16(s8)
bfc056d4:	90420019 	lbu	v0,25(v0)
bfc056d8:	00402021 	move	a0,v0
bfc056dc:	8fc20010 	lw	v0,16(s8)
bfc056e0:	90420019 	lbu	v0,25(v0)
bfc056e4:	00401821 	move	v1,v0
bfc056e8:	3c02a000 	lui	v0,0xa000
bfc056ec:	24421070 	addiu	v0,v0,4208
bfc056f0:	00621021 	addu	v0,v1,v0
bfc056f4:	90430000 	lbu	v1,0(v0)
bfc056f8:	8fc20010 	lw	v0,16(s8)
bfc056fc:	9042001a 	lbu	v0,26(v0)
bfc05700:	00621025 	or	v0,v1,v0
bfc05704:	304300ff 	andi	v1,v0,0xff
bfc05708:	3c02a000 	lui	v0,0xa000
bfc0570c:	24421070 	addiu	v0,v0,4208
bfc05710:	00821021 	addu	v0,a0,v0
bfc05714:	a0430000 	sb	v1,0(v0)
bfc05718:	0bf015cb 	j	bfc0572c <OSTimeTick+0x150>
bfc0571c:	00000000 	nop
D:\loongson\projects\ls1d_ucos\source/os_core.c:383
                    } else {                               /* Yes, Leave 1 tick to prevent ...         */
                        ptcb->OSTCBDly = 1;                /* ... loosing the task when the ...        */
bfc05720:	8fc30010 	lw	v1,16(s8)
bfc05724:	24020001 	li	v0,1
bfc05728:	a4620014 	sh	v0,20(v1)
D:\loongson\projects\ls1d_ucos\source/os_core.c:387
                    }                                      /* ... suspension is removed.               */
                }
            }
            ptcb = ptcb->OSTCBNext;                        /* Point at next TCB in TCB list            */
bfc0572c:	8fc20010 	lw	v0,16(s8)
bfc05730:	8c420004 	lw	v0,4(v0)
bfc05734:	afc20010 	sw	v0,16(s8)
D:\loongson\projects\ls1d_ucos\source/os_core.c:388
            OS_EXIT_CRITICAL();
bfc05738:	8fc40014 	lw	a0,20(s8)
bfc0573c:	3c02bfc0 	lui	v0,0xbfc0
bfc05740:	24597408 	addiu	t9,v0,29704
bfc05744:	0320f809 	jalr	t9
bfc05748:	00000000 	nop
D:\loongson\projects\ls1d_ucos\source/os_core.c:375
    OSTime++;
    OS_EXIT_CRITICAL();
#endif
    if (OSRunning == TRUE) {
        ptcb = OSTCBList;                                  /* Point at first TCB in TCB list           */
        while (ptcb->OSTCBPrio != OS_IDLE_PRIO) {          /* Go through all TCBs in TCB list          */
bfc0574c:	8fc20010 	lw	v0,16(s8)
bfc05750:	90430017 	lbu	v1,23(v0)
bfc05754:	2402003f 	li	v0,63
bfc05758:	1462ffbd 	bne	v1,v0,bfc05650 <OSTimeTick+0x74>
bfc0575c:	00000000 	nop
D:\loongson\projects\ls1d_ucos\source/os_core.c:391
            }
            ptcb = ptcb->OSTCBNext;                        /* Point at next TCB in TCB list            */
            OS_EXIT_CRITICAL();
        }
    }
}
bfc05760:	03c0e821 	move	sp,s8
bfc05764:	8fbf001c 	lw	ra,28(sp)
bfc05768:	8fbe0018 	lw	s8,24(sp)
bfc0576c:	27bd0020 	addiu	sp,sp,32
bfc05770:	03e00008 	jr	ra
bfc05774:	00000000 	nop

bfc05778 <OSVersion>:
OSVersion():
D:\loongson\projects\ls1d_ucos\source/os_core.c:408
* Returns    : the version number of uC/OS-II multiplied by 100.
*********************************************************************************************************
*/

INT16U  OSVersion (void)
{
bfc05778:	27bdfff8 	addiu	sp,sp,-8
bfc0577c:	afbe0004 	sw	s8,4(sp)
bfc05780:	03a0f021 	move	s8,sp
D:\loongson\projects\ls1d_ucos\source/os_core.c:409
    return (OS_VERSION);
bfc05784:	240200fb 	li	v0,251
D:\loongson\projects\ls1d_ucos\source/os_core.c:410
}
bfc05788:	03c0e821 	move	sp,s8
bfc0578c:	8fbe0004 	lw	s8,4(sp)
bfc05790:	27bd0008 	addiu	sp,sp,8
bfc05794:	03e00008 	jr	ra
bfc05798:	00000000 	nop

bfc0579c <OS_EventTaskRdy>:
OS_EventTaskRdy():
D:\loongson\projects\ls1d_ucos\source/os_core.c:455
* Note       : This function is INTERNAL to uC/OS-II and your application should not call it.
*********************************************************************************************************
*/
#if OS_EVENT_EN > 0
INT8U  OS_EventTaskRdy (OS_EVENT *pevent, void *msg, INT8U msk)
{
bfc0579c:	27bdffe8 	addiu	sp,sp,-24
bfc057a0:	afbe0014 	sw	s8,20(sp)
bfc057a4:	03a0f021 	move	s8,sp
bfc057a8:	afc40018 	sw	a0,24(s8)
bfc057ac:	afc5001c 	sw	a1,28(s8)
bfc057b0:	00c01021 	move	v0,a2
bfc057b4:	a3c20020 	sb	v0,32(s8)
D:\loongson\projects\ls1d_ucos\source/os_core.c:464
    INT8U   bitx;
    INT8U   bity;
    INT8U   prio;


    y    = OSUnMapTbl[pevent->OSEventGrp];            /* Find highest prio. task waiting for message   */
bfc057b8:	8fc20018 	lw	v0,24(s8)
bfc057bc:	90420001 	lbu	v0,1(v0)
bfc057c0:	00401821 	move	v1,v0
bfc057c4:	3c02bfc1 	lui	v0,0xbfc1
bfc057c8:	24429868 	addiu	v0,v0,-26520
bfc057cc:	00621021 	addu	v0,v1,v0
bfc057d0:	90420000 	lbu	v0,0(v0)
bfc057d4:	a3c20003 	sb	v0,3(s8)
D:\loongson\projects\ls1d_ucos\source/os_core.c:465
    bity = OSMapTbl[y];
bfc057d8:	93c30003 	lbu	v1,3(s8)
bfc057dc:	3c02bfc1 	lui	v0,0xbfc1
bfc057e0:	24429860 	addiu	v0,v0,-26528
bfc057e4:	00621021 	addu	v0,v1,v0
bfc057e8:	90420000 	lbu	v0,0(v0)
bfc057ec:	a3c20001 	sb	v0,1(s8)
D:\loongson\projects\ls1d_ucos\source/os_core.c:466
    x    = OSUnMapTbl[pevent->OSEventTbl[y]];
bfc057f0:	93c30003 	lbu	v1,3(s8)
bfc057f4:	8fc20018 	lw	v0,24(s8)
bfc057f8:	00431021 	addu	v0,v0,v1
bfc057fc:	90420008 	lbu	v0,8(v0)
bfc05800:	00401821 	move	v1,v0
bfc05804:	3c02bfc1 	lui	v0,0xbfc1
bfc05808:	24429868 	addiu	v0,v0,-26520
bfc0580c:	00621021 	addu	v0,v1,v0
bfc05810:	90420000 	lbu	v0,0(v0)
bfc05814:	a3c20004 	sb	v0,4(s8)
D:\loongson\projects\ls1d_ucos\source/os_core.c:467
    bitx = OSMapTbl[x];
bfc05818:	93c30004 	lbu	v1,4(s8)
bfc0581c:	3c02bfc1 	lui	v0,0xbfc1
bfc05820:	24429860 	addiu	v0,v0,-26528
bfc05824:	00621021 	addu	v0,v1,v0
bfc05828:	90420000 	lbu	v0,0(v0)
bfc0582c:	a3c20002 	sb	v0,2(s8)
D:\loongson\projects\ls1d_ucos\source/os_core.c:468
    prio = (INT8U)((y << 3) + x);                     /* Find priority of task getting the msg         */
bfc05830:	93c20003 	lbu	v0,3(s8)
bfc05834:	000210c0 	sll	v0,v0,0x3
bfc05838:	304300ff 	andi	v1,v0,0xff
bfc0583c:	93c20004 	lbu	v0,4(s8)
bfc05840:	00621021 	addu	v0,v1,v0
bfc05844:	a3c20000 	sb	v0,0(s8)
D:\loongson\projects\ls1d_ucos\source/os_core.c:469
    if ((pevent->OSEventTbl[y] &= ~bitx) == 0x00) {   /* Remove this task from the waiting list        */
bfc05848:	93c40003 	lbu	a0,3(s8)
bfc0584c:	93c30003 	lbu	v1,3(s8)
bfc05850:	8fc20018 	lw	v0,24(s8)
bfc05854:	00431021 	addu	v0,v0,v1
bfc05858:	90420008 	lbu	v0,8(v0)
bfc0585c:	00021e00 	sll	v1,v0,0x18
bfc05860:	00031e03 	sra	v1,v1,0x18
bfc05864:	83c20002 	lb	v0,2(s8)
bfc05868:	00021027 	nor	v0,zero,v0
bfc0586c:	00021600 	sll	v0,v0,0x18
bfc05870:	00021603 	sra	v0,v0,0x18
bfc05874:	00621024 	and	v0,v1,v0
bfc05878:	00021600 	sll	v0,v0,0x18
bfc0587c:	00021603 	sra	v0,v0,0x18
bfc05880:	304300ff 	andi	v1,v0,0xff
bfc05884:	8fc20018 	lw	v0,24(s8)
bfc05888:	00441021 	addu	v0,v0,a0
bfc0588c:	a0430008 	sb	v1,8(v0)
bfc05890:	8fc20018 	lw	v0,24(s8)
bfc05894:	00441021 	addu	v0,v0,a0
bfc05898:	90420008 	lbu	v0,8(v0)
bfc0589c:	1440000f 	bnez	v0,bfc058dc <OS_EventTaskRdy+0x140>
bfc058a0:	00000000 	nop
D:\loongson\projects\ls1d_ucos\source/os_core.c:470
        pevent->OSEventGrp &= ~bity;                  /* Clr group bit if this was only task pending   */
bfc058a4:	8fc20018 	lw	v0,24(s8)
bfc058a8:	90420001 	lbu	v0,1(v0)
bfc058ac:	00021e00 	sll	v1,v0,0x18
bfc058b0:	00031e03 	sra	v1,v1,0x18
bfc058b4:	83c20001 	lb	v0,1(s8)
bfc058b8:	00021027 	nor	v0,zero,v0
bfc058bc:	00021600 	sll	v0,v0,0x18
bfc058c0:	00021603 	sra	v0,v0,0x18
bfc058c4:	00621024 	and	v0,v1,v0
bfc058c8:	00021600 	sll	v0,v0,0x18
bfc058cc:	00021603 	sra	v0,v0,0x18
bfc058d0:	304300ff 	andi	v1,v0,0xff
bfc058d4:	8fc20018 	lw	v0,24(s8)
bfc058d8:	a0430001 	sb	v1,1(v0)
D:\loongson\projects\ls1d_ucos\source/os_core.c:472
    }
    ptcb                 =  OSTCBPrioTbl[prio];       /* Point to this task's OS_TCB                   */
bfc058dc:	93c20000 	lbu	v0,0(s8)
bfc058e0:	00021880 	sll	v1,v0,0x2
bfc058e4:	3c02a000 	lui	v0,0xa000
bfc058e8:	00621021 	addu	v0,v1,v0
bfc058ec:	8c420000 	lw	v0,0(v0)
bfc058f0:	afc20008 	sw	v0,8(s8)
D:\loongson\projects\ls1d_ucos\source/os_core.c:473
    ptcb->OSTCBDly       =  0;                        /* Prevent OSTimeTick() from readying task       */
bfc058f4:	8fc20008 	lw	v0,8(s8)
bfc058f8:	a4400014 	sh	zero,20(v0)
D:\loongson\projects\ls1d_ucos\source/os_core.c:474
    ptcb->OSTCBEventPtr  = (OS_EVENT *)0;             /* Unlink ECB from this task                     */
bfc058fc:	8fc20008 	lw	v0,8(s8)
bfc05900:	ac40000c 	sw	zero,12(v0)
D:\loongson\projects\ls1d_ucos\source/os_core.c:476
#if ((OS_Q_EN > 0) && (OS_MAX_QS > 0)) || (OS_MBOX_EN > 0)
    ptcb->OSTCBMsg       = msg;                       /* Send message directly to waiting task         */
bfc05904:	8fc30008 	lw	v1,8(s8)
bfc05908:	8fc2001c 	lw	v0,28(s8)
bfc0590c:	ac620010 	sw	v0,16(v1)
D:\loongson\projects\ls1d_ucos\source/os_core.c:480
#else
    msg                  = msg;                       /* Prevent compiler warning if not used          */
#endif
    ptcb->OSTCBStat     &= ~msk;                      /* Clear bit associated with event type          */
bfc05910:	8fc20008 	lw	v0,8(s8)
bfc05914:	90420016 	lbu	v0,22(v0)
bfc05918:	00021e00 	sll	v1,v0,0x18
bfc0591c:	00031e03 	sra	v1,v1,0x18
bfc05920:	83c20020 	lb	v0,32(s8)
bfc05924:	00021027 	nor	v0,zero,v0
bfc05928:	00021600 	sll	v0,v0,0x18
bfc0592c:	00021603 	sra	v0,v0,0x18
bfc05930:	00621024 	and	v0,v1,v0
bfc05934:	00021600 	sll	v0,v0,0x18
bfc05938:	00021603 	sra	v0,v0,0x18
bfc0593c:	304300ff 	andi	v1,v0,0xff
bfc05940:	8fc20008 	lw	v0,8(s8)
bfc05944:	a0430016 	sb	v1,22(v0)
D:\loongson\projects\ls1d_ucos\source/os_core.c:481
    if (ptcb->OSTCBStat == OS_STAT_RDY) {             /* See if task is ready (could be susp'd)        */
bfc05948:	8fc20008 	lw	v0,8(s8)
bfc0594c:	90420016 	lbu	v0,22(v0)
bfc05950:	14400015 	bnez	v0,bfc059a8 <OS_EventTaskRdy+0x20c>
bfc05954:	00000000 	nop
D:\loongson\projects\ls1d_ucos\source/os_core.c:482
        OSRdyGrp        |=  bity;                     /* Put task in the ready to run list             */
bfc05958:	3c02a000 	lui	v0,0xa000
bfc0595c:	90431068 	lbu	v1,4200(v0)
bfc05960:	93c20001 	lbu	v0,1(s8)
bfc05964:	00621025 	or	v0,v1,v0
bfc05968:	304300ff 	andi	v1,v0,0xff
bfc0596c:	3c02a000 	lui	v0,0xa000
bfc05970:	a0431068 	sb	v1,4200(v0)
D:\loongson\projects\ls1d_ucos\source/os_core.c:483
        OSRdyTbl[y]     |=  bitx;
bfc05974:	93c40003 	lbu	a0,3(s8)
bfc05978:	93c30003 	lbu	v1,3(s8)
bfc0597c:	3c02a000 	lui	v0,0xa000
bfc05980:	24421070 	addiu	v0,v0,4208
bfc05984:	00621021 	addu	v0,v1,v0
bfc05988:	90430000 	lbu	v1,0(v0)
bfc0598c:	93c20002 	lbu	v0,2(s8)
bfc05990:	00621025 	or	v0,v1,v0
bfc05994:	304300ff 	andi	v1,v0,0xff
bfc05998:	3c02a000 	lui	v0,0xa000
bfc0599c:	24421070 	addiu	v0,v0,4208
bfc059a0:	00821021 	addu	v0,a0,v0
bfc059a4:	a0430000 	sb	v1,0(v0)
D:\loongson\projects\ls1d_ucos\source/os_core.c:485
    }
    return (prio);
bfc059a8:	93c20000 	lbu	v0,0(s8)
D:\loongson\projects\ls1d_ucos\source/os_core.c:486
}
bfc059ac:	03c0e821 	move	sp,s8
bfc059b0:	8fbe0014 	lw	s8,20(sp)
bfc059b4:	27bd0018 	addiu	sp,sp,24
bfc059b8:	03e00008 	jr	ra
bfc059bc:	00000000 	nop

bfc059c0 <OS_EventTaskWait>:
OS_EventTaskWait():
D:\loongson\projects\ls1d_ucos\source/os_core.c:505
* Note       : This function is INTERNAL to uC/OS-II and your application should not call it.
*********************************************************************************************************
*/
#if OS_EVENT_EN > 0
void  OS_EventTaskWait (OS_EVENT *pevent)
{
bfc059c0:	27bdfff8 	addiu	sp,sp,-8
bfc059c4:	afbe0004 	sw	s8,4(sp)
bfc059c8:	03a0f021 	move	s8,sp
bfc059cc:	afc40008 	sw	a0,8(s8)
D:\loongson\projects\ls1d_ucos\source/os_core.c:506
    OSTCBCur->OSTCBEventPtr = pevent;            /* Store pointer to event control block in TCB        */
bfc059d0:	3c02a000 	lui	v0,0xa000
bfc059d4:	8c4310a0 	lw	v1,4256(v0)
bfc059d8:	8fc20008 	lw	v0,8(s8)
bfc059dc:	ac62000c 	sw	v0,12(v1)
D:\loongson\projects\ls1d_ucos\source/os_core.c:507
    if ((OSRdyTbl[OSTCBCur->OSTCBY] &= ~OSTCBCur->OSTCBBitX) == 0x00) {   /* Task no longer ready      */
bfc059e0:	3c02a000 	lui	v0,0xa000
bfc059e4:	8c4210a0 	lw	v0,4256(v0)
bfc059e8:	90420019 	lbu	v0,25(v0)
bfc059ec:	00402021 	move	a0,v0
bfc059f0:	3c02a000 	lui	v0,0xa000
bfc059f4:	8c4210a0 	lw	v0,4256(v0)
bfc059f8:	90420019 	lbu	v0,25(v0)
bfc059fc:	00401821 	move	v1,v0
bfc05a00:	3c02a000 	lui	v0,0xa000
bfc05a04:	24421070 	addiu	v0,v0,4208
bfc05a08:	00621021 	addu	v0,v1,v0
bfc05a0c:	90420000 	lbu	v0,0(v0)
bfc05a10:	00021e00 	sll	v1,v0,0x18
bfc05a14:	00031e03 	sra	v1,v1,0x18
bfc05a18:	3c02a000 	lui	v0,0xa000
bfc05a1c:	8c4210a0 	lw	v0,4256(v0)
bfc05a20:	9042001a 	lbu	v0,26(v0)
bfc05a24:	00021600 	sll	v0,v0,0x18
bfc05a28:	00021603 	sra	v0,v0,0x18
bfc05a2c:	00021027 	nor	v0,zero,v0
bfc05a30:	00021600 	sll	v0,v0,0x18
bfc05a34:	00021603 	sra	v0,v0,0x18
bfc05a38:	00621024 	and	v0,v1,v0
bfc05a3c:	00021600 	sll	v0,v0,0x18
bfc05a40:	00021603 	sra	v0,v0,0x18
bfc05a44:	304300ff 	andi	v1,v0,0xff
bfc05a48:	3c02a000 	lui	v0,0xa000
bfc05a4c:	24421070 	addiu	v0,v0,4208
bfc05a50:	00821021 	addu	v0,a0,v0
bfc05a54:	a0430000 	sb	v1,0(v0)
bfc05a58:	3c02a000 	lui	v0,0xa000
bfc05a5c:	24421070 	addiu	v0,v0,4208
bfc05a60:	00821021 	addu	v0,a0,v0
bfc05a64:	90420000 	lbu	v0,0(v0)
bfc05a68:	14400013 	bnez	v0,bfc05ab8 <OS_EventTaskWait+0xf8>
bfc05a6c:	00000000 	nop
D:\loongson\projects\ls1d_ucos\source/os_core.c:508
        OSRdyGrp &= ~OSTCBCur->OSTCBBitY;        /* Clear event grp bit if this was only task pending  */
bfc05a70:	3c02a000 	lui	v0,0xa000
bfc05a74:	8c4210a0 	lw	v0,4256(v0)
bfc05a78:	9042001b 	lbu	v0,27(v0)
bfc05a7c:	00021600 	sll	v0,v0,0x18
bfc05a80:	00021603 	sra	v0,v0,0x18
bfc05a84:	00021027 	nor	v0,zero,v0
bfc05a88:	00021e00 	sll	v1,v0,0x18
bfc05a8c:	00031e03 	sra	v1,v1,0x18
bfc05a90:	3c02a000 	lui	v0,0xa000
bfc05a94:	90421068 	lbu	v0,4200(v0)
bfc05a98:	00021600 	sll	v0,v0,0x18
bfc05a9c:	00021603 	sra	v0,v0,0x18
bfc05aa0:	00621024 	and	v0,v1,v0
bfc05aa4:	00021600 	sll	v0,v0,0x18
bfc05aa8:	00021603 	sra	v0,v0,0x18
bfc05aac:	304300ff 	andi	v1,v0,0xff
bfc05ab0:	3c02a000 	lui	v0,0xa000
bfc05ab4:	a0431068 	sb	v1,4200(v0)
D:\loongson\projects\ls1d_ucos\source/os_core.c:510
    }
    pevent->OSEventTbl[OSTCBCur->OSTCBY] |= OSTCBCur->OSTCBBitX;          /* Put task in waiting list  */
bfc05ab8:	3c02a000 	lui	v0,0xa000
bfc05abc:	8c4210a0 	lw	v0,4256(v0)
bfc05ac0:	90420019 	lbu	v0,25(v0)
bfc05ac4:	00402021 	move	a0,v0
bfc05ac8:	3c02a000 	lui	v0,0xa000
bfc05acc:	8c4210a0 	lw	v0,4256(v0)
bfc05ad0:	90420019 	lbu	v0,25(v0)
bfc05ad4:	00401821 	move	v1,v0
bfc05ad8:	8fc20008 	lw	v0,8(s8)
bfc05adc:	00431021 	addu	v0,v0,v1
bfc05ae0:	90430008 	lbu	v1,8(v0)
bfc05ae4:	3c02a000 	lui	v0,0xa000
bfc05ae8:	8c4210a0 	lw	v0,4256(v0)
bfc05aec:	9042001a 	lbu	v0,26(v0)
bfc05af0:	00621025 	or	v0,v1,v0
bfc05af4:	304300ff 	andi	v1,v0,0xff
bfc05af8:	8fc20008 	lw	v0,8(s8)
bfc05afc:	00441021 	addu	v0,v0,a0
bfc05b00:	a0430008 	sb	v1,8(v0)
D:\loongson\projects\ls1d_ucos\source/os_core.c:511
    pevent->OSEventGrp                   |= OSTCBCur->OSTCBBitY;
bfc05b04:	8fc20008 	lw	v0,8(s8)
bfc05b08:	90430001 	lbu	v1,1(v0)
bfc05b0c:	3c02a000 	lui	v0,0xa000
bfc05b10:	8c4210a0 	lw	v0,4256(v0)
bfc05b14:	9042001b 	lbu	v0,27(v0)
bfc05b18:	00621025 	or	v0,v1,v0
bfc05b1c:	304300ff 	andi	v1,v0,0xff
bfc05b20:	8fc20008 	lw	v0,8(s8)
bfc05b24:	a0430001 	sb	v1,1(v0)
D:\loongson\projects\ls1d_ucos\source/os_core.c:512
}
bfc05b28:	03c0e821 	move	sp,s8
bfc05b2c:	8fbe0004 	lw	s8,4(sp)
bfc05b30:	27bd0008 	addiu	sp,sp,8
bfc05b34:	03e00008 	jr	ra
bfc05b38:	00000000 	nop

bfc05b3c <OS_EventTO>:
OS_EventTO():
D:\loongson\projects\ls1d_ucos\source/os_core.c:531
* Note       : This function is INTERNAL to uC/OS-II and your application should not call it.
*********************************************************************************************************
*/
#if OS_EVENT_EN > 0
void  OS_EventTO (OS_EVENT *pevent)
{
bfc05b3c:	27bdfff8 	addiu	sp,sp,-8
bfc05b40:	afbe0004 	sw	s8,4(sp)
bfc05b44:	03a0f021 	move	s8,sp
bfc05b48:	afc40008 	sw	a0,8(s8)
D:\loongson\projects\ls1d_ucos\source/os_core.c:532
    if ((pevent->OSEventTbl[OSTCBCur->OSTCBY] &= ~OSTCBCur->OSTCBBitX) == 0x00) {
bfc05b4c:	3c02a000 	lui	v0,0xa000
bfc05b50:	8c4210a0 	lw	v0,4256(v0)
bfc05b54:	90420019 	lbu	v0,25(v0)
bfc05b58:	00402021 	move	a0,v0
bfc05b5c:	3c02a000 	lui	v0,0xa000
bfc05b60:	8c4210a0 	lw	v0,4256(v0)
bfc05b64:	90420019 	lbu	v0,25(v0)
bfc05b68:	00401821 	move	v1,v0
bfc05b6c:	8fc20008 	lw	v0,8(s8)
bfc05b70:	00431021 	addu	v0,v0,v1
bfc05b74:	90420008 	lbu	v0,8(v0)
bfc05b78:	00021e00 	sll	v1,v0,0x18
bfc05b7c:	00031e03 	sra	v1,v1,0x18
bfc05b80:	3c02a000 	lui	v0,0xa000
bfc05b84:	8c4210a0 	lw	v0,4256(v0)
bfc05b88:	9042001a 	lbu	v0,26(v0)
bfc05b8c:	00021600 	sll	v0,v0,0x18
bfc05b90:	00021603 	sra	v0,v0,0x18
bfc05b94:	00021027 	nor	v0,zero,v0
bfc05b98:	00021600 	sll	v0,v0,0x18
bfc05b9c:	00021603 	sra	v0,v0,0x18
bfc05ba0:	00621024 	and	v0,v1,v0
bfc05ba4:	00021600 	sll	v0,v0,0x18
bfc05ba8:	00021603 	sra	v0,v0,0x18
bfc05bac:	304300ff 	andi	v1,v0,0xff
bfc05bb0:	8fc20008 	lw	v0,8(s8)
bfc05bb4:	00441021 	addu	v0,v0,a0
bfc05bb8:	a0430008 	sb	v1,8(v0)
bfc05bbc:	8fc20008 	lw	v0,8(s8)
bfc05bc0:	00441021 	addu	v0,v0,a0
bfc05bc4:	90420008 	lbu	v0,8(v0)
bfc05bc8:	14400013 	bnez	v0,bfc05c18 <OS_EventTO+0xdc>
bfc05bcc:	00000000 	nop
D:\loongson\projects\ls1d_ucos\source/os_core.c:533
        pevent->OSEventGrp &= ~OSTCBCur->OSTCBBitY;
bfc05bd0:	8fc20008 	lw	v0,8(s8)
bfc05bd4:	90420001 	lbu	v0,1(v0)
bfc05bd8:	00021e00 	sll	v1,v0,0x18
bfc05bdc:	00031e03 	sra	v1,v1,0x18
bfc05be0:	3c02a000 	lui	v0,0xa000
bfc05be4:	8c4210a0 	lw	v0,4256(v0)
bfc05be8:	9042001b 	lbu	v0,27(v0)
bfc05bec:	00021600 	sll	v0,v0,0x18
bfc05bf0:	00021603 	sra	v0,v0,0x18
bfc05bf4:	00021027 	nor	v0,zero,v0
bfc05bf8:	00021600 	sll	v0,v0,0x18
bfc05bfc:	00021603 	sra	v0,v0,0x18
bfc05c00:	00621024 	and	v0,v1,v0
bfc05c04:	00021600 	sll	v0,v0,0x18
bfc05c08:	00021603 	sra	v0,v0,0x18
bfc05c0c:	304300ff 	andi	v1,v0,0xff
bfc05c10:	8fc20008 	lw	v0,8(s8)
bfc05c14:	a0430001 	sb	v1,1(v0)
D:\loongson\projects\ls1d_ucos\source/os_core.c:535
    }
    OSTCBCur->OSTCBStat     = OS_STAT_RDY;       /* Set status to ready                                */
bfc05c18:	3c02a000 	lui	v0,0xa000
bfc05c1c:	8c4210a0 	lw	v0,4256(v0)
bfc05c20:	a0400016 	sb	zero,22(v0)
D:\loongson\projects\ls1d_ucos\source/os_core.c:536
    OSTCBCur->OSTCBEventPtr = (OS_EVENT *)0;     /* No longer waiting for event                        */
bfc05c24:	3c02a000 	lui	v0,0xa000
bfc05c28:	8c4210a0 	lw	v0,4256(v0)
bfc05c2c:	ac40000c 	sw	zero,12(v0)
D:\loongson\projects\ls1d_ucos\source/os_core.c:537
}
bfc05c30:	03c0e821 	move	sp,s8
bfc05c34:	8fbe0004 	lw	s8,4(sp)
bfc05c38:	27bd0008 	addiu	sp,sp,8
bfc05c3c:	03e00008 	jr	ra
bfc05c40:	00000000 	nop

bfc05c44 <OS_EventWaitListInit>:
OS_EventWaitListInit():
D:\loongson\projects\ls1d_ucos\source/os_core.c:555
* Note       : This function is INTERNAL to uC/OS-II and your application should not call it.
*********************************************************************************************************
*/
#if ((OS_Q_EN > 0) && (OS_MAX_QS > 0)) || (OS_MBOX_EN > 0) || (OS_SEM_EN > 0) || (OS_MUTEX_EN > 0)
void  OS_EventWaitListInit (OS_EVENT *pevent)
{
bfc05c44:	27bdfff0 	addiu	sp,sp,-16
bfc05c48:	afbe000c 	sw	s8,12(sp)
bfc05c4c:	03a0f021 	move	s8,sp
bfc05c50:	afc40010 	sw	a0,16(s8)
D:\loongson\projects\ls1d_ucos\source/os_core.c:559
    INT8U  *ptbl;


    pevent->OSEventGrp = 0x00;                   /* No task waiting on event                           */
bfc05c54:	8fc20010 	lw	v0,16(s8)
bfc05c58:	a0400001 	sb	zero,1(v0)
D:\loongson\projects\ls1d_ucos\source/os_core.c:560
    ptbl               = &pevent->OSEventTbl[0];
bfc05c5c:	8fc20010 	lw	v0,16(s8)
bfc05c60:	24420008 	addiu	v0,v0,8
bfc05c64:	afc20000 	sw	v0,0(s8)
D:\loongson\projects\ls1d_ucos\source/os_core.c:563

#if OS_EVENT_TBL_SIZE > 0
    *ptbl++            = 0x00;
bfc05c68:	8fc20000 	lw	v0,0(s8)
bfc05c6c:	a0400000 	sb	zero,0(v0)
bfc05c70:	8fc20000 	lw	v0,0(s8)
bfc05c74:	24420001 	addiu	v0,v0,1
bfc05c78:	afc20000 	sw	v0,0(s8)
D:\loongson\projects\ls1d_ucos\source/os_core.c:567
#endif

#if OS_EVENT_TBL_SIZE > 1
    *ptbl++            = 0x00;
bfc05c7c:	8fc20000 	lw	v0,0(s8)
bfc05c80:	a0400000 	sb	zero,0(v0)
bfc05c84:	8fc20000 	lw	v0,0(s8)
bfc05c88:	24420001 	addiu	v0,v0,1
bfc05c8c:	afc20000 	sw	v0,0(s8)
D:\loongson\projects\ls1d_ucos\source/os_core.c:571
#endif

#if OS_EVENT_TBL_SIZE > 2
    *ptbl++            = 0x00;
bfc05c90:	8fc20000 	lw	v0,0(s8)
bfc05c94:	a0400000 	sb	zero,0(v0)
bfc05c98:	8fc20000 	lw	v0,0(s8)
bfc05c9c:	24420001 	addiu	v0,v0,1
bfc05ca0:	afc20000 	sw	v0,0(s8)
D:\loongson\projects\ls1d_ucos\source/os_core.c:575
#endif

#if OS_EVENT_TBL_SIZE > 3
    *ptbl++            = 0x00;
bfc05ca4:	8fc20000 	lw	v0,0(s8)
bfc05ca8:	a0400000 	sb	zero,0(v0)
bfc05cac:	8fc20000 	lw	v0,0(s8)
bfc05cb0:	24420001 	addiu	v0,v0,1
bfc05cb4:	afc20000 	sw	v0,0(s8)
D:\loongson\projects\ls1d_ucos\source/os_core.c:579
#endif

#if OS_EVENT_TBL_SIZE > 4
    *ptbl++            = 0x00;
bfc05cb8:	8fc20000 	lw	v0,0(s8)
bfc05cbc:	a0400000 	sb	zero,0(v0)
bfc05cc0:	8fc20000 	lw	v0,0(s8)
bfc05cc4:	24420001 	addiu	v0,v0,1
bfc05cc8:	afc20000 	sw	v0,0(s8)
D:\loongson\projects\ls1d_ucos\source/os_core.c:583
#endif

#if OS_EVENT_TBL_SIZE > 5
    *ptbl++            = 0x00;
bfc05ccc:	8fc20000 	lw	v0,0(s8)
bfc05cd0:	a0400000 	sb	zero,0(v0)
bfc05cd4:	8fc20000 	lw	v0,0(s8)
bfc05cd8:	24420001 	addiu	v0,v0,1
bfc05cdc:	afc20000 	sw	v0,0(s8)
D:\loongson\projects\ls1d_ucos\source/os_core.c:587
#endif

#if OS_EVENT_TBL_SIZE > 6
    *ptbl++            = 0x00;
bfc05ce0:	8fc20000 	lw	v0,0(s8)
bfc05ce4:	a0400000 	sb	zero,0(v0)
bfc05ce8:	8fc20000 	lw	v0,0(s8)
bfc05cec:	24420001 	addiu	v0,v0,1
bfc05cf0:	afc20000 	sw	v0,0(s8)
D:\loongson\projects\ls1d_ucos\source/os_core.c:591
#endif

#if OS_EVENT_TBL_SIZE > 7
    *ptbl              = 0x00;
bfc05cf4:	8fc20000 	lw	v0,0(s8)
bfc05cf8:	a0400000 	sb	zero,0(v0)
D:\loongson\projects\ls1d_ucos\source/os_core.c:593
#endif
}
bfc05cfc:	03c0e821 	move	sp,s8
bfc05d00:	8fbe000c 	lw	s8,12(sp)
bfc05d04:	27bd0010 	addiu	sp,sp,16
bfc05d08:	03e00008 	jr	ra
bfc05d0c:	00000000 	nop

bfc05d10 <OS_InitEventList>:
OS_InitEventList():
D:\loongson\projects\ls1d_ucos\source/os_core.c:610
* Returns    : none
*********************************************************************************************************
*/

static  void  OS_InitEventList (void)
{
bfc05d10:	27bdffe8 	addiu	sp,sp,-24
bfc05d14:	afbe0014 	sw	s8,20(sp)
bfc05d18:	03a0f021 	move	s8,sp
D:\loongson\projects\ls1d_ucos\source/os_core.c:618
    INT16U     i;
    OS_EVENT  *pevent1;
    OS_EVENT  *pevent2;


    pevent1 = &OSEventTbl[0];
bfc05d1c:	3c02a000 	lui	v0,0xa000
bfc05d20:	2442113c 	addiu	v0,v0,4412
bfc05d24:	afc20004 	sw	v0,4(s8)
D:\loongson\projects\ls1d_ucos\source/os_core.c:619
    pevent2 = &OSEventTbl[1];
bfc05d28:	3c02a000 	lui	v0,0xa000
bfc05d2c:	2442114c 	addiu	v0,v0,4428
bfc05d30:	afc20000 	sw	v0,0(s8)
D:\loongson\projects\ls1d_ucos\source/os_core.c:620
    for (i = 0; i < (OS_MAX_EVENTS - 1); i++) {                  /* Init. list of free EVENT control blocks  */
bfc05d34:	a7c00008 	sh	zero,8(s8)
bfc05d38:	0bf0175e 	j	bfc05d78 <OS_InitEventList+0x68>
bfc05d3c:	00000000 	nop
D:\loongson\projects\ls1d_ucos\source/os_core.c:621
        pevent1->OSEventType = OS_EVENT_TYPE_UNUSED;
bfc05d40:	8fc20004 	lw	v0,4(s8)
bfc05d44:	a0400000 	sb	zero,0(v0)
D:\loongson\projects\ls1d_ucos\source/os_core.c:622
        pevent1->OSEventPtr  = pevent2;
bfc05d48:	8fc30004 	lw	v1,4(s8)
bfc05d4c:	8fc20000 	lw	v0,0(s8)
bfc05d50:	ac620004 	sw	v0,4(v1)
D:\loongson\projects\ls1d_ucos\source/os_core.c:623
        pevent1++;
bfc05d54:	8fc20004 	lw	v0,4(s8)
bfc05d58:	24420010 	addiu	v0,v0,16
bfc05d5c:	afc20004 	sw	v0,4(s8)
D:\loongson\projects\ls1d_ucos\source/os_core.c:624
        pevent2++;
bfc05d60:	8fc20000 	lw	v0,0(s8)
bfc05d64:	24420010 	addiu	v0,v0,16
bfc05d68:	afc20000 	sw	v0,0(s8)
D:\loongson\projects\ls1d_ucos\source/os_core.c:620
    OS_EVENT  *pevent2;


    pevent1 = &OSEventTbl[0];
    pevent2 = &OSEventTbl[1];
    for (i = 0; i < (OS_MAX_EVENTS - 1); i++) {                  /* Init. list of free EVENT control blocks  */
bfc05d6c:	97c20008 	lhu	v0,8(s8)
bfc05d70:	24420001 	addiu	v0,v0,1
bfc05d74:	a7c20008 	sh	v0,8(s8)
bfc05d78:	97c20008 	lhu	v0,8(s8)
bfc05d7c:	2c420004 	sltiu	v0,v0,4
bfc05d80:	1440ffef 	bnez	v0,bfc05d40 <OS_InitEventList+0x30>
bfc05d84:	00000000 	nop
D:\loongson\projects\ls1d_ucos\source/os_core.c:626
        pevent1->OSEventType = OS_EVENT_TYPE_UNUSED;
        pevent1->OSEventPtr  = pevent2;
        pevent1++;
        pevent2++;
    }
    pevent1->OSEventType = OS_EVENT_TYPE_UNUSED;
bfc05d88:	8fc20004 	lw	v0,4(s8)
bfc05d8c:	a0400000 	sb	zero,0(v0)
D:\loongson\projects\ls1d_ucos\source/os_core.c:627
    pevent1->OSEventPtr  = (OS_EVENT *)0;
bfc05d90:	8fc20004 	lw	v0,4(s8)
bfc05d94:	ac400004 	sw	zero,4(v0)
D:\loongson\projects\ls1d_ucos\source/os_core.c:628
    OSEventFreeList      = &OSEventTbl[0];
bfc05d98:	3c03a000 	lui	v1,0xa000
bfc05d9c:	3c02a000 	lui	v0,0xa000
bfc05da0:	2442113c 	addiu	v0,v0,4412
bfc05da4:	ac621080 	sw	v0,4224(v1)
D:\loongson\projects\ls1d_ucos\source/os_core.c:635
    OSEventFreeList              = &OSEventTbl[0];               /* Only have ONE event control block        */
    OSEventFreeList->OSEventType = OS_EVENT_TYPE_UNUSED;
    OSEventFreeList->OSEventPtr  = (OS_EVENT *)0;
#endif
#endif
}
bfc05da8:	03c0e821 	move	sp,s8
bfc05dac:	8fbe0014 	lw	s8,20(sp)
bfc05db0:	27bd0018 	addiu	sp,sp,24
bfc05db4:	03e00008 	jr	ra
bfc05db8:	00000000 	nop

bfc05dbc <OS_InitMisc>:
OS_InitMisc():
D:\loongson\projects\ls1d_ucos\source/os_core.c:671
* Returns    : none
*********************************************************************************************************
*/

static  void  OS_InitMisc (void)
{
bfc05dbc:	27bdfff8 	addiu	sp,sp,-8
bfc05dc0:	afbe0004 	sw	s8,4(sp)
bfc05dc4:	03a0f021 	move	s8,sp
D:\loongson\projects\ls1d_ucos\source/os_core.c:672
    OSIntNesting  = 0;                                           /* Clear the interrupt nesting counter      */
bfc05dc8:	3c02a000 	lui	v0,0xa000
bfc05dcc:	a0401098 	sb	zero,4248(v0)
D:\loongson\projects\ls1d_ucos\source/os_core.c:673
    OSLockNesting = 0;                                           /* Clear the scheduling lock counter        */
bfc05dd0:	3c02a000 	lui	v0,0xa000
bfc05dd4:	a0401001 	sb	zero,4097(v0)
D:\loongson\projects\ls1d_ucos\source/os_core.c:675

    OSTaskCtr     = 0;                                           /* Clear the number of tasks                */
bfc05dd8:	3c02a000 	lui	v0,0xa000
bfc05ddc:	a0401058 	sb	zero,4184(v0)
D:\loongson\projects\ls1d_ucos\source/os_core.c:677

    OSRunning     = FALSE;                                       /* Indicate that multitasking not started   */
bfc05de0:	3c02a000 	lui	v0,0xa000
bfc05de4:	a0401002 	sb	zero,4098(v0)
D:\loongson\projects\ls1d_ucos\source/os_core.c:679

    OSCtxSwCtr    = 0;                                           /* Clear the context switch counter         */
bfc05de8:	3c02a000 	lui	v0,0xa000
bfc05dec:	ac401030 	sw	zero,4144(v0)
D:\loongson\projects\ls1d_ucos\source/os_core.c:680
    OSIdleCtr     = 0L;                                          /* Clear the 32-bit idle counter            */
bfc05df0:	3c02a000 	lui	v0,0xa000
bfc05df4:	ac401008 	sw	zero,4104(v0)
D:\loongson\projects\ls1d_ucos\source/os_core.c:687
#if (OS_TASK_STAT_EN > 0) && (OS_TASK_CREATE_EXT_EN > 0)
    OSIdleCtrRun  = 0L;
    OSIdleCtrMax  = 0L;
    OSStatRdy     = FALSE;                                       /* Statistic task is not ready              */
#endif
}
bfc05df8:	03c0e821 	move	sp,s8
bfc05dfc:	8fbe0004 	lw	s8,4(sp)
bfc05e00:	27bd0008 	addiu	sp,sp,8
bfc05e04:	03e00008 	jr	ra
bfc05e08:	00000000 	nop

bfc05e0c <OS_InitRdyList>:
OS_InitRdyList():
D:\loongson\projects\ls1d_ucos\source/os_core.c:702
*
* Returns    : none
*********************************************************************************************************
*/
static  void  OS_InitRdyList (void)
{
bfc05e0c:	27bdfff0 	addiu	sp,sp,-16
bfc05e10:	afbe000c 	sw	s8,12(sp)
bfc05e14:	03a0f021 	move	s8,sp
D:\loongson\projects\ls1d_ucos\source/os_core.c:706
    INT16U   i;
    INT8U   *prdytbl;

    OSRdyGrp      = 0x00;                                        /* Clear the ready list                     */
bfc05e18:	3c02a000 	lui	v0,0xa000
bfc05e1c:	a0401068 	sb	zero,4200(v0)
D:\loongson\projects\ls1d_ucos\source/os_core.c:707
    prdytbl       = &OSRdyTbl[0];
bfc05e20:	3c02a000 	lui	v0,0xa000
bfc05e24:	24421070 	addiu	v0,v0,4208
bfc05e28:	afc20000 	sw	v0,0(s8)
D:\loongson\projects\ls1d_ucos\source/os_core.c:708
    for (i = 0; i < OS_RDY_TBL_SIZE; i++) {
bfc05e2c:	a7c00004 	sh	zero,4(s8)
bfc05e30:	0bf01796 	j	bfc05e58 <OS_InitRdyList+0x4c>
bfc05e34:	00000000 	nop
D:\loongson\projects\ls1d_ucos\source/os_core.c:709
        *prdytbl++ = 0x00;
bfc05e38:	8fc20000 	lw	v0,0(s8)
bfc05e3c:	a0400000 	sb	zero,0(v0)
bfc05e40:	8fc20000 	lw	v0,0(s8)
bfc05e44:	24420001 	addiu	v0,v0,1
bfc05e48:	afc20000 	sw	v0,0(s8)
D:\loongson\projects\ls1d_ucos\source/os_core.c:708
    INT16U   i;
    INT8U   *prdytbl;

    OSRdyGrp      = 0x00;                                        /* Clear the ready list                     */
    prdytbl       = &OSRdyTbl[0];
    for (i = 0; i < OS_RDY_TBL_SIZE; i++) {
bfc05e4c:	97c20004 	lhu	v0,4(s8)
bfc05e50:	24420001 	addiu	v0,v0,1
bfc05e54:	a7c20004 	sh	v0,4(s8)
bfc05e58:	97c20004 	lhu	v0,4(s8)
bfc05e5c:	2c420008 	sltiu	v0,v0,8
bfc05e60:	1440fff5 	bnez	v0,bfc05e38 <OS_InitRdyList+0x2c>
bfc05e64:	00000000 	nop
D:\loongson\projects\ls1d_ucos\source/os_core.c:712
        *prdytbl++ = 0x00;
    }

    OSPrioCur     = 0;
bfc05e68:	3c02a000 	lui	v0,0xa000
bfc05e6c:	a0401020 	sb	zero,4128(v0)
D:\loongson\projects\ls1d_ucos\source/os_core.c:713
    OSPrioHighRdy = 0;
bfc05e70:	3c02a000 	lui	v0,0xa000
bfc05e74:	a0401010 	sb	zero,4112(v0)
D:\loongson\projects\ls1d_ucos\source/os_core.c:715

    OSTCBHighRdy  = (OS_TCB *)0;
bfc05e78:	3c02a000 	lui	v0,0xa000
bfc05e7c:	ac401064 	sw	zero,4196(v0)
D:\loongson\projects\ls1d_ucos\source/os_core.c:716
    OSTCBCur      = (OS_TCB *)0;
bfc05e80:	3c02a000 	lui	v0,0xa000
bfc05e84:	ac4010a0 	sw	zero,4256(v0)
D:\loongson\projects\ls1d_ucos\source/os_core.c:717
}
bfc05e88:	03c0e821 	move	sp,s8
bfc05e8c:	8fbe000c 	lw	s8,12(sp)
bfc05e90:	27bd0010 	addiu	sp,sp,16
bfc05e94:	03e00008 	jr	ra
bfc05e98:	00000000 	nop

bfc05e9c <OS_InitTaskIdle>:
OS_InitTaskIdle():
D:\loongson\projects\ls1d_ucos\source/os_core.c:733
*
* Returns    : none
*********************************************************************************************************
*/
static  void  OS_InitTaskIdle (void)
{
bfc05e9c:	27bdffe8 	addiu	sp,sp,-24
bfc05ea0:	afbf0014 	sw	ra,20(sp)
bfc05ea4:	afbe0010 	sw	s8,16(sp)
bfc05ea8:	03a0f021 	move	s8,sp
D:\loongson\projects\ls1d_ucos\source/os_core.c:758
                          (void *)0,                                 /* No TCB extension                     */
                          OS_TASK_OPT_STK_CHK | OS_TASK_OPT_STK_CLR);/* Enable stack checking + clear stack  */
    #endif
#else
    #if OS_STK_GROWTH == 1
    (void)OSTaskCreate(OS_TaskIdle,
bfc05eac:	3c02bfc0 	lui	v0,0xbfc0
bfc05eb0:	244460fc 	addiu	a0,v0,24828
bfc05eb4:	00002821 	move	a1,zero
bfc05eb8:	3c02a000 	lui	v0,0xa000
bfc05ebc:	34460f00 	ori	a2,v0,0xf00
bfc05ec0:	2407003f 	li	a3,63
bfc05ec4:	3c02bfc0 	lui	v0,0xbfc0
bfc05ec8:	24594f10 	addiu	t9,v0,20240
bfc05ecc:	0320f809 	jalr	t9
bfc05ed0:	00000000 	nop
D:\loongson\projects\ls1d_ucos\source/os_core.c:769
                       (void *)0,
                       &OSTaskIdleStk[0],
                       OS_IDLE_PRIO);
    #endif
#endif
}
bfc05ed4:	03c0e821 	move	sp,s8
bfc05ed8:	8fbf0014 	lw	ra,20(sp)
bfc05edc:	8fbe0010 	lw	s8,16(sp)
bfc05ee0:	27bd0018 	addiu	sp,sp,24
bfc05ee4:	03e00008 	jr	ra
bfc05ee8:	00000000 	nop

bfc05eec <OS_InitTCBList>:
OS_InitTCBList():
D:\loongson\projects\ls1d_ucos\source/os_core.c:839
* Returns    : none
*********************************************************************************************************
*/

static  void  OS_InitTCBList (void)
{
bfc05eec:	27bdffe8 	addiu	sp,sp,-24
bfc05ef0:	afbe0014 	sw	s8,20(sp)
bfc05ef4:	03a0f021 	move	s8,sp
D:\loongson\projects\ls1d_ucos\source/os_core.c:844
    INT8U    i;
    OS_TCB  *ptcb1;
    OS_TCB  *ptcb2;

    OSTCBList     = (OS_TCB *)0;                                 /* TCB Initialization                       */
bfc05ef8:	3c02a000 	lui	v0,0xa000
bfc05efc:	ac401028 	sw	zero,4136(v0)
D:\loongson\projects\ls1d_ucos\source/os_core.c:845
    for (i = 0; i < (OS_LOWEST_PRIO + 1); i++) {                 /* Clear the priority table                 */
bfc05f00:	a3c00008 	sb	zero,8(s8)
bfc05f04:	0bf017cb 	j	bfc05f2c <OS_InitTCBList+0x40>
bfc05f08:	00000000 	nop
D:\loongson\projects\ls1d_ucos\source/os_core.c:846
        OSTCBPrioTbl[i] = (OS_TCB *)0;
bfc05f0c:	93c20008 	lbu	v0,8(s8)
bfc05f10:	00021880 	sll	v1,v0,0x2
bfc05f14:	3c02a000 	lui	v0,0xa000
bfc05f18:	00621021 	addu	v0,v1,v0
bfc05f1c:	ac400000 	sw	zero,0(v0)
D:\loongson\projects\ls1d_ucos\source/os_core.c:845
    INT8U    i;
    OS_TCB  *ptcb1;
    OS_TCB  *ptcb2;

    OSTCBList     = (OS_TCB *)0;                                 /* TCB Initialization                       */
    for (i = 0; i < (OS_LOWEST_PRIO + 1); i++) {                 /* Clear the priority table                 */
bfc05f20:	93c20008 	lbu	v0,8(s8)
bfc05f24:	24420001 	addiu	v0,v0,1
bfc05f28:	a3c20008 	sb	v0,8(s8)
bfc05f2c:	93c20008 	lbu	v0,8(s8)
bfc05f30:	2c420040 	sltiu	v0,v0,64
bfc05f34:	1440fff5 	bnez	v0,bfc05f0c <OS_InitTCBList+0x20>
bfc05f38:	00000000 	nop
D:\loongson\projects\ls1d_ucos\source/os_core.c:848
        OSTCBPrioTbl[i] = (OS_TCB *)0;
    }
    ptcb1 = &OSTCBTbl[0];
bfc05f3c:	3c02a000 	lui	v0,0xa000
bfc05f40:	34420100 	ori	v0,v0,0x100
bfc05f44:	afc20004 	sw	v0,4(s8)
D:\loongson\projects\ls1d_ucos\source/os_core.c:849
    ptcb2 = &OSTCBTbl[1];
bfc05f48:	3c02a000 	lui	v0,0xa000
bfc05f4c:	3442011c 	ori	v0,v0,0x11c
bfc05f50:	afc20000 	sw	v0,0(s8)
D:\loongson\projects\ls1d_ucos\source/os_core.c:850
    for (i = 0; i < (OS_MAX_TASKS + OS_N_SYS_TASKS - 1); i++) {  /* Init. list of free TCBs                  */
bfc05f54:	a3c00008 	sb	zero,8(s8)
bfc05f58:	0bf017e4 	j	bfc05f90 <OS_InitTCBList+0xa4>
bfc05f5c:	00000000 	nop
D:\loongson\projects\ls1d_ucos\source/os_core.c:851
        ptcb1->OSTCBNext = ptcb2;
bfc05f60:	8fc30004 	lw	v1,4(s8)
bfc05f64:	8fc20000 	lw	v0,0(s8)
bfc05f68:	ac620004 	sw	v0,4(v1)
D:\loongson\projects\ls1d_ucos\source/os_core.c:852
        ptcb1++;
bfc05f6c:	8fc20004 	lw	v0,4(s8)
bfc05f70:	2442001c 	addiu	v0,v0,28
bfc05f74:	afc20004 	sw	v0,4(s8)
D:\loongson\projects\ls1d_ucos\source/os_core.c:853
        ptcb2++;
bfc05f78:	8fc20000 	lw	v0,0(s8)
bfc05f7c:	2442001c 	addiu	v0,v0,28
bfc05f80:	afc20000 	sw	v0,0(s8)
D:\loongson\projects\ls1d_ucos\source/os_core.c:850
    for (i = 0; i < (OS_LOWEST_PRIO + 1); i++) {                 /* Clear the priority table                 */
        OSTCBPrioTbl[i] = (OS_TCB *)0;
    }
    ptcb1 = &OSTCBTbl[0];
    ptcb2 = &OSTCBTbl[1];
    for (i = 0; i < (OS_MAX_TASKS + OS_N_SYS_TASKS - 1); i++) {  /* Init. list of free TCBs                  */
bfc05f84:	93c20008 	lbu	v0,8(s8)
bfc05f88:	24420001 	addiu	v0,v0,1
bfc05f8c:	a3c20008 	sb	v0,8(s8)
bfc05f90:	93c20008 	lbu	v0,8(s8)
bfc05f94:	2c420006 	sltiu	v0,v0,6
bfc05f98:	1440fff1 	bnez	v0,bfc05f60 <OS_InitTCBList+0x74>
bfc05f9c:	00000000 	nop
D:\loongson\projects\ls1d_ucos\source/os_core.c:855
        ptcb1->OSTCBNext = ptcb2;
        ptcb1++;
        ptcb2++;
    }
    ptcb1->OSTCBNext = (OS_TCB *)0;                              /* Last OS_TCB                              */
bfc05fa0:	8fc20004 	lw	v0,4(s8)
bfc05fa4:	ac400004 	sw	zero,4(v0)
D:\loongson\projects\ls1d_ucos\source/os_core.c:856
    OSTCBFreeList    = &OSTCBTbl[0];
bfc05fa8:	3c03a000 	lui	v1,0xa000
bfc05fac:	3c02a000 	lui	v0,0xa000
bfc05fb0:	34420100 	ori	v0,v0,0x100
bfc05fb4:	ac621040 	sw	v0,4160(v1)
D:\loongson\projects\ls1d_ucos\source/os_core.c:857
}
bfc05fb8:	03c0e821 	move	sp,s8
bfc05fbc:	8fbe0014 	lw	s8,20(sp)
bfc05fc0:	27bd0018 	addiu	sp,sp,24
bfc05fc4:	03e00008 	jr	ra
bfc05fc8:	00000000 	nop

bfc05fcc <OS_Sched>:
OS_Sched():
D:\loongson\projects\ls1d_ucos\source/os_core.c:877
*              2) Rescheduling is prevented when the scheduler is locked (see OS_SchedLock())
*********************************************************************************************************
*/

void  OS_Sched (void)
{
bfc05fcc:	27bdffe0 	addiu	sp,sp,-32
bfc05fd0:	afbf001c 	sw	ra,28(sp)
bfc05fd4:	afbe0018 	sw	s8,24(sp)
bfc05fd8:	03a0f021 	move	s8,sp
D:\loongson\projects\ls1d_ucos\source/os_core.c:883
#if OS_CRITICAL_METHOD == 3                            /* Allocate storage for CPU status register     */
    OS_CPU_SR  cpu_sr;
#endif
    INT8U      y;

    OS_ENTER_CRITICAL();
bfc05fdc:	3c02bfc0 	lui	v0,0xbfc0
bfc05fe0:	245973f0 	addiu	t9,v0,29680
bfc05fe4:	0320f809 	jalr	t9
bfc05fe8:	00000000 	nop
bfc05fec:	afc20014 	sw	v0,20(s8)
D:\loongson\projects\ls1d_ucos\source/os_core.c:884
    if ((OSIntNesting == 0) && (OSLockNesting == 0)) { /* Sched. only if all ISRs done & not locked    */
bfc05ff0:	3c02a000 	lui	v0,0xa000
bfc05ff4:	90421098 	lbu	v0,4248(v0)
bfc05ff8:	14400035 	bnez	v0,bfc060d0 <OS_Sched+0x104>
bfc05ffc:	00000000 	nop
bfc06000:	3c02a000 	lui	v0,0xa000
bfc06004:	90421001 	lbu	v0,4097(v0)
bfc06008:	14400031 	bnez	v0,bfc060d0 <OS_Sched+0x104>
bfc0600c:	00000000 	nop
D:\loongson\projects\ls1d_ucos\source/os_core.c:885
        y             = OSUnMapTbl[OSRdyGrp];          /* Get pointer to HPT ready to run              */
bfc06010:	3c02a000 	lui	v0,0xa000
bfc06014:	90421068 	lbu	v0,4200(v0)
bfc06018:	00401821 	move	v1,v0
bfc0601c:	3c02bfc1 	lui	v0,0xbfc1
bfc06020:	24429868 	addiu	v0,v0,-26520
bfc06024:	00621021 	addu	v0,v1,v0
bfc06028:	90420000 	lbu	v0,0(v0)
bfc0602c:	a3c20010 	sb	v0,16(s8)
D:\loongson\projects\ls1d_ucos\source/os_core.c:886
        OSPrioHighRdy = (INT8U)((y << 3) + OSUnMapTbl[OSRdyTbl[y]]);
bfc06030:	93c20010 	lbu	v0,16(s8)
bfc06034:	000210c0 	sll	v0,v0,0x3
bfc06038:	304400ff 	andi	a0,v0,0xff
bfc0603c:	93c30010 	lbu	v1,16(s8)
bfc06040:	3c02a000 	lui	v0,0xa000
bfc06044:	24421070 	addiu	v0,v0,4208
bfc06048:	00621021 	addu	v0,v1,v0
bfc0604c:	90420000 	lbu	v0,0(v0)
bfc06050:	00401821 	move	v1,v0
bfc06054:	3c02bfc1 	lui	v0,0xbfc1
bfc06058:	24429868 	addiu	v0,v0,-26520
bfc0605c:	00621021 	addu	v0,v1,v0
bfc06060:	90420000 	lbu	v0,0(v0)
bfc06064:	00821021 	addu	v0,a0,v0
bfc06068:	304300ff 	andi	v1,v0,0xff
bfc0606c:	3c02a000 	lui	v0,0xa000
bfc06070:	a0431010 	sb	v1,4112(v0)
D:\loongson\projects\ls1d_ucos\source/os_core.c:887
        if (OSPrioHighRdy != OSPrioCur) {              /* No Ctx Sw if current task is highest rdy     */
bfc06074:	3c02a000 	lui	v0,0xa000
bfc06078:	90431010 	lbu	v1,4112(v0)
bfc0607c:	3c02a000 	lui	v0,0xa000
bfc06080:	90421020 	lbu	v0,4128(v0)
bfc06084:	10620012 	beq	v1,v0,bfc060d0 <OS_Sched+0x104>
bfc06088:	00000000 	nop
D:\loongson\projects\ls1d_ucos\source/os_core.c:888
            OSTCBHighRdy = OSTCBPrioTbl[OSPrioHighRdy];
bfc0608c:	3c02a000 	lui	v0,0xa000
bfc06090:	90421010 	lbu	v0,4112(v0)
bfc06094:	00021880 	sll	v1,v0,0x2
bfc06098:	3c02a000 	lui	v0,0xa000
bfc0609c:	00621021 	addu	v0,v1,v0
bfc060a0:	8c430000 	lw	v1,0(v0)
bfc060a4:	3c02a000 	lui	v0,0xa000
bfc060a8:	ac431064 	sw	v1,4196(v0)
D:\loongson\projects\ls1d_ucos\source/os_core.c:889
            OSCtxSwCtr++;                              /* Increment context switch counter             */
bfc060ac:	3c02a000 	lui	v0,0xa000
bfc060b0:	8c421030 	lw	v0,4144(v0)
bfc060b4:	24430001 	addiu	v1,v0,1
bfc060b8:	3c02a000 	lui	v0,0xa000
bfc060bc:	ac431030 	sw	v1,4144(v0)
D:\loongson\projects\ls1d_ucos\source/os_core.c:890
            OS_TASK_SW();                              /* Perform a context switch                     */
bfc060c0:	3c02bfc0 	lui	v0,0xbfc0
bfc060c4:	245971e8 	addiu	t9,v0,29160
bfc060c8:	0320f809 	jalr	t9
bfc060cc:	00000000 	nop
D:\loongson\projects\ls1d_ucos\source/os_core.c:893
        }
    }
    OS_EXIT_CRITICAL();
bfc060d0:	8fc40014 	lw	a0,20(s8)
bfc060d4:	3c02bfc0 	lui	v0,0xbfc0
bfc060d8:	24597408 	addiu	t9,v0,29704
bfc060dc:	0320f809 	jalr	t9
bfc060e0:	00000000 	nop
D:\loongson\projects\ls1d_ucos\source/os_core.c:894
}
bfc060e4:	03c0e821 	move	sp,s8
bfc060e8:	8fbf001c 	lw	ra,28(sp)
bfc060ec:	8fbe0018 	lw	s8,24(sp)
bfc060f0:	27bd0020 	addiu	sp,sp,32
bfc060f4:	03e00008 	jr	ra
bfc060f8:	00000000 	nop

bfc060fc <OS_TaskIdle>:
OS_TaskIdle():
D:\loongson\projects\ls1d_ucos\source/os_core.c:918
*                 power.
*********************************************************************************************************
*/
//extern	volatile	INT8U	HookEn;
void  OS_TaskIdle (void *pdata)
{
bfc060fc:	27bdffe0 	addiu	sp,sp,-32
bfc06100:	afbf001c 	sw	ra,28(sp)
bfc06104:	afbe0018 	sw	s8,24(sp)
bfc06108:	03a0f021 	move	s8,sp
bfc0610c:	afc40020 	sw	a0,32(s8)
D:\loongson\projects\ls1d_ucos\source/os_core.c:924
#if OS_CRITICAL_METHOD == 3                      /* Allocate storage for CPU status register           */
    OS_CPU_SR  cpu_sr;
#endif

    for (;;) {
        OS_ENTER_CRITICAL();
bfc06110:	3c02bfc0 	lui	v0,0xbfc0
bfc06114:	245973f0 	addiu	t9,v0,29680
bfc06118:	0320f809 	jalr	t9
bfc0611c:	00000000 	nop
bfc06120:	afc20010 	sw	v0,16(s8)
D:\loongson\projects\ls1d_ucos\source/os_core.c:926
        //OSIdleCtr++;
        OSTaskIdleHook();					 /* Call user definable HOOK                           */
bfc06124:	3c02bfc0 	lui	v0,0xbfc0
bfc06128:	24590aa0 	addiu	t9,v0,2720
bfc0612c:	0320f809 	jalr	t9
bfc06130:	00000000 	nop
D:\loongson\projects\ls1d_ucos\source/os_core.c:927
        OS_EXIT_CRITICAL();
bfc06134:	8fc40010 	lw	a0,16(s8)
bfc06138:	3c02bfc0 	lui	v0,0xbfc0
bfc0613c:	24597408 	addiu	t9,v0,29704
bfc06140:	0320f809 	jalr	t9
bfc06144:	00000000 	nop
bfc06148:	0bf01844 	j	bfc06110 <OS_TaskIdle+0x14>
bfc0614c:	00000000 	nop

bfc06150 <OS_TCBInit>:
OS_TCBInit():
D:\loongson\projects\ls1d_ucos\source/os_core.c:1040
* Note       : This function is INTERNAL to uC/OS-II and your application should not call it.
*********************************************************************************************************
*/

INT8U  OS_TCBInit (INT8U prio, OS_STK *ptos, OS_STK *pbos, INT16U id, INT32U stk_size, void *pext, INT16U opt)
{
bfc06150:	27bdffd8 	addiu	sp,sp,-40
bfc06154:	afbf0024 	sw	ra,36(sp)
bfc06158:	afbe0020 	sw	s8,32(sp)
bfc0615c:	03a0f021 	move	s8,sp
bfc06160:	afc5002c 	sw	a1,44(s8)
bfc06164:	afc60030 	sw	a2,48(s8)
bfc06168:	00e01021 	move	v0,a3
bfc0616c:	8fc30040 	lw	v1,64(s8)
bfc06170:	a3c40028 	sb	a0,40(s8)
bfc06174:	a7c20034 	sh	v0,52(s8)
bfc06178:	a7c30018 	sh	v1,24(s8)
D:\loongson\projects\ls1d_ucos\source/os_core.c:1045
#if OS_CRITICAL_METHOD == 3                                /* Allocate storage for CPU status register */
    OS_CPU_SR  cpu_sr;
#endif
    OS_TCB    *ptcb;
    OS_ENTER_CRITICAL();
bfc0617c:	3c02bfc0 	lui	v0,0xbfc0
bfc06180:	245973f0 	addiu	t9,v0,29680
bfc06184:	0320f809 	jalr	t9
bfc06188:	00000000 	nop
bfc0618c:	afc20014 	sw	v0,20(s8)
D:\loongson\projects\ls1d_ucos\source/os_core.c:1046
    ptcb = OSTCBFreeList;                                  /* Get a free TCB from the free TCB list    */
bfc06190:	3c02a000 	lui	v0,0xa000
bfc06194:	8c421040 	lw	v0,4160(v0)
bfc06198:	afc20010 	sw	v0,16(s8)
D:\loongson\projects\ls1d_ucos\source/os_core.c:1047
    if (ptcb != (OS_TCB *)0) {
bfc0619c:	8fc20010 	lw	v0,16(s8)
bfc061a0:	10400071 	beqz	v0,bfc06368 <OS_TCBInit+0x218>
bfc061a4:	00000000 	nop
D:\loongson\projects\ls1d_ucos\source/os_core.c:1048
        OSTCBFreeList        = ptcb->OSTCBNext;            /* Update pointer to free TCB list          */
bfc061a8:	8fc20010 	lw	v0,16(s8)
bfc061ac:	8c430004 	lw	v1,4(v0)
bfc061b0:	3c02a000 	lui	v0,0xa000
bfc061b4:	ac431040 	sw	v1,4160(v0)
D:\loongson\projects\ls1d_ucos\source/os_core.c:1049
        OS_EXIT_CRITICAL();
bfc061b8:	8fc40014 	lw	a0,20(s8)
bfc061bc:	3c02bfc0 	lui	v0,0xbfc0
bfc061c0:	24597408 	addiu	t9,v0,29704
bfc061c4:	0320f809 	jalr	t9
bfc061c8:	00000000 	nop
D:\loongson\projects\ls1d_ucos\source/os_core.c:1050
        ptcb->OSTCBStkPtr    = ptos;                       /* Load Stack pointer in TCB                */
bfc061cc:	8fc30010 	lw	v1,16(s8)
bfc061d0:	8fc2002c 	lw	v0,44(s8)
bfc061d4:	ac620000 	sw	v0,0(v1)
D:\loongson\projects\ls1d_ucos\source/os_core.c:1051
        ptcb->OSTCBPrio      = (INT8U)prio;                /* Load task priority into TCB              */
bfc061d8:	8fc30010 	lw	v1,16(s8)
bfc061dc:	93c20028 	lbu	v0,40(s8)
bfc061e0:	a0620017 	sb	v0,23(v1)
D:\loongson\projects\ls1d_ucos\source/os_core.c:1052
        ptcb->OSTCBStat      = OS_STAT_RDY;                /* Task is ready to run                     */
bfc061e4:	8fc20010 	lw	v0,16(s8)
bfc061e8:	a0400016 	sb	zero,22(v0)
D:\loongson\projects\ls1d_ucos\source/os_core.c:1053
        ptcb->OSTCBDly       = 0;                          /* Task is not delayed                      */
bfc061ec:	8fc20010 	lw	v0,16(s8)
bfc061f0:	a4400014 	sh	zero,20(v0)
D:\loongson\projects\ls1d_ucos\source/os_core.c:1073

#if OS_TASK_DEL_EN > 0
        ptcb->OSTCBDelReq    = OS_NO_ERR;
#endif

        ptcb->OSTCBY         = prio >> 3;                  /* Pre-compute X, Y, BitX and BitY          */
bfc061f4:	93c20028 	lbu	v0,40(s8)
bfc061f8:	000210c2 	srl	v0,v0,0x3
bfc061fc:	304300ff 	andi	v1,v0,0xff
bfc06200:	8fc20010 	lw	v0,16(s8)
bfc06204:	a0430019 	sb	v1,25(v0)
D:\loongson\projects\ls1d_ucos\source/os_core.c:1074
        ptcb->OSTCBBitY      = OSMapTbl[ptcb->OSTCBY];
bfc06208:	8fc20010 	lw	v0,16(s8)
bfc0620c:	90420019 	lbu	v0,25(v0)
bfc06210:	00401821 	move	v1,v0
bfc06214:	3c02bfc1 	lui	v0,0xbfc1
bfc06218:	24429860 	addiu	v0,v0,-26528
bfc0621c:	00621021 	addu	v0,v1,v0
bfc06220:	90430000 	lbu	v1,0(v0)
bfc06224:	8fc20010 	lw	v0,16(s8)
bfc06228:	a043001b 	sb	v1,27(v0)
D:\loongson\projects\ls1d_ucos\source/os_core.c:1075
        ptcb->OSTCBX         = prio & 0x07;
bfc0622c:	93c20028 	lbu	v0,40(s8)
bfc06230:	30420007 	andi	v0,v0,0x7
bfc06234:	8fc30010 	lw	v1,16(s8)
bfc06238:	a0620018 	sb	v0,24(v1)
D:\loongson\projects\ls1d_ucos\source/os_core.c:1076
        ptcb->OSTCBBitX      = OSMapTbl[ptcb->OSTCBX];
bfc0623c:	8fc20010 	lw	v0,16(s8)
bfc06240:	90420018 	lbu	v0,24(v0)
bfc06244:	00401821 	move	v1,v0
bfc06248:	3c02bfc1 	lui	v0,0xbfc1
bfc0624c:	24429860 	addiu	v0,v0,-26528
bfc06250:	00621021 	addu	v0,v1,v0
bfc06254:	90430000 	lbu	v1,0(v0)
bfc06258:	8fc20010 	lw	v0,16(s8)
bfc0625c:	a043001a 	sb	v1,26(v0)
D:\loongson\projects\ls1d_ucos\source/os_core.c:1079

#if OS_EVENT_EN > 0
        ptcb->OSTCBEventPtr  = (OS_EVENT *)0;              /* Task is not pending on an event          */
bfc06260:	8fc20010 	lw	v0,16(s8)
bfc06264:	ac40000c 	sw	zero,12(v0)
D:\loongson\projects\ls1d_ucos\source/os_core.c:1087
#if (OS_VERSION >= 251) && (OS_FLAG_EN > 0) && (OS_MAX_FLAGS > 0) && (OS_TASK_DEL_EN > 0)
        ptcb->OSTCBFlagNode  = (OS_FLAG_NODE *)0;          /* Task is not pending on an event flag     */
#endif

#if (OS_MBOX_EN > 0) || ((OS_Q_EN > 0) && (OS_MAX_QS > 0))
        ptcb->OSTCBMsg       = (void *)0;                  /* No message received                      */
bfc06268:	8fc20010 	lw	v0,16(s8)
bfc0626c:	ac400010 	sw	zero,16(v0)
D:\loongson\projects\ls1d_ucos\source/os_core.c:1093
#endif


        ///OSTaskCreateHook(ptcb);                            /* Call user defined hook                   */

        OS_ENTER_CRITICAL();
bfc06270:	3c02bfc0 	lui	v0,0xbfc0
bfc06274:	245973f0 	addiu	t9,v0,29680
bfc06278:	0320f809 	jalr	t9
bfc0627c:	00000000 	nop
bfc06280:	afc20014 	sw	v0,20(s8)
D:\loongson\projects\ls1d_ucos\source/os_core.c:1094
        OSTCBPrioTbl[prio] = ptcb;
bfc06284:	93c20028 	lbu	v0,40(s8)
bfc06288:	00021880 	sll	v1,v0,0x2
bfc0628c:	3c02a000 	lui	v0,0xa000
bfc06290:	00621821 	addu	v1,v1,v0
bfc06294:	8fc20010 	lw	v0,16(s8)
bfc06298:	ac620000 	sw	v0,0(v1)
D:\loongson\projects\ls1d_ucos\source/os_core.c:1095
        ptcb->OSTCBNext    = OSTCBList;                    /* Link into TCB chain                      */
bfc0629c:	3c02a000 	lui	v0,0xa000
bfc062a0:	8c431028 	lw	v1,4136(v0)
bfc062a4:	8fc20010 	lw	v0,16(s8)
bfc062a8:	ac430004 	sw	v1,4(v0)
D:\loongson\projects\ls1d_ucos\source/os_core.c:1096
        ptcb->OSTCBPrev    = (OS_TCB *)0;
bfc062ac:	8fc20010 	lw	v0,16(s8)
bfc062b0:	ac400008 	sw	zero,8(v0)
D:\loongson\projects\ls1d_ucos\source/os_core.c:1097
        if (OSTCBList != (OS_TCB *)0) {
bfc062b4:	3c02a000 	lui	v0,0xa000
bfc062b8:	8c421028 	lw	v0,4136(v0)
bfc062bc:	10400005 	beqz	v0,bfc062d4 <OS_TCBInit+0x184>
bfc062c0:	00000000 	nop
D:\loongson\projects\ls1d_ucos\source/os_core.c:1098
            OSTCBList->OSTCBPrev = ptcb;
bfc062c4:	3c02a000 	lui	v0,0xa000
bfc062c8:	8c431028 	lw	v1,4136(v0)
bfc062cc:	8fc20010 	lw	v0,16(s8)
bfc062d0:	ac620008 	sw	v0,8(v1)
D:\loongson\projects\ls1d_ucos\source/os_core.c:1100
        }
        OSTCBList               = ptcb;
bfc062d4:	3c03a000 	lui	v1,0xa000
bfc062d8:	8fc20010 	lw	v0,16(s8)
bfc062dc:	ac621028 	sw	v0,4136(v1)
D:\loongson\projects\ls1d_ucos\source/os_core.c:1101
        OSRdyGrp               |= ptcb->OSTCBBitY;         /* Make task ready to run                   */
bfc062e0:	8fc20010 	lw	v0,16(s8)
bfc062e4:	9043001b 	lbu	v1,27(v0)
bfc062e8:	3c02a000 	lui	v0,0xa000
bfc062ec:	90421068 	lbu	v0,4200(v0)
bfc062f0:	00621025 	or	v0,v1,v0
bfc062f4:	304300ff 	andi	v1,v0,0xff
bfc062f8:	3c02a000 	lui	v0,0xa000
bfc062fc:	a0431068 	sb	v1,4200(v0)
D:\loongson\projects\ls1d_ucos\source/os_core.c:1102
        OSRdyTbl[ptcb->OSTCBY] |= ptcb->OSTCBBitX;
bfc06300:	8fc20010 	lw	v0,16(s8)
bfc06304:	90420019 	lbu	v0,25(v0)
bfc06308:	00402021 	move	a0,v0
bfc0630c:	8fc20010 	lw	v0,16(s8)
bfc06310:	90420019 	lbu	v0,25(v0)
bfc06314:	00401821 	move	v1,v0
bfc06318:	3c02a000 	lui	v0,0xa000
bfc0631c:	24421070 	addiu	v0,v0,4208
bfc06320:	00621021 	addu	v0,v1,v0
bfc06324:	90430000 	lbu	v1,0(v0)
bfc06328:	8fc20010 	lw	v0,16(s8)
bfc0632c:	9042001a 	lbu	v0,26(v0)
bfc06330:	00621025 	or	v0,v1,v0
bfc06334:	304300ff 	andi	v1,v0,0xff
bfc06338:	3c02a000 	lui	v0,0xa000
bfc0633c:	24421070 	addiu	v0,v0,4208
bfc06340:	00821021 	addu	v0,a0,v0
bfc06344:	a0430000 	sb	v1,0(v0)
D:\loongson\projects\ls1d_ucos\source/os_core.c:1103
        OS_EXIT_CRITICAL();
bfc06348:	8fc40014 	lw	a0,20(s8)
bfc0634c:	3c02bfc0 	lui	v0,0xbfc0
bfc06350:	24597408 	addiu	t9,v0,29704
bfc06354:	0320f809 	jalr	t9
bfc06358:	00000000 	nop
D:\loongson\projects\ls1d_ucos\source/os_core.c:1104
        return (OS_NO_ERR);
bfc0635c:	afc0001c 	sw	zero,28(s8)
bfc06360:	0bf018e1 	j	bfc06384 <OS_TCBInit+0x234>
bfc06364:	00000000 	nop
D:\loongson\projects\ls1d_ucos\source/os_core.c:1106
    }
    OS_EXIT_CRITICAL();
bfc06368:	8fc40014 	lw	a0,20(s8)
bfc0636c:	3c02bfc0 	lui	v0,0xbfc0
bfc06370:	24597408 	addiu	t9,v0,29704
bfc06374:	0320f809 	jalr	t9
bfc06378:	00000000 	nop
D:\loongson\projects\ls1d_ucos\source/os_core.c:1107
    return (OS_NO_MORE_TCB);
bfc0637c:	24020046 	li	v0,70
bfc06380:	afc2001c 	sw	v0,28(s8)
bfc06384:	8fc2001c 	lw	v0,28(s8)
D:\loongson\projects\ls1d_ucos\source/os_core.c:1108
}
bfc06388:	03c0e821 	move	sp,s8
bfc0638c:	8fbf0024 	lw	ra,36(sp)
bfc06390:	8fbe0020 	lw	s8,32(sp)
bfc06394:	27bd0028 	addiu	sp,sp,40
bfc06398:	03e00008 	jr	ra
bfc0639c:	00000000 	nop

bfc063a0 <OSTimeDly>:
OSTimeDly():
D:\loongson\projects\ls1d_ucos\source/os_time.c:36
* Returns    : none
*********************************************************************************************************
*/

void  OSTimeDly (INT16U ticks)
{
bfc063a0:	27bdffe0 	addiu	sp,sp,-32
bfc063a4:	afbf001c 	sw	ra,28(sp)
bfc063a8:	afbe0018 	sw	s8,24(sp)
bfc063ac:	03a0f021 	move	s8,sp
bfc063b0:	00801021 	move	v0,a0
bfc063b4:	a7c20020 	sh	v0,32(s8)
D:\loongson\projects\ls1d_ucos\source/os_time.c:41
#if OS_CRITICAL_METHOD == 3                      /* Allocate storage for CPU status register           */
    OS_CPU_SR  cpu_sr;
#endif

    if (ticks > 0) {                                                      /* 0 means no delay!         */
bfc063b8:	97c20020 	lhu	v0,32(s8)
bfc063bc:	10400049 	beqz	v0,bfc064e4 <OSTimeDly+0x144>
bfc063c0:	00000000 	nop
D:\loongson\projects\ls1d_ucos\source/os_time.c:42
        OS_ENTER_CRITICAL();
bfc063c4:	3c02bfc0 	lui	v0,0xbfc0
bfc063c8:	245973f0 	addiu	t9,v0,29680
bfc063cc:	0320f809 	jalr	t9
bfc063d0:	00000000 	nop
bfc063d4:	afc20010 	sw	v0,16(s8)
D:\loongson\projects\ls1d_ucos\source/os_time.c:43
        if ((OSRdyTbl[OSTCBCur->OSTCBY] &= ~OSTCBCur->OSTCBBitX) == 0) {  /* Delay current task        */
bfc063d8:	3c02a000 	lui	v0,0xa000
bfc063dc:	8c4210a0 	lw	v0,4256(v0)
bfc063e0:	90420019 	lbu	v0,25(v0)
bfc063e4:	00402021 	move	a0,v0
bfc063e8:	3c02a000 	lui	v0,0xa000
bfc063ec:	8c4210a0 	lw	v0,4256(v0)
bfc063f0:	90420019 	lbu	v0,25(v0)
bfc063f4:	00401821 	move	v1,v0
bfc063f8:	3c02a000 	lui	v0,0xa000
bfc063fc:	24421070 	addiu	v0,v0,4208
bfc06400:	00621021 	addu	v0,v1,v0
bfc06404:	90420000 	lbu	v0,0(v0)
bfc06408:	00021e00 	sll	v1,v0,0x18
bfc0640c:	00031e03 	sra	v1,v1,0x18
bfc06410:	3c02a000 	lui	v0,0xa000
bfc06414:	8c4210a0 	lw	v0,4256(v0)
bfc06418:	9042001a 	lbu	v0,26(v0)
bfc0641c:	00021600 	sll	v0,v0,0x18
bfc06420:	00021603 	sra	v0,v0,0x18
bfc06424:	00021027 	nor	v0,zero,v0
bfc06428:	00021600 	sll	v0,v0,0x18
bfc0642c:	00021603 	sra	v0,v0,0x18
bfc06430:	00621024 	and	v0,v1,v0
bfc06434:	00021600 	sll	v0,v0,0x18
bfc06438:	00021603 	sra	v0,v0,0x18
bfc0643c:	304300ff 	andi	v1,v0,0xff
bfc06440:	3c02a000 	lui	v0,0xa000
bfc06444:	24421070 	addiu	v0,v0,4208
bfc06448:	00821021 	addu	v0,a0,v0
bfc0644c:	a0430000 	sb	v1,0(v0)
bfc06450:	3c02a000 	lui	v0,0xa000
bfc06454:	24421070 	addiu	v0,v0,4208
bfc06458:	00821021 	addu	v0,a0,v0
bfc0645c:	90420000 	lbu	v0,0(v0)
bfc06460:	14400013 	bnez	v0,bfc064b0 <OSTimeDly+0x110>
bfc06464:	00000000 	nop
D:\loongson\projects\ls1d_ucos\source/os_time.c:44
            OSRdyGrp &= ~OSTCBCur->OSTCBBitY;
bfc06468:	3c02a000 	lui	v0,0xa000
bfc0646c:	8c4210a0 	lw	v0,4256(v0)
bfc06470:	9042001b 	lbu	v0,27(v0)
bfc06474:	00021600 	sll	v0,v0,0x18
bfc06478:	00021603 	sra	v0,v0,0x18
bfc0647c:	00021027 	nor	v0,zero,v0
bfc06480:	00021e00 	sll	v1,v0,0x18
bfc06484:	00031e03 	sra	v1,v1,0x18
bfc06488:	3c02a000 	lui	v0,0xa000
bfc0648c:	90421068 	lbu	v0,4200(v0)
bfc06490:	00021600 	sll	v0,v0,0x18
bfc06494:	00021603 	sra	v0,v0,0x18
bfc06498:	00621024 	and	v0,v1,v0
bfc0649c:	00021600 	sll	v0,v0,0x18
bfc064a0:	00021603 	sra	v0,v0,0x18
bfc064a4:	304300ff 	andi	v1,v0,0xff
bfc064a8:	3c02a000 	lui	v0,0xa000
bfc064ac:	a0431068 	sb	v1,4200(v0)
D:\loongson\projects\ls1d_ucos\source/os_time.c:46
        }
        OSTCBCur->OSTCBDly = ticks;                                       /* Load ticks in TCB         */
bfc064b0:	3c02a000 	lui	v0,0xa000
bfc064b4:	8c4310a0 	lw	v1,4256(v0)
bfc064b8:	97c20020 	lhu	v0,32(s8)
bfc064bc:	a4620014 	sh	v0,20(v1)
D:\loongson\projects\ls1d_ucos\source/os_time.c:47
        OS_EXIT_CRITICAL();
bfc064c0:	8fc40010 	lw	a0,16(s8)
bfc064c4:	3c02bfc0 	lui	v0,0xbfc0
bfc064c8:	24597408 	addiu	t9,v0,29704
bfc064cc:	0320f809 	jalr	t9
bfc064d0:	00000000 	nop
D:\loongson\projects\ls1d_ucos\source/os_time.c:48
        OS_Sched();                                                       /* Find next task to run!    */
bfc064d4:	3c02bfc0 	lui	v0,0xbfc0
bfc064d8:	24595fcc 	addiu	t9,v0,24524
bfc064dc:	0320f809 	jalr	t9
bfc064e0:	00000000 	nop
D:\loongson\projects\ls1d_ucos\source/os_time.c:50
    }
}
bfc064e4:	03c0e821 	move	sp,s8
bfc064e8:	8fbf001c 	lw	ra,28(sp)
bfc064ec:	8fbe0018 	lw	s8,24(sp)
bfc064f0:	27bd0020 	addiu	sp,sp,32
bfc064f4:	03e00008 	jr	ra
bfc064f8:	00000000 	nop

bfc064fc <OSTimeGet>:
OSTimeGet():
D:\loongson\projects\ls1d_ucos\source/os_time.c:187
*********************************************************************************************************
*/

#if OS_TIME_GET_SET_EN > 0
INT32U  OSTimeGet (void)
{
bfc064fc:	27bdffe0 	addiu	sp,sp,-32
bfc06500:	afbf001c 	sw	ra,28(sp)
bfc06504:	afbe0018 	sw	s8,24(sp)
bfc06508:	03a0f021 	move	s8,sp
D:\loongson\projects\ls1d_ucos\source/os_time.c:193
#if OS_CRITICAL_METHOD == 3                      /* Allocate storage for CPU status register           */
    OS_CPU_SR  cpu_sr;
#endif
    INT32U     ticks;

    OS_ENTER_CRITICAL();
bfc0650c:	3c02bfc0 	lui	v0,0xbfc0
bfc06510:	245973f0 	addiu	t9,v0,29680
bfc06514:	0320f809 	jalr	t9
bfc06518:	00000000 	nop
bfc0651c:	afc20014 	sw	v0,20(s8)
D:\loongson\projects\ls1d_ucos\source/os_time.c:194
    ticks = OSTime;
bfc06520:	3c02a000 	lui	v0,0xa000
bfc06524:	8c4210a8 	lw	v0,4264(v0)
bfc06528:	afc20010 	sw	v0,16(s8)
D:\loongson\projects\ls1d_ucos\source/os_time.c:195
    OS_EXIT_CRITICAL();
bfc0652c:	8fc40014 	lw	a0,20(s8)
bfc06530:	3c02bfc0 	lui	v0,0xbfc0
bfc06534:	24597408 	addiu	t9,v0,29704
bfc06538:	0320f809 	jalr	t9
bfc0653c:	00000000 	nop
D:\loongson\projects\ls1d_ucos\source/os_time.c:196
    return (ticks);
bfc06540:	8fc20010 	lw	v0,16(s8)
D:\loongson\projects\ls1d_ucos\source/os_time.c:197
}
bfc06544:	03c0e821 	move	sp,s8
bfc06548:	8fbf001c 	lw	ra,28(sp)
bfc0654c:	8fbe0018 	lw	s8,24(sp)
bfc06550:	27bd0020 	addiu	sp,sp,32
bfc06554:	03e00008 	jr	ra
bfc06558:	00000000 	nop

bfc0655c <OSTimeSet>:
OSTimeSet():
D:\loongson\projects\ls1d_ucos\source/os_time.c:214
*********************************************************************************************************
*/

#if OS_TIME_GET_SET_EN > 0
void  OSTimeSet (INT32U ticks)
{
bfc0655c:	27bdffe0 	addiu	sp,sp,-32
bfc06560:	afbf001c 	sw	ra,28(sp)
bfc06564:	afbe0018 	sw	s8,24(sp)
bfc06568:	03a0f021 	move	s8,sp
bfc0656c:	afc40020 	sw	a0,32(s8)
D:\loongson\projects\ls1d_ucos\source/os_time.c:220
#if OS_CRITICAL_METHOD == 3                      /* Allocate storage for CPU status register           */
    OS_CPU_SR  cpu_sr;
#endif


    OS_ENTER_CRITICAL();
bfc06570:	3c02bfc0 	lui	v0,0xbfc0
bfc06574:	245973f0 	addiu	t9,v0,29680
bfc06578:	0320f809 	jalr	t9
bfc0657c:	00000000 	nop
bfc06580:	afc20010 	sw	v0,16(s8)
D:\loongson\projects\ls1d_ucos\source/os_time.c:221
    OSTime = ticks;
bfc06584:	3c03a000 	lui	v1,0xa000
bfc06588:	8fc20020 	lw	v0,32(s8)
bfc0658c:	ac6210a8 	sw	v0,4264(v1)
D:\loongson\projects\ls1d_ucos\source/os_time.c:222
    OS_EXIT_CRITICAL();
bfc06590:	8fc40010 	lw	a0,16(s8)
bfc06594:	3c02bfc0 	lui	v0,0xbfc0
bfc06598:	24597408 	addiu	t9,v0,29704
bfc0659c:	0320f809 	jalr	t9
bfc065a0:	00000000 	nop
D:\loongson\projects\ls1d_ucos\source/os_time.c:223
}
bfc065a4:	03c0e821 	move	sp,s8
bfc065a8:	8fbf001c 	lw	ra,28(sp)
bfc065ac:	8fbe0018 	lw	s8,24(sp)
bfc065b0:	27bd0020 	addiu	sp,sp,32
bfc065b4:	03e00008 	jr	ra
bfc065b8:	00000000 	nop
bfc065bc:	00000000 	nop

bfc065c0 <OSMboxCreate>:
OSMboxCreate():
D:\loongson\projects\ls1d_ucos\source/os_mbox.c:79
*              == (OS_EVENT *)0  if no event control blocks were available
*********************************************************************************************************
*/

OS_EVENT  *OSMboxCreate (void *msg)
{
bfc065c0:	27bdffd8 	addiu	sp,sp,-40
bfc065c4:	afbf0024 	sw	ra,36(sp)
bfc065c8:	afbe0020 	sw	s8,32(sp)
bfc065cc:	03a0f021 	move	s8,sp
bfc065d0:	afc40028 	sw	a0,40(s8)
D:\loongson\projects\ls1d_ucos\source/os_mbox.c:86
    OS_CPU_SR  cpu_sr;
#endif
    OS_EVENT  *pevent;


    if (OSIntNesting > 0) {                      /* See if called from ISR ...                         */
bfc065d4:	3c02a000 	lui	v0,0xa000
bfc065d8:	90421098 	lbu	v0,4248(v0)
bfc065dc:	10400004 	beqz	v0,bfc065f0 <OSMboxCreate+0x30>
bfc065e0:	00000000 	nop
D:\loongson\projects\ls1d_ucos\source/os_mbox.c:87
        return ((OS_EVENT *)0);                  /* ... can't CREATE from an ISR                       */
bfc065e4:	afc00018 	sw	zero,24(s8)
bfc065e8:	0bf019a5 	j	bfc06694 <OSMboxCreate+0xd4>
bfc065ec:	00000000 	nop
D:\loongson\projects\ls1d_ucos\source/os_mbox.c:89
    }
    OS_ENTER_CRITICAL();
bfc065f0:	3c02bfc0 	lui	v0,0xbfc0
bfc065f4:	245973f0 	addiu	t9,v0,29680
bfc065f8:	0320f809 	jalr	t9
bfc065fc:	00000000 	nop
bfc06600:	afc20014 	sw	v0,20(s8)
D:\loongson\projects\ls1d_ucos\source/os_mbox.c:90
    pevent = OSEventFreeList;                    /* Get next free event control block                  */
bfc06604:	3c02a000 	lui	v0,0xa000
bfc06608:	8c421080 	lw	v0,4224(v0)
bfc0660c:	afc20010 	sw	v0,16(s8)
D:\loongson\projects\ls1d_ucos\source/os_mbox.c:91
    if (OSEventFreeList != (OS_EVENT *)0) {      /* See if pool of free ECB pool was empty             */
bfc06610:	3c02a000 	lui	v0,0xa000
bfc06614:	8c421080 	lw	v0,4224(v0)
bfc06618:	10400007 	beqz	v0,bfc06638 <OSMboxCreate+0x78>
bfc0661c:	00000000 	nop
D:\loongson\projects\ls1d_ucos\source/os_mbox.c:92
        OSEventFreeList = (OS_EVENT *)OSEventFreeList->OSEventPtr;
bfc06620:	3c02a000 	lui	v0,0xa000
bfc06624:	8c421080 	lw	v0,4224(v0)
bfc06628:	8c420004 	lw	v0,4(v0)
bfc0662c:	00401821 	move	v1,v0
bfc06630:	3c02a000 	lui	v0,0xa000
bfc06634:	ac431080 	sw	v1,4224(v0)
D:\loongson\projects\ls1d_ucos\source/os_mbox.c:94
    }
    OS_EXIT_CRITICAL();
bfc06638:	8fc40014 	lw	a0,20(s8)
bfc0663c:	3c02bfc0 	lui	v0,0xbfc0
bfc06640:	24597408 	addiu	t9,v0,29704
bfc06644:	0320f809 	jalr	t9
bfc06648:	00000000 	nop
D:\loongson\projects\ls1d_ucos\source/os_mbox.c:95
    if (pevent != (OS_EVENT *)0) {
bfc0664c:	8fc20010 	lw	v0,16(s8)
bfc06650:	1040000e 	beqz	v0,bfc0668c <OSMboxCreate+0xcc>
bfc06654:	00000000 	nop
D:\loongson\projects\ls1d_ucos\source/os_mbox.c:96
        pevent->OSEventType = OS_EVENT_TYPE_MBOX;
bfc06658:	8fc30010 	lw	v1,16(s8)
bfc0665c:	24020001 	li	v0,1
bfc06660:	a0620000 	sb	v0,0(v1)
D:\loongson\projects\ls1d_ucos\source/os_mbox.c:97
        pevent->OSEventCnt  = 0;
bfc06664:	8fc20010 	lw	v0,16(s8)
bfc06668:	a4400002 	sh	zero,2(v0)
D:\loongson\projects\ls1d_ucos\source/os_mbox.c:98
        pevent->OSEventPtr  = msg;               /* Deposit message in event control block             */
bfc0666c:	8fc30010 	lw	v1,16(s8)
bfc06670:	8fc20028 	lw	v0,40(s8)
bfc06674:	ac620004 	sw	v0,4(v1)
D:\loongson\projects\ls1d_ucos\source/os_mbox.c:99
        OS_EventWaitListInit(pevent);
bfc06678:	8fc40010 	lw	a0,16(s8)
bfc0667c:	3c02bfc0 	lui	v0,0xbfc0
bfc06680:	24595c44 	addiu	t9,v0,23620
bfc06684:	0320f809 	jalr	t9
bfc06688:	00000000 	nop
D:\loongson\projects\ls1d_ucos\source/os_mbox.c:101
    }
    return (pevent);                             /* Return pointer to event control block              */
bfc0668c:	8fc20010 	lw	v0,16(s8)
bfc06690:	afc20018 	sw	v0,24(s8)
bfc06694:	8fc20018 	lw	v0,24(s8)
D:\loongson\projects\ls1d_ucos\source/os_mbox.c:102
}
bfc06698:	03c0e821 	move	sp,s8
bfc0669c:	8fbf0024 	lw	ra,36(sp)
bfc066a0:	8fbe0020 	lw	s8,32(sp)
bfc066a4:	27bd0028 	addiu	sp,sp,40
bfc066a8:	03e00008 	jr	ra
bfc066ac:	00000000 	nop

bfc066b0 <OSMboxPend>:
OSMboxPend():
D:\loongson\projects\ls1d_ucos\source/os_mbox.c:239
*                            if you didn't pass the proper pointer to the event control block.
*********************************************************************************************************
*/

void  *OSMboxPend (OS_EVENT *pevent, INT16U timeout, INT8U *err)
{
bfc066b0:	27bdffd8 	addiu	sp,sp,-40
bfc066b4:	afbf0024 	sw	ra,36(sp)
bfc066b8:	afbe0020 	sw	s8,32(sp)
bfc066bc:	03a0f021 	move	s8,sp
bfc066c0:	afc40028 	sw	a0,40(s8)
bfc066c4:	00a01021 	move	v0,a1
bfc066c8:	afc60030 	sw	a2,48(s8)
bfc066cc:	a7c2002c 	sh	v0,44(s8)
D:\loongson\projects\ls1d_ucos\source/os_mbox.c:246
    OS_CPU_SR  cpu_sr;
#endif
    void      *msg;


    if (OSIntNesting > 0) {                           /* See if called from ISR ...                    */
bfc066d0:	3c02a000 	lui	v0,0xa000
bfc066d4:	90421098 	lbu	v0,4248(v0)
bfc066d8:	10400007 	beqz	v0,bfc066f8 <OSMboxPend+0x48>
bfc066dc:	00000000 	nop
D:\loongson\projects\ls1d_ucos\source/os_mbox.c:247
        *err = OS_ERR_PEND_ISR;                       /* ... can't PEND from an ISR                    */
bfc066e0:	8fc30030 	lw	v1,48(s8)
bfc066e4:	24020002 	li	v0,2
bfc066e8:	a0620000 	sb	v0,0(v1)
D:\loongson\projects\ls1d_ucos\source/os_mbox.c:248
        return ((void *)0);
bfc066ec:	afc00018 	sw	zero,24(s8)
bfc066f0:	0bf01a1e 	j	bfc06878 <OSMboxPend+0x1c8>
bfc066f4:	00000000 	nop
D:\loongson\projects\ls1d_ucos\source/os_mbox.c:260
    if (pevent->OSEventType != OS_EVENT_TYPE_MBOX) {  /* Validate event block type                     */
        *err = OS_ERR_EVENT_TYPE;
        return ((void *)0);
    }
#endif
    OS_ENTER_CRITICAL();
bfc066f8:	3c02bfc0 	lui	v0,0xbfc0
bfc066fc:	245973f0 	addiu	t9,v0,29680
bfc06700:	0320f809 	jalr	t9
bfc06704:	00000000 	nop
bfc06708:	afc20014 	sw	v0,20(s8)
D:\loongson\projects\ls1d_ucos\source/os_mbox.c:261
    msg = pevent->OSEventPtr;
bfc0670c:	8fc20028 	lw	v0,40(s8)
bfc06710:	8c420004 	lw	v0,4(v0)
bfc06714:	afc20010 	sw	v0,16(s8)
D:\loongson\projects\ls1d_ucos\source/os_mbox.c:262
    if (msg != (void *)0) {                           /* See if there is already a message             */
bfc06718:	8fc20010 	lw	v0,16(s8)
bfc0671c:	1040000e 	beqz	v0,bfc06758 <OSMboxPend+0xa8>
bfc06720:	00000000 	nop
D:\loongson\projects\ls1d_ucos\source/os_mbox.c:263
        pevent->OSEventPtr = (void *)0;               /* Clear the mailbox                             */
bfc06724:	8fc20028 	lw	v0,40(s8)
bfc06728:	ac400004 	sw	zero,4(v0)
D:\loongson\projects\ls1d_ucos\source/os_mbox.c:264
        OS_EXIT_CRITICAL();
bfc0672c:	8fc40014 	lw	a0,20(s8)
bfc06730:	3c02bfc0 	lui	v0,0xbfc0
bfc06734:	24597408 	addiu	t9,v0,29704
bfc06738:	0320f809 	jalr	t9
bfc0673c:	00000000 	nop
D:\loongson\projects\ls1d_ucos\source/os_mbox.c:265
        *err = OS_NO_ERR;
bfc06740:	8fc20030 	lw	v0,48(s8)
bfc06744:	a0400000 	sb	zero,0(v0)
D:\loongson\projects\ls1d_ucos\source/os_mbox.c:266
        return (msg);                                 /* Return the message received (or NULL)         */
bfc06748:	8fc20010 	lw	v0,16(s8)
bfc0674c:	afc20018 	sw	v0,24(s8)
bfc06750:	0bf01a1e 	j	bfc06878 <OSMboxPend+0x1c8>
bfc06754:	00000000 	nop
D:\loongson\projects\ls1d_ucos\source/os_mbox.c:268
    }
    OSTCBCur->OSTCBStat |= OS_STAT_MBOX;              /* Message not available, task will pend         */
bfc06758:	3c02a000 	lui	v0,0xa000
bfc0675c:	8c4310a0 	lw	v1,4256(v0)
bfc06760:	3c02a000 	lui	v0,0xa000
bfc06764:	8c4210a0 	lw	v0,4256(v0)
bfc06768:	90420016 	lbu	v0,22(v0)
bfc0676c:	34420002 	ori	v0,v0,0x2
bfc06770:	304200ff 	andi	v0,v0,0xff
bfc06774:	a0620016 	sb	v0,22(v1)
D:\loongson\projects\ls1d_ucos\source/os_mbox.c:269
    OSTCBCur->OSTCBDly   = timeout;                   /* Load timeout in TCB                           */
bfc06778:	3c02a000 	lui	v0,0xa000
bfc0677c:	8c4310a0 	lw	v1,4256(v0)
bfc06780:	97c2002c 	lhu	v0,44(s8)
bfc06784:	a4620014 	sh	v0,20(v1)
D:\loongson\projects\ls1d_ucos\source/os_mbox.c:270
    OS_EventTaskWait(pevent);                         /* Suspend task until event or timeout occurs    */
bfc06788:	8fc40028 	lw	a0,40(s8)
bfc0678c:	3c02bfc0 	lui	v0,0xbfc0
bfc06790:	245959c0 	addiu	t9,v0,22976
bfc06794:	0320f809 	jalr	t9
bfc06798:	00000000 	nop
D:\loongson\projects\ls1d_ucos\source/os_mbox.c:271
    OS_EXIT_CRITICAL();
bfc0679c:	8fc40014 	lw	a0,20(s8)
bfc067a0:	3c02bfc0 	lui	v0,0xbfc0
bfc067a4:	24597408 	addiu	t9,v0,29704
bfc067a8:	0320f809 	jalr	t9
bfc067ac:	00000000 	nop
D:\loongson\projects\ls1d_ucos\source/os_mbox.c:272
    OS_Sched();                                       /* Find next highest priority task ready to run  */
bfc067b0:	3c02bfc0 	lui	v0,0xbfc0
bfc067b4:	24595fcc 	addiu	t9,v0,24524
bfc067b8:	0320f809 	jalr	t9
bfc067bc:	00000000 	nop
D:\loongson\projects\ls1d_ucos\source/os_mbox.c:273
    OS_ENTER_CRITICAL();
bfc067c0:	3c02bfc0 	lui	v0,0xbfc0
bfc067c4:	245973f0 	addiu	t9,v0,29680
bfc067c8:	0320f809 	jalr	t9
bfc067cc:	00000000 	nop
bfc067d0:	afc20014 	sw	v0,20(s8)
D:\loongson\projects\ls1d_ucos\source/os_mbox.c:274
    msg = OSTCBCur->OSTCBMsg;
bfc067d4:	3c02a000 	lui	v0,0xa000
bfc067d8:	8c4210a0 	lw	v0,4256(v0)
bfc067dc:	8c420010 	lw	v0,16(v0)
bfc067e0:	afc20010 	sw	v0,16(s8)
D:\loongson\projects\ls1d_ucos\source/os_mbox.c:275
    if (msg != (void *)0) {                           /* See if we were given the message              */
bfc067e4:	8fc20010 	lw	v0,16(s8)
bfc067e8:	10400015 	beqz	v0,bfc06840 <OSMboxPend+0x190>
bfc067ec:	00000000 	nop
D:\loongson\projects\ls1d_ucos\source/os_mbox.c:276
        OSTCBCur->OSTCBMsg      = (void *)0;          /* Yes, clear message received                   */
bfc067f0:	3c02a000 	lui	v0,0xa000
bfc067f4:	8c4210a0 	lw	v0,4256(v0)
bfc067f8:	ac400010 	sw	zero,16(v0)
D:\loongson\projects\ls1d_ucos\source/os_mbox.c:277
        OSTCBCur->OSTCBStat     = OS_STAT_RDY;
bfc067fc:	3c02a000 	lui	v0,0xa000
bfc06800:	8c4210a0 	lw	v0,4256(v0)
bfc06804:	a0400016 	sb	zero,22(v0)
D:\loongson\projects\ls1d_ucos\source/os_mbox.c:278
        OSTCBCur->OSTCBEventPtr = (OS_EVENT *)0;      /* No longer waiting for event                   */
bfc06808:	3c02a000 	lui	v0,0xa000
bfc0680c:	8c4210a0 	lw	v0,4256(v0)
bfc06810:	ac40000c 	sw	zero,12(v0)
D:\loongson\projects\ls1d_ucos\source/os_mbox.c:279
        OS_EXIT_CRITICAL();
bfc06814:	8fc40014 	lw	a0,20(s8)
bfc06818:	3c02bfc0 	lui	v0,0xbfc0
bfc0681c:	24597408 	addiu	t9,v0,29704
bfc06820:	0320f809 	jalr	t9
bfc06824:	00000000 	nop
D:\loongson\projects\ls1d_ucos\source/os_mbox.c:280
        *err                    = OS_NO_ERR;
bfc06828:	8fc20030 	lw	v0,48(s8)
bfc0682c:	a0400000 	sb	zero,0(v0)
D:\loongson\projects\ls1d_ucos\source/os_mbox.c:281
        return (msg);                                 /* Return the message received                   */
bfc06830:	8fc20010 	lw	v0,16(s8)
bfc06834:	afc20018 	sw	v0,24(s8)
bfc06838:	0bf01a1e 	j	bfc06878 <OSMboxPend+0x1c8>
bfc0683c:	00000000 	nop
D:\loongson\projects\ls1d_ucos\source/os_mbox.c:283
    }
    OS_EventTO(pevent);                               /* Timed out, Make task ready                    */
bfc06840:	8fc40028 	lw	a0,40(s8)
bfc06844:	3c02bfc0 	lui	v0,0xbfc0
bfc06848:	24595b3c 	addiu	t9,v0,23356
bfc0684c:	0320f809 	jalr	t9
bfc06850:	00000000 	nop
D:\loongson\projects\ls1d_ucos\source/os_mbox.c:284
    OS_EXIT_CRITICAL();
bfc06854:	8fc40014 	lw	a0,20(s8)
bfc06858:	3c02bfc0 	lui	v0,0xbfc0
bfc0685c:	24597408 	addiu	t9,v0,29704
bfc06860:	0320f809 	jalr	t9
bfc06864:	00000000 	nop
D:\loongson\projects\ls1d_ucos\source/os_mbox.c:285
    *err = OS_TIMEOUT;                                /* Indicate that a timeout occured               */
bfc06868:	8fc30030 	lw	v1,48(s8)
bfc0686c:	2402000a 	li	v0,10
bfc06870:	a0620000 	sb	v0,0(v1)
D:\loongson\projects\ls1d_ucos\source/os_mbox.c:286
    return ((void *)0);                               /* Return a NULL message                         */
bfc06874:	afc00018 	sw	zero,24(s8)
bfc06878:	8fc20018 	lw	v0,24(s8)
D:\loongson\projects\ls1d_ucos\source/os_mbox.c:287
}
bfc0687c:	03c0e821 	move	sp,s8
bfc06880:	8fbf0024 	lw	ra,36(sp)
bfc06884:	8fbe0020 	lw	s8,32(sp)
bfc06888:	27bd0028 	addiu	sp,sp,40
bfc0688c:	03e00008 	jr	ra
bfc06890:	00000000 	nop

bfc06894 <OSMboxPost>:
OSMboxPost():
D:\loongson\projects\ls1d_ucos\source/os_mbox.c:311
*********************************************************************************************************
*/

#if OS_MBOX_POST_EN > 0
INT8U  OSMboxPost (OS_EVENT *pevent, void *msg)
{
bfc06894:	27bdffd8 	addiu	sp,sp,-40
bfc06898:	afbf0024 	sw	ra,36(sp)
bfc0689c:	afbe0020 	sw	s8,32(sp)
bfc068a0:	03a0f021 	move	s8,sp
bfc068a4:	afc40028 	sw	a0,40(s8)
bfc068a8:	afc5002c 	sw	a1,44(s8)
D:\loongson\projects\ls1d_ucos\source/os_mbox.c:328
    }
    if (pevent->OSEventType != OS_EVENT_TYPE_MBOX) {  /* Validate event block type                     */
        return (OS_ERR_EVENT_TYPE);
    }
#endif
    OS_ENTER_CRITICAL();
bfc068ac:	3c02bfc0 	lui	v0,0xbfc0
bfc068b0:	245973f0 	addiu	t9,v0,29680
bfc068b4:	0320f809 	jalr	t9
bfc068b8:	00000000 	nop
bfc068bc:	afc20010 	sw	v0,16(s8)
D:\loongson\projects\ls1d_ucos\source/os_mbox.c:329
    if (pevent->OSEventGrp != 0x00) {                 /* See if any task pending on mailbox            */
bfc068c0:	8fc20028 	lw	v0,40(s8)
bfc068c4:	90420001 	lbu	v0,1(v0)
bfc068c8:	10400014 	beqz	v0,bfc0691c <OSMboxPost+0x88>
bfc068cc:	00000000 	nop
D:\loongson\projects\ls1d_ucos\source/os_mbox.c:330
        OS_EventTaskRdy(pevent, msg, OS_STAT_MBOX);   /* Ready highest priority task waiting on event  */
bfc068d0:	8fc40028 	lw	a0,40(s8)
bfc068d4:	8fc5002c 	lw	a1,44(s8)
bfc068d8:	24060002 	li	a2,2
bfc068dc:	3c02bfc0 	lui	v0,0xbfc0
bfc068e0:	2459579c 	addiu	t9,v0,22428
bfc068e4:	0320f809 	jalr	t9
bfc068e8:	00000000 	nop
D:\loongson\projects\ls1d_ucos\source/os_mbox.c:331
        OS_EXIT_CRITICAL();
bfc068ec:	8fc40010 	lw	a0,16(s8)
bfc068f0:	3c02bfc0 	lui	v0,0xbfc0
bfc068f4:	24597408 	addiu	t9,v0,29704
bfc068f8:	0320f809 	jalr	t9
bfc068fc:	00000000 	nop
D:\loongson\projects\ls1d_ucos\source/os_mbox.c:332
        OS_Sched();                                   /* Find highest priority task ready to run       */
bfc06900:	3c02bfc0 	lui	v0,0xbfc0
bfc06904:	24595fcc 	addiu	t9,v0,24524
bfc06908:	0320f809 	jalr	t9
bfc0690c:	00000000 	nop
D:\loongson\projects\ls1d_ucos\source/os_mbox.c:333
        return (OS_NO_ERR);
bfc06910:	afc00018 	sw	zero,24(s8)
bfc06914:	0bf01a5d 	j	bfc06974 <OSMboxPost+0xe0>
bfc06918:	00000000 	nop
D:\loongson\projects\ls1d_ucos\source/os_mbox.c:335
    }
    if (pevent->OSEventPtr != (void *)0) {            /* Make sure mailbox doesn't already have a msg  */
bfc0691c:	8fc20028 	lw	v0,40(s8)
bfc06920:	8c420004 	lw	v0,4(v0)
bfc06924:	1040000a 	beqz	v0,bfc06950 <OSMboxPost+0xbc>
bfc06928:	00000000 	nop
D:\loongson\projects\ls1d_ucos\source/os_mbox.c:336
        OS_EXIT_CRITICAL();
bfc0692c:	8fc40010 	lw	a0,16(s8)
bfc06930:	3c02bfc0 	lui	v0,0xbfc0
bfc06934:	24597408 	addiu	t9,v0,29704
bfc06938:	0320f809 	jalr	t9
bfc0693c:	00000000 	nop
D:\loongson\projects\ls1d_ucos\source/os_mbox.c:337
        return (OS_MBOX_FULL);
bfc06940:	24020014 	li	v0,20
bfc06944:	afc20018 	sw	v0,24(s8)
bfc06948:	0bf01a5d 	j	bfc06974 <OSMboxPost+0xe0>
bfc0694c:	00000000 	nop
D:\loongson\projects\ls1d_ucos\source/os_mbox.c:339
    }
    pevent->OSEventPtr = msg;                         /* Place message in mailbox                      */
bfc06950:	8fc30028 	lw	v1,40(s8)
bfc06954:	8fc2002c 	lw	v0,44(s8)
bfc06958:	ac620004 	sw	v0,4(v1)
D:\loongson\projects\ls1d_ucos\source/os_mbox.c:340
    OS_EXIT_CRITICAL();
bfc0695c:	8fc40010 	lw	a0,16(s8)
bfc06960:	3c02bfc0 	lui	v0,0xbfc0
bfc06964:	24597408 	addiu	t9,v0,29704
bfc06968:	0320f809 	jalr	t9
bfc0696c:	00000000 	nop
D:\loongson\projects\ls1d_ucos\source/os_mbox.c:341
    return (OS_NO_ERR);
bfc06970:	afc00018 	sw	zero,24(s8)
bfc06974:	8fc20018 	lw	v0,24(s8)
D:\loongson\projects\ls1d_ucos\source/os_mbox.c:342
}
bfc06978:	03c0e821 	move	sp,s8
bfc0697c:	8fbf0024 	lw	ra,36(sp)
bfc06980:	8fbe0020 	lw	s8,32(sp)
bfc06984:	27bd0028 	addiu	sp,sp,40
bfc06988:	03e00008 	jr	ra
bfc0698c:	00000000 	nop

bfc06990 <SOFT_INT>:
SOFT_INT():
D:\loongson\projects\ls1d_ucos\ls1d_cpu/Interrupt.c:16

#include "../devices/device.h"


void SOFT_INT()
{
bfc06990:	27bdfff8 	addiu	sp,sp,-8
bfc06994:	afbe0004 	sw	s8,4(sp)
bfc06998:	03a0f021 	move	s8,sp
D:\loongson\projects\ls1d_ucos\ls1d_cpu/Interrupt.c:18
	return ;
}
bfc0699c:	03c0e821 	move	sp,s8
bfc069a0:	8fbe0004 	lw	s8,4(sp)
bfc069a4:	27bd0008 	addiu	sp,sp,8
bfc069a8:	03e00008 	jr	ra
bfc069ac:	00000000 	nop

bfc069b0 <TIMER1_INT>:
TIMER1_INT():
D:\loongson\projects\ls1d_ucos\ls1d_cpu/Interrupt.c:22


void TIMER1_INT()
{
bfc069b0:	27bdffe8 	addiu	sp,sp,-24
bfc069b4:	afbf0014 	sw	ra,20(sp)
bfc069b8:	afbe0010 	sw	s8,16(sp)
bfc069bc:	03a0f021 	move	s8,sp
D:\loongson\projects\ls1d_ucos\ls1d_cpu/Interrupt.c:23
	__asm__ volatile(
bfc069c0:	40085800 	mfc0	t0,c0_compare
bfc069c4:	24093e80 	li	t1,16000
bfc069c8:	01094821 	addu	t1,t0,t1
bfc069cc:	40895800 	mtc0	t1,c0_compare
D:\loongson\projects\ls1d_ucos\ls1d_cpu/Interrupt.c:31
	    "addu	$9, $8, $9;\n"
		"mtc0	$9, $11;\n"   /* write cp0_compare */

		 :::"$8","$9"
	);
	OSTimeTick();
bfc069d0:	3c02bfc0 	lui	v0,0xbfc0
bfc069d4:	245955dc 	addiu	t9,v0,21980
bfc069d8:	0320f809 	jalr	t9
bfc069dc:	00000000 	nop
D:\loongson\projects\ls1d_ucos\ls1d_cpu/Interrupt.c:32
}
bfc069e0:	03c0e821 	move	sp,s8
bfc069e4:	8fbf0014 	lw	ra,20(sp)
bfc069e8:	8fbe0010 	lw	s8,16(sp)
bfc069ec:	03e00008 	jr	ra
bfc069f0:	27bd0018 	addiu	sp,sp,24

bfc069f4 <WAKER_INT>:
WAKER_INT():
D:\loongson\projects\ls1d_ucos\ls1d_cpu/Interrupt.c:43
 * 函数调用的  WakeWaitInt  WAKEINT_ENABLE之后各种唤醒中断
 * 才会发生，比如说 wake，key，res等。此时尚处于操作系统没有运行起来的
 * 阶段。这个时候调用 puts 是会让程序崩溃的（虽然初始化了串口）切记！！
 * **********************************************/
void WAKER_INT()
{
bfc069f4:	27bdfff8 	addiu	sp,sp,-8
bfc069f8:	afbe0004 	sw	s8,4(sp)
bfc069fc:	03a0f021 	move	s8,sp
D:\loongson\projects\ls1d_ucos\ls1d_cpu/Interrupt.c:45
	/* IntClr of PMU_Command */
	PMU_SecToken = PMU_SecToken_command;
bfc06a00:	3c02bfeb 	lui	v0,0xbfeb
bfc06a04:	3443007c 	ori	v1,v0,0x7c
bfc06a08:	3c02cf21 	lui	v0,0xcf21
bfc06a0c:	34426e95 	ori	v0,v0,0x6e95
bfc06a10:	ac620000 	sw	v0,0(v1)
D:\loongson\projects\ls1d_ucos\ls1d_cpu/Interrupt.c:46
	PMU_CommandW = 0x10000;
bfc06a14:	3c02bfeb 	lui	v0,0xbfeb
bfc06a18:	3443003c 	ori	v1,v0,0x3c
bfc06a1c:	3c020001 	lui	v0,0x1
bfc06a20:	ac620000 	sw	v0,0(v1)
D:\loongson\projects\ls1d_ucos\ls1d_cpu/Interrupt.c:48

	CASE_SET(PMUWAKE);
bfc06a24:	3c02a000 	lui	v0,0xa000
bfc06a28:	8c4210b0 	lw	v0,4272(v0)
bfc06a2c:	34430004 	ori	v1,v0,0x4
bfc06a30:	3c02a000 	lui	v0,0xa000
bfc06a34:	ac4310b0 	sw	v1,4272(v0)
D:\loongson\projects\ls1d_ucos\ls1d_cpu/Interrupt.c:50
	return ;
}
bfc06a38:	03c0e821 	move	sp,s8
bfc06a3c:	8fbe0004 	lw	s8,4(sp)
bfc06a40:	27bd0008 	addiu	sp,sp,8
bfc06a44:	03e00008 	jr	ra
bfc06a48:	00000000 	nop

bfc06a4c <KEY_INT>:
KEY_INT():
D:\loongson\projects\ls1d_ucos\ls1d_cpu/Interrupt.c:54

/*  key 需要 清除 中断。 这里在中断上下文中无需要进入 临界  区了   */
void KEY_INT()
{
bfc06a4c:	27bdffe0 	addiu	sp,sp,-32
bfc06a50:	afbf001c 	sw	ra,28(sp)
bfc06a54:	afbe0018 	sw	s8,24(sp)
bfc06a58:	03a0f021 	move	s8,sp
D:\loongson\projects\ls1d_ucos\ls1d_cpu/Interrupt.c:57
	INT32U 	gpio_in;
	/* IntClr of PMU_Command */
	PMU_SecToken = PMU_SecToken_command;
bfc06a5c:	3c02bfeb 	lui	v0,0xbfeb
bfc06a60:	3443007c 	ori	v1,v0,0x7c
bfc06a64:	3c02cf21 	lui	v0,0xcf21
bfc06a68:	34426e95 	ori	v0,v0,0x6e95
bfc06a6c:	ac620000 	sw	v0,0(v1)
D:\loongson\projects\ls1d_ucos\ls1d_cpu/Interrupt.c:58
	PMU_CommandW = 0x20000;
bfc06a70:	3c02bfeb 	lui	v0,0xbfeb
bfc06a74:	3443003c 	ori	v1,v0,0x3c
bfc06a78:	3c020002 	lui	v0,0x2
bfc06a7c:	ac620000 	sw	v0,0(v1)
D:\loongson\projects\ls1d_ucos\ls1d_cpu/Interrupt.c:60

	gpio_in = PMU_GPIO_I;
bfc06a80:	3c02bfeb 	lui	v0,0xbfeb
bfc06a84:	34420018 	ori	v0,v0,0x18
bfc06a88:	8c420000 	lw	v0,0(v0)
bfc06a8c:	afc20010 	sw	v0,16(s8)
D:\loongson\projects\ls1d_ucos\ls1d_cpu/Interrupt.c:61
	MboxKey	= 0;
bfc06a90:	3c02a000 	lui	v0,0xa000
bfc06a94:	a04010ac 	sb	zero,4268(v0)
D:\loongson\projects\ls1d_ucos\ls1d_cpu/Interrupt.c:62
	if(gpio_in & KEY_OFF)
bfc06a98:	8fc20010 	lw	v0,16(s8)
bfc06a9c:	30420800 	andi	v0,v0,0x800
bfc06aa0:	10400007 	beqz	v0,bfc06ac0 <KEY_INT+0x74>
bfc06aa4:	00000000 	nop
D:\loongson\projects\ls1d_ucos\ls1d_cpu/Interrupt.c:64
	{
		MboxKey		|= 1 << 3;
bfc06aa8:	3c02a000 	lui	v0,0xa000
bfc06aac:	904210ac 	lbu	v0,4268(v0)
bfc06ab0:	34420008 	ori	v0,v0,0x8
bfc06ab4:	304300ff 	andi	v1,v0,0xff
bfc06ab8:	3c02a000 	lui	v0,0xa000
bfc06abc:	a04310ac 	sb	v1,4268(v0)
D:\loongson\projects\ls1d_ucos\ls1d_cpu/Interrupt.c:66
	}
	CASE_SET(KEYWAKE);
bfc06ac0:	3c02a000 	lui	v0,0xa000
bfc06ac4:	8c4210b0 	lw	v0,4272(v0)
bfc06ac8:	34430008 	ori	v1,v0,0x8
bfc06acc:	3c02a000 	lui	v0,0xa000
bfc06ad0:	ac4310b0 	sw	v1,4272(v0)
D:\loongson\projects\ls1d_ucos\ls1d_cpu/Interrupt.c:68

	if(OSRunning)
bfc06ad4:	3c02a000 	lui	v0,0xa000
bfc06ad8:	90421002 	lbu	v0,4098(v0)
bfc06adc:	1040000a 	beqz	v0,bfc06b08 <KEY_INT+0xbc>
bfc06ae0:	00000000 	nop
D:\loongson\projects\ls1d_ucos\ls1d_cpu/Interrupt.c:69
		OSMboxPost(pGMboxKey,&MboxKey);
bfc06ae4:	3c02a000 	lui	v0,0xa000
bfc06ae8:	8c4210a4 	lw	v0,4260(v0)
bfc06aec:	00402021 	move	a0,v0
bfc06af0:	3c02a000 	lui	v0,0xa000
bfc06af4:	244510ac 	addiu	a1,v0,4268
bfc06af8:	3c02bfc0 	lui	v0,0xbfc0
bfc06afc:	24596894 	addiu	t9,v0,26772
bfc06b00:	0320f809 	jalr	t9
bfc06b04:	00000000 	nop
D:\loongson\projects\ls1d_ucos\ls1d_cpu/Interrupt.c:71
	return ;
}
bfc06b08:	03c0e821 	move	sp,s8
bfc06b0c:	8fbf001c 	lw	ra,28(sp)
bfc06b10:	8fbe0018 	lw	s8,24(sp)
bfc06b14:	27bd0020 	addiu	sp,sp,32
bfc06b18:	03e00008 	jr	ra
bfc06b1c:	00000000 	nop

bfc06b20 <BAT_FAIL>:
BAT_FAIL():
D:\loongson\projects\ls1d_ucos\ls1d_cpu/Interrupt.c:76


/// 修改 Flash_Write 加入判断的，对于已经擦除的掉电保存 fllash  块无需再保存了。 TODO
void BAT_FAIL()
{
bfc06b20:	27bdffe8 	addiu	sp,sp,-24
bfc06b24:	afbf0014 	sw	ra,20(sp)
bfc06b28:	afbe0010 	sw	s8,16(sp)
bfc06b2c:	03a0f021 	move	s8,sp
D:\loongson\projects\ls1d_ucos\ls1d_cpu/Interrupt.c:77
	Flash_Write(0xa0001000,	(_u32 *)0xa0001000,0x400);
bfc06b30:	3c02a000 	lui	v0,0xa000
bfc06b34:	34441000 	ori	a0,v0,0x1000
bfc06b38:	3c02a000 	lui	v0,0xa000
bfc06b3c:	34451000 	ori	a1,v0,0x1000
bfc06b40:	24060400 	li	a2,1024
bfc06b44:	3c02bfc1 	lui	v0,0xbfc1
bfc06b48:	245986b4 	addiu	t9,v0,-31052
bfc06b4c:	0320f809 	jalr	t9
bfc06b50:	00000000 	nop
D:\loongson\projects\ls1d_ucos\ls1d_cpu/Interrupt.c:79
	return ;
}
bfc06b54:	03c0e821 	move	sp,s8
bfc06b58:	8fbf0014 	lw	ra,20(sp)
bfc06b5c:	8fbe0010 	lw	s8,16(sp)
bfc06b60:	27bd0018 	addiu	sp,sp,24
bfc06b64:	03e00008 	jr	ra
bfc06b68:	00000000 	nop

bfc06b6c <RES_VALID>:
RES_VALID():
D:\loongson\projects\ls1d_ucos\ls1d_cpu/Interrupt.c:83


void RES_VALID()
{
bfc06b6c:	27bdffe0 	addiu	sp,sp,-32
bfc06b70:	afbf001c 	sw	ra,28(sp)
bfc06b74:	afbe0018 	sw	s8,24(sp)
bfc06b78:	03a0f021 	move	s8,sp
D:\loongson\projects\ls1d_ucos\ls1d_cpu/Interrupt.c:87
	INT8U	cop;

	/* IntClr of PMU_Command */
	PMU_SecToken = PMU_SecToken_command;
bfc06b7c:	3c02bfeb 	lui	v0,0xbfeb
bfc06b80:	3443007c 	ori	v1,v0,0x7c
bfc06b84:	3c02cf21 	lui	v0,0xcf21
bfc06b88:	34426e95 	ori	v0,v0,0x6e95
bfc06b8c:	ac620000 	sw	v0,0(v1)
D:\loongson\projects\ls1d_ucos\ls1d_cpu/Interrupt.c:88
	PMU_CommandW = 0x80000;
bfc06b90:	3c02bfeb 	lui	v0,0xbfeb
bfc06b94:	3443003c 	ori	v1,v0,0x3c
bfc06b98:	3c020008 	lui	v0,0x8
bfc06b9c:	ac620000 	sw	v0,0(v1)
D:\loongson\projects\ls1d_ucos\ls1d_cpu/Interrupt.c:90

	cop = ((PMU[1]>>9)&0x7);  	//cop
bfc06ba0:	3c02bfeb 	lui	v0,0xbfeb
bfc06ba4:	34420004 	ori	v0,v0,0x4
bfc06ba8:	8c420000 	lw	v0,0(v0)
bfc06bac:	00021242 	srl	v0,v0,0x9
bfc06bb0:	304200ff 	andi	v0,v0,0xff
bfc06bb4:	30420007 	andi	v0,v0,0x7
bfc06bb8:	a3c20010 	sb	v0,16(s8)
D:\loongson\projects\ls1d_ucos\ls1d_cpu/Interrupt.c:92

	if(cop == mode_2){
bfc06bbc:	93c30010 	lbu	v1,16(s8)
bfc06bc0:	24020002 	li	v0,2
bfc06bc4:	14620008 	bne	v1,v0,bfc06be8 <RES_VALID+0x7c>
bfc06bc8:	00000000 	nop
D:\loongson\projects\ls1d_ucos\ls1d_cpu/Interrupt.c:93
		CASE_SET(TIMEWAKE);
bfc06bcc:	3c02a000 	lui	v0,0xa000
bfc06bd0:	8c4210b0 	lw	v0,4272(v0)
bfc06bd4:	34430010 	ori	v1,v0,0x10
bfc06bd8:	3c02a000 	lui	v0,0xa000
bfc06bdc:	ac4310b0 	sw	v1,4272(v0)
bfc06be0:	0bf01b03 	j	bfc06c0c <RES_VALID+0xa0>
bfc06be4:	00000000 	nop
D:\loongson\projects\ls1d_ucos\ls1d_cpu/Interrupt.c:94
	}else if(cop == mode_3){
bfc06be8:	93c30010 	lbu	v1,16(s8)
bfc06bec:	24020003 	li	v0,3
bfc06bf0:	14620006 	bne	v1,v0,bfc06c0c <RES_VALID+0xa0>
bfc06bf4:	00000000 	nop
D:\loongson\projects\ls1d_ucos\ls1d_cpu/Interrupt.c:95
		CASE_SET(THSENSWAKE);
bfc06bf8:	3c02a000 	lui	v0,0xa000
bfc06bfc:	8c4210b0 	lw	v0,4272(v0)
bfc06c00:	34430020 	ori	v1,v0,0x20
bfc06c04:	3c02a000 	lui	v0,0xa000
bfc06c08:	ac4310b0 	sw	v1,4272(v0)
D:\loongson\projects\ls1d_ucos\ls1d_cpu/Interrupt.c:97
	}
	if(OSRunning)
bfc06c0c:	3c02a000 	lui	v0,0xa000
bfc06c10:	90421002 	lbu	v0,4098(v0)
bfc06c14:	10400008 	beqz	v0,bfc06c38 <RES_VALID+0xcc>
bfc06c18:	00000000 	nop
D:\loongson\projects\ls1d_ucos\ls1d_cpu/Interrupt.c:98
		OSSemPost(pGSemTdcInt);
bfc06c1c:	3c02a000 	lui	v0,0xa000
bfc06c20:	8c421054 	lw	v0,4180(v0)
bfc06c24:	00402021 	move	a0,v0
bfc06c28:	3c02bfc0 	lui	v0,0xbfc0
bfc06c2c:	24594c4c 	addiu	t9,v0,19532
bfc06c30:	0320f809 	jalr	t9
bfc06c34:	00000000 	nop
D:\loongson\projects\ls1d_ucos\ls1d_cpu/Interrupt.c:101

	return ;
}
bfc06c38:	03c0e821 	move	sp,s8
bfc06c3c:	8fbf001c 	lw	ra,28(sp)
bfc06c40:	8fbe0018 	lw	s8,24(sp)
bfc06c44:	27bd0020 	addiu	sp,sp,32
bfc06c48:	03e00008 	jr	ra
bfc06c4c:	00000000 	nop

bfc06c50 <INTC>:
INTC():
D:\loongson\projects\ls1d_ucos\ls1d_cpu/Interrupt.c:105


void INTC()
{
bfc06c50:	27bdffe0 	addiu	sp,sp,-32
bfc06c54:	afbf001c 	sw	ra,28(sp)
bfc06c58:	afbe0018 	sw	s8,24(sp)
bfc06c5c:	03a0f021 	move	s8,sp
D:\loongson\projects\ls1d_ucos\ls1d_cpu/Interrupt.c:107
#if 1
	INT8U IntReg = INT_OUT;
bfc06c60:	3c02bfea 	lui	v0,0xbfea
bfc06c64:	34420005 	ori	v0,v0,0x5
bfc06c68:	90420000 	lbu	v0,0(v0)
bfc06c6c:	a3c20011 	sb	v0,17(s8)
D:\loongson\projects\ls1d_ucos\ls1d_cpu/Interrupt.c:109

	if(IntReg & 0x04)    					//Uart0
bfc06c70:	93c20011 	lbu	v0,17(s8)
bfc06c74:	30420004 	andi	v0,v0,0x4
bfc06c78:	10400031 	beqz	v0,bfc06d40 <INTC+0xf0>
bfc06c7c:	00000000 	nop
D:\loongson\projects\ls1d_ucos\ls1d_cpu/Interrupt.c:113
	{
		//debugX(4, "INTC from Uart1...\r\n");
		INT8U temp;
		temp = Uart1_IIR;
bfc06c80:	3c02bfe8 	lui	v0,0xbfe8
bfc06c84:	34428002 	ori	v0,v0,0x8002
bfc06c88:	90420000 	lbu	v0,0(v0)
bfc06c8c:	a3c20010 	sb	v0,16(s8)
D:\loongson\projects\ls1d_ucos\ls1d_cpu/Interrupt.c:114
		if(temp & 0x02){
bfc06c90:	93c20010 	lbu	v0,16(s8)
bfc06c94:	30420002 	andi	v0,v0,0x2
bfc06c98:	14400020 	bnez	v0,bfc06d1c <INTC+0xcc>
bfc06c9c:	00000000 	nop
D:\loongson\projects\ls1d_ucos\ls1d_cpu/Interrupt.c:117
			//Tx Int
			//uart1_tx();
		}else if(temp & 0x04){ //Rx int
bfc06ca0:	93c20010 	lbu	v0,16(s8)
bfc06ca4:	30420004 	andi	v0,v0,0x4
bfc06ca8:	1040001c 	beqz	v0,bfc06d1c <INTC+0xcc>
bfc06cac:	00000000 	nop
D:\loongson\projects\ls1d_ucos\ls1d_cpu/Interrupt.c:119
			//puts("Inf\n");
			InfraredBuf[InfraredCnt ++]	= Uart1_RxData;
bfc06cb0:	3c02a000 	lui	v0,0xa000
bfc06cb4:	9044107d 	lbu	a0,4221(v0)
bfc06cb8:	00802821 	move	a1,a0
bfc06cbc:	3c02bfe8 	lui	v0,0xbfe8
bfc06cc0:	34428000 	ori	v0,v0,0x8000
bfc06cc4:	90420000 	lbu	v0,0(v0)
bfc06cc8:	304300ff 	andi	v1,v0,0xff
bfc06ccc:	3c02a000 	lui	v0,0xa000
bfc06cd0:	24421268 	addiu	v0,v0,4712
bfc06cd4:	00a21021 	addu	v0,a1,v0
bfc06cd8:	a0430000 	sb	v1,0(v0)
bfc06cdc:	24820001 	addiu	v0,a0,1
bfc06ce0:	304300ff 	andi	v1,v0,0xff
bfc06ce4:	3c02a000 	lui	v0,0xa000
bfc06ce8:	a043107d 	sb	v1,4221(v0)
D:\loongson\projects\ls1d_ucos\ls1d_cpu/Interrupt.c:120
			if(InfraredCnt == 19){
bfc06cec:	3c02a000 	lui	v0,0xa000
bfc06cf0:	9043107d 	lbu	v1,4221(v0)
bfc06cf4:	24020013 	li	v0,19
bfc06cf8:	14620008 	bne	v1,v0,bfc06d1c <INTC+0xcc>
bfc06cfc:	00000000 	nop
D:\loongson\projects\ls1d_ucos\ls1d_cpu/Interrupt.c:121
				OSSemPost(pGSemInfraRev);
bfc06d00:	3c02a000 	lui	v0,0xa000
bfc06d04:	8c42100c 	lw	v0,4108(v0)
bfc06d08:	00402021 	move	a0,v0
bfc06d0c:	3c02bfc0 	lui	v0,0xbfc0
bfc06d10:	24594c4c 	addiu	t9,v0,19532
bfc06d14:	0320f809 	jalr	t9
bfc06d18:	00000000 	nop
D:\loongson\projects\ls1d_ucos\ls1d_cpu/Interrupt.c:124
			}
		}
		INT_CLR |= 0x04;
bfc06d1c:	3c02bfea 	lui	v0,0xbfea
bfc06d20:	34430003 	ori	v1,v0,0x3
bfc06d24:	3c02bfea 	lui	v0,0xbfea
bfc06d28:	34420003 	ori	v0,v0,0x3
bfc06d2c:	90420000 	lbu	v0,0(v0)
bfc06d30:	304200ff 	andi	v0,v0,0xff
bfc06d34:	34420004 	ori	v0,v0,0x4
bfc06d38:	304200ff 	andi	v0,v0,0xff
bfc06d3c:	a0620000 	sb	v0,0(v1)
D:\loongson\projects\ls1d_ucos\ls1d_cpu/Interrupt.c:128
	}
#endif
	return ;
}
bfc06d40:	03c0e821 	move	sp,s8
bfc06d44:	8fbf001c 	lw	ra,28(sp)
bfc06d48:	8fbe0018 	lw	s8,24(sp)
bfc06d4c:	27bd0020 	addiu	sp,sp,32
bfc06d50:	03e00008 	jr	ra
bfc06d54:	00000000 	nop

bfc06d58 <EXINT>:
EXINT():
D:\loongson\projects\ls1d_ucos\ls1d_cpu/Interrupt.c:131

void EXINT()
{
bfc06d58:	27bdfff8 	addiu	sp,sp,-8
bfc06d5c:	afbe0004 	sw	s8,4(sp)
bfc06d60:	03a0f021 	move	s8,sp
D:\loongson\projects\ls1d_ucos\ls1d_cpu/Interrupt.c:133
	return ;
}
bfc06d64:	03c0e821 	move	sp,s8
bfc06d68:	8fbe0004 	lw	s8,4(sp)
bfc06d6c:	27bd0008 	addiu	sp,sp,8
bfc06d70:	03e00008 	jr	ra
bfc06d74:	00000000 	nop

bfc06d78 <IRQ_Exception>:
IRQ_Exception():
D:\loongson\projects\ls1d_ucos\ls1d_cpu/Interrupt.c:136

__attribute__((weak)) void IRQ_Exception()
{
bfc06d78:	27bdffd8 	addiu	sp,sp,-40
bfc06d7c:	afbf0024 	sw	ra,36(sp)
bfc06d80:	afbe0020 	sw	s8,32(sp)
bfc06d84:	03a0f021 	move	s8,sp
D:\loongson\projects\ls1d_ucos\ls1d_cpu/Interrupt.c:137
	_u32 flag = 0;
bfc06d88:	afc00018 	sw	zero,24(s8)
D:\loongson\projects\ls1d_ucos\ls1d_cpu/Interrupt.c:138
	asm volatile("mfc0	%0, $13":"=r" (flag));
bfc06d8c:	40026800 	mfc0	v0,c0_cause
bfc06d90:	afc20018 	sw	v0,24(s8)
D:\loongson\projects\ls1d_ucos\ls1d_cpu/Interrupt.c:141

	_u32 i;
	for(i=8; i<16; i++)
bfc06d94:	24020008 	li	v0,8
bfc06d98:	0bf01b7d 	j	bfc06df4 <IRQ_Exception+0x7c>
bfc06d9c:	afc20014 	sw	v0,20(s8)
D:\loongson\projects\ls1d_ucos\ls1d_cpu/Interrupt.c:143
	{
		if((flag>>i) & 0x1)
bfc06da0:	8fc30014 	lw	v1,20(s8)
bfc06da4:	8fc20018 	lw	v0,24(s8)
bfc06da8:	00621006 	srlv	v0,v0,v1
bfc06dac:	30420001 	andi	v0,v0,0x1
bfc06db0:	304200ff 	andi	v0,v0,0xff
bfc06db4:	1040000c 	beqz	v0,bfc06de8 <IRQ_Exception+0x70>
bfc06db8:	00000000 	nop
D:\loongson\projects\ls1d_ucos\ls1d_cpu/Interrupt.c:145
		{
			IRQ_HAND process = MY_INT[i-8];
bfc06dbc:	8fc20014 	lw	v0,20(s8)
bfc06dc0:	2442fff8 	addiu	v0,v0,-8
bfc06dc4:	3c03bfc1 	lui	v1,0xbfc1
bfc06dc8:	00022080 	sll	a0,v0,0x2
bfc06dcc:	2462974c 	addiu	v0,v1,-26804
bfc06dd0:	00821021 	addu	v0,a0,v0
bfc06dd4:	8c420000 	lw	v0,0(v0)
bfc06dd8:	afc20010 	sw	v0,16(s8)
D:\loongson\projects\ls1d_ucos\ls1d_cpu/Interrupt.c:146
			process();
bfc06ddc:	8fd90010 	lw	t9,16(s8)
bfc06de0:	0320f809 	jalr	t9
bfc06de4:	00000000 	nop
D:\loongson\projects\ls1d_ucos\ls1d_cpu/Interrupt.c:141
{
	_u32 flag = 0;
	asm volatile("mfc0	%0, $13":"=r" (flag));

	_u32 i;
	for(i=8; i<16; i++)
bfc06de8:	8fc20014 	lw	v0,20(s8)
bfc06dec:	24420001 	addiu	v0,v0,1
bfc06df0:	afc20014 	sw	v0,20(s8)
bfc06df4:	8fc20014 	lw	v0,20(s8)
bfc06df8:	2c420010 	sltiu	v0,v0,16
bfc06dfc:	1440ffe8 	bnez	v0,bfc06da0 <IRQ_Exception+0x28>
bfc06e00:	00000000 	nop
D:\loongson\projects\ls1d_ucos\ls1d_cpu/Interrupt.c:149
		{
			IRQ_HAND process = MY_INT[i-8];
			process();
		}
	}
}
bfc06e04:	03c0e821 	move	sp,s8
bfc06e08:	8fbf0024 	lw	ra,36(sp)
bfc06e0c:	8fbe0020 	lw	s8,32(sp)
bfc06e10:	03e00008 	jr	ra
bfc06e14:	27bd0028 	addiu	sp,sp,40

bfc06e18 <OS_InitTimer>:
OS_InitTimer():
D:\loongson\projects\ls1d_ucos\ls1d_cpu/Interrupt.c:153


void OS_InitTimer()
{
bfc06e18:	27bdfff8 	addiu	sp,sp,-8
bfc06e1c:	afbe0004 	sw	s8,4(sp)
bfc06e20:	03a0f021 	move	s8,sp
D:\loongson\projects\ls1d_ucos\ls1d_cpu/Interrupt.c:154
	__asm__ volatile(
bfc06e24:	40084800 	mfc0	t0,c0_count
bfc06e28:	24093e80 	li	t1,16000
bfc06e2c:	01094820 	add	t1,t0,t1
bfc06e30:	40895800 	mtc0	t1,c0_compare
bfc06e34:	40086800 	mfc0	t0,c0_cause
bfc06e38:	3c09f7ff 	lui	t1,0xf7ff
bfc06e3c:	3529ffff 	ori	t1,t1,0xffff
bfc06e40:	01094024 	and	t0,t0,t1
bfc06e44:	40886800 	mtc0	t0,c0_cause
D:\loongson\projects\ls1d_ucos\ls1d_cpu/Interrupt.c:167
			"and	$8, $8, $9;\n"
			"mtc0	$8, $13;\n"  /* enable cp0_count */

			:::"$8","$9"
			);
}
bfc06e48:	03c0e821 	move	sp,s8
bfc06e4c:	8fbe0004 	lw	s8,4(sp)
bfc06e50:	03e00008 	jr	ra
bfc06e54:	27bd0008 	addiu	sp,sp,8

bfc06e58 <ls1d_set_soft_int>:
ls1d_set_soft_int():
D:\loongson\projects\ls1d_ucos\ls1d_cpu/Interrupt.c:172



void ls1d_set_soft_int()
{
bfc06e58:	27bdfff8 	addiu	sp,sp,-8
bfc06e5c:	afbe0004 	sw	s8,4(sp)
bfc06e60:	03a0f021 	move	s8,sp
D:\loongson\projects\ls1d_ucos\ls1d_cpu/Interrupt.c:173
	__asm__ volatile(
bfc06e64:	40086800 	mfc0	t0,c0_cause
bfc06e68:	24090100 	li	t1,256
bfc06e6c:	01094825 	or	t1,t0,t1
bfc06e70:	40896800 	mtc0	t1,c0_cause
D:\loongson\projects\ls1d_ucos\ls1d_cpu/Interrupt.c:181
		"or		$9, $8, $9;\n"
		"mtc0	$9, $13;\n"   /* write cp0_cause */

		:::"$8","$9"
		);
}
bfc06e74:	03c0e821 	move	sp,s8
bfc06e78:	8fbe0004 	lw	s8,4(sp)
bfc06e7c:	03e00008 	jr	ra
bfc06e80:	27bd0008 	addiu	sp,sp,8
bfc06e84:	00000000 	nop
bfc06e88:	00000000 	nop
bfc06e8c:	00000000 	nop

bfc06e90 <OSTaskStkInit>:
OSTaskStkInit():
D:\loongson\projects\ls1d_ucos\ls1d_cpu/OS_CPU_C.c:58
///  栈类型 需要十分的注意！！！
INT32U wSR=0;
INT32U wGP;

OS_STK  *OSTaskStkInit (void (*task)(void *pd), void *pdata, OS_STK *ptos, INT16U opt)
{
bfc06e90:	27bdfff0 	addiu	sp,sp,-16
bfc06e94:	afbe000c 	sw	s8,12(sp)
bfc06e98:	03a0f021 	move	s8,sp
bfc06e9c:	afc40010 	sw	a0,16(s8)
bfc06ea0:	afc50014 	sw	a1,20(s8)
bfc06ea4:	afc60018 	sw	a2,24(s8)
bfc06ea8:	00e01021 	move	v0,a3
bfc06eac:	a7c2001c 	sh	v0,28(s8)
D:\loongson\projects\ls1d_ucos\ls1d_cpu/OS_CPU_C.c:62
    INT32U *stk;

    opt    = opt;                           /* 'opt' is not used, prevent warning                      */
    stk    = (INT32U *)ptos;                /* Load stack pointer                                      */
bfc06eb0:	8fc20018 	lw	v0,24(s8)
bfc06eb4:	afc20000 	sw	v0,0(s8)
D:\loongson\projects\ls1d_ucos\ls1d_cpu/OS_CPU_C.c:63
    stk --;
bfc06eb8:	8fc20000 	lw	v0,0(s8)
bfc06ebc:	2442fffc 	addiu	v0,v0,-4
bfc06ec0:	afc20000 	sw	v0,0(s8)
D:\loongson\projects\ls1d_ucos\ls1d_cpu/OS_CPU_C.c:64
    *stk-- = (INT32U)(task);         		/* pc: Entry Point                 		*/
bfc06ec4:	8fc30010 	lw	v1,16(s8)
bfc06ec8:	8fc20000 	lw	v0,0(s8)
bfc06ecc:	ac430000 	sw	v1,0(v0)
bfc06ed0:	8fc20000 	lw	v0,0(s8)
bfc06ed4:	2442fffc 	addiu	v0,v0,-4
bfc06ed8:	afc20000 	sw	v0,0(s8)
D:\loongson\projects\ls1d_ucos\ls1d_cpu/OS_CPU_C.c:65
    *stk-- = (INT32U)(wSR);					///C0_SR		IE	= 1
bfc06edc:	3c02a000 	lui	v0,0xa000
bfc06ee0:	8c431120 	lw	v1,4384(v0)
bfc06ee4:	8fc20000 	lw	v0,0(s8)
bfc06ee8:	ac430000 	sw	v1,0(v0)
bfc06eec:	8fc20000 	lw	v0,0(s8)
bfc06ef0:	2442fffc 	addiu	v0,v0,-4
bfc06ef4:	afc20000 	sw	v0,0(s8)
D:\loongson\projects\ls1d_ucos\ls1d_cpu/OS_CPU_C.c:66
    *stk-- = (INT32U)0;						/// at
bfc06ef8:	8fc20000 	lw	v0,0(s8)
bfc06efc:	ac400000 	sw	zero,0(v0)
bfc06f00:	8fc20000 	lw	v0,0(s8)
bfc06f04:	2442fffc 	addiu	v0,v0,-4
bfc06f08:	afc20000 	sw	v0,0(s8)
D:\loongson\projects\ls1d_ucos\ls1d_cpu/OS_CPU_C.c:67
    *stk-- = (INT32U)0;						/// v0
bfc06f0c:	8fc20000 	lw	v0,0(s8)
bfc06f10:	ac400000 	sw	zero,0(v0)
bfc06f14:	8fc20000 	lw	v0,0(s8)
bfc06f18:	2442fffc 	addiu	v0,v0,-4
bfc06f1c:	afc20000 	sw	v0,0(s8)
D:\loongson\projects\ls1d_ucos\ls1d_cpu/OS_CPU_C.c:68
    *stk-- = (INT32U)0;               		/// v1
bfc06f20:	8fc20000 	lw	v0,0(s8)
bfc06f24:	ac400000 	sw	zero,0(v0)
bfc06f28:	8fc20000 	lw	v0,0(s8)
bfc06f2c:	2442fffc 	addiu	v0,v0,-4
bfc06f30:	afc20000 	sw	v0,0(s8)
D:\loongson\projects\ls1d_ucos\ls1d_cpu/OS_CPU_C.c:69
    *stk-- = (INT32U)pdata;          		/// a0: argument
bfc06f34:	8fc30014 	lw	v1,20(s8)
bfc06f38:	8fc20000 	lw	v0,0(s8)
bfc06f3c:	ac430000 	sw	v1,0(v0)
bfc06f40:	8fc20000 	lw	v0,0(s8)
bfc06f44:	2442fffc 	addiu	v0,v0,-4
bfc06f48:	afc20000 	sw	v0,0(s8)
D:\loongson\projects\ls1d_ucos\ls1d_cpu/OS_CPU_C.c:70
    *stk-- = (INT32U)0;						/// a1
bfc06f4c:	8fc20000 	lw	v0,0(s8)
bfc06f50:	ac400000 	sw	zero,0(v0)
bfc06f54:	8fc20000 	lw	v0,0(s8)
bfc06f58:	2442fffc 	addiu	v0,v0,-4
bfc06f5c:	afc20000 	sw	v0,0(s8)
D:\loongson\projects\ls1d_ucos\ls1d_cpu/OS_CPU_C.c:71
    *stk-- = (INT32U)0;						/// a2
bfc06f60:	8fc20000 	lw	v0,0(s8)
bfc06f64:	ac400000 	sw	zero,0(v0)
bfc06f68:	8fc20000 	lw	v0,0(s8)
bfc06f6c:	2442fffc 	addiu	v0,v0,-4
bfc06f70:	afc20000 	sw	v0,0(s8)
D:\loongson\projects\ls1d_ucos\ls1d_cpu/OS_CPU_C.c:72
    *stk-- = (INT32U)0;						/// a3
bfc06f74:	8fc20000 	lw	v0,0(s8)
bfc06f78:	ac400000 	sw	zero,0(v0)
bfc06f7c:	8fc20000 	lw	v0,0(s8)
bfc06f80:	2442fffc 	addiu	v0,v0,-4
bfc06f84:	afc20000 	sw	v0,0(s8)
D:\loongson\projects\ls1d_ucos\ls1d_cpu/OS_CPU_C.c:73
    *stk-- = (INT32U)0;						/// t0
bfc06f88:	8fc20000 	lw	v0,0(s8)
bfc06f8c:	ac400000 	sw	zero,0(v0)
bfc06f90:	8fc20000 	lw	v0,0(s8)
bfc06f94:	2442fffc 	addiu	v0,v0,-4
bfc06f98:	afc20000 	sw	v0,0(s8)
D:\loongson\projects\ls1d_ucos\ls1d_cpu/OS_CPU_C.c:74
    *stk-- = (INT32U)0;						/// t1
bfc06f9c:	8fc20000 	lw	v0,0(s8)
bfc06fa0:	ac400000 	sw	zero,0(v0)
bfc06fa4:	8fc20000 	lw	v0,0(s8)
bfc06fa8:	2442fffc 	addiu	v0,v0,-4
bfc06fac:	afc20000 	sw	v0,0(s8)
D:\loongson\projects\ls1d_ucos\ls1d_cpu/OS_CPU_C.c:75
    *stk-- = (INT32U)0;						/// t2
bfc06fb0:	8fc20000 	lw	v0,0(s8)
bfc06fb4:	ac400000 	sw	zero,0(v0)
bfc06fb8:	8fc20000 	lw	v0,0(s8)
bfc06fbc:	2442fffc 	addiu	v0,v0,-4
bfc06fc0:	afc20000 	sw	v0,0(s8)
D:\loongson\projects\ls1d_ucos\ls1d_cpu/OS_CPU_C.c:76
    *stk-- = (INT32U)0;						/// t3
bfc06fc4:	8fc20000 	lw	v0,0(s8)
bfc06fc8:	ac400000 	sw	zero,0(v0)
bfc06fcc:	8fc20000 	lw	v0,0(s8)
bfc06fd0:	2442fffc 	addiu	v0,v0,-4
bfc06fd4:	afc20000 	sw	v0,0(s8)
D:\loongson\projects\ls1d_ucos\ls1d_cpu/OS_CPU_C.c:77
    *stk-- = (INT32U)0;						/// t4
bfc06fd8:	8fc20000 	lw	v0,0(s8)
bfc06fdc:	ac400000 	sw	zero,0(v0)
bfc06fe0:	8fc20000 	lw	v0,0(s8)
bfc06fe4:	2442fffc 	addiu	v0,v0,-4
bfc06fe8:	afc20000 	sw	v0,0(s8)
D:\loongson\projects\ls1d_ucos\ls1d_cpu/OS_CPU_C.c:78
    *stk-- = (INT32U)0;						/// t5
bfc06fec:	8fc20000 	lw	v0,0(s8)
bfc06ff0:	ac400000 	sw	zero,0(v0)
bfc06ff4:	8fc20000 	lw	v0,0(s8)
bfc06ff8:	2442fffc 	addiu	v0,v0,-4
bfc06ffc:	afc20000 	sw	v0,0(s8)
D:\loongson\projects\ls1d_ucos\ls1d_cpu/OS_CPU_C.c:79
    *stk-- = (INT32U)0;						/// t6
bfc07000:	8fc20000 	lw	v0,0(s8)
bfc07004:	ac400000 	sw	zero,0(v0)
bfc07008:	8fc20000 	lw	v0,0(s8)
bfc0700c:	2442fffc 	addiu	v0,v0,-4
bfc07010:	afc20000 	sw	v0,0(s8)
D:\loongson\projects\ls1d_ucos\ls1d_cpu/OS_CPU_C.c:80
    *stk-- = (INT32U)0;						/// t7
bfc07014:	8fc20000 	lw	v0,0(s8)
bfc07018:	ac400000 	sw	zero,0(v0)
bfc0701c:	8fc20000 	lw	v0,0(s8)
bfc07020:	2442fffc 	addiu	v0,v0,-4
bfc07024:	afc20000 	sw	v0,0(s8)
D:\loongson\projects\ls1d_ucos\ls1d_cpu/OS_CPU_C.c:81
    *stk-- = (INT32U)0;						/// s0
bfc07028:	8fc20000 	lw	v0,0(s8)
bfc0702c:	ac400000 	sw	zero,0(v0)
bfc07030:	8fc20000 	lw	v0,0(s8)
bfc07034:	2442fffc 	addiu	v0,v0,-4
bfc07038:	afc20000 	sw	v0,0(s8)
D:\loongson\projects\ls1d_ucos\ls1d_cpu/OS_CPU_C.c:82
    *stk-- = (INT32U)0;						/// s1
bfc0703c:	8fc20000 	lw	v0,0(s8)
bfc07040:	ac400000 	sw	zero,0(v0)
bfc07044:	8fc20000 	lw	v0,0(s8)
bfc07048:	2442fffc 	addiu	v0,v0,-4
bfc0704c:	afc20000 	sw	v0,0(s8)
D:\loongson\projects\ls1d_ucos\ls1d_cpu/OS_CPU_C.c:83
    *stk-- = (INT32U)0;						/// s2
bfc07050:	8fc20000 	lw	v0,0(s8)
bfc07054:	ac400000 	sw	zero,0(v0)
bfc07058:	8fc20000 	lw	v0,0(s8)
bfc0705c:	2442fffc 	addiu	v0,v0,-4
bfc07060:	afc20000 	sw	v0,0(s8)
D:\loongson\projects\ls1d_ucos\ls1d_cpu/OS_CPU_C.c:84
    *stk-- = (INT32U)0;						/// s3
bfc07064:	8fc20000 	lw	v0,0(s8)
bfc07068:	ac400000 	sw	zero,0(v0)
bfc0706c:	8fc20000 	lw	v0,0(s8)
bfc07070:	2442fffc 	addiu	v0,v0,-4
bfc07074:	afc20000 	sw	v0,0(s8)
D:\loongson\projects\ls1d_ucos\ls1d_cpu/OS_CPU_C.c:85
    *stk-- = (INT32U)0;						/// s4
bfc07078:	8fc20000 	lw	v0,0(s8)
bfc0707c:	ac400000 	sw	zero,0(v0)
bfc07080:	8fc20000 	lw	v0,0(s8)
bfc07084:	2442fffc 	addiu	v0,v0,-4
bfc07088:	afc20000 	sw	v0,0(s8)
D:\loongson\projects\ls1d_ucos\ls1d_cpu/OS_CPU_C.c:86
    *stk-- = (INT32U)0;						/// s5
bfc0708c:	8fc20000 	lw	v0,0(s8)
bfc07090:	ac400000 	sw	zero,0(v0)
bfc07094:	8fc20000 	lw	v0,0(s8)
bfc07098:	2442fffc 	addiu	v0,v0,-4
bfc0709c:	afc20000 	sw	v0,0(s8)
D:\loongson\projects\ls1d_ucos\ls1d_cpu/OS_CPU_C.c:87
    *stk-- = (INT32U)0;						/// s6
bfc070a0:	8fc20000 	lw	v0,0(s8)
bfc070a4:	ac400000 	sw	zero,0(v0)
bfc070a8:	8fc20000 	lw	v0,0(s8)
bfc070ac:	2442fffc 	addiu	v0,v0,-4
bfc070b0:	afc20000 	sw	v0,0(s8)
D:\loongson\projects\ls1d_ucos\ls1d_cpu/OS_CPU_C.c:88
    *stk-- = (INT32U)0;						/// s7
bfc070b4:	8fc20000 	lw	v0,0(s8)
bfc070b8:	ac400000 	sw	zero,0(v0)
bfc070bc:	8fc20000 	lw	v0,0(s8)
bfc070c0:	2442fffc 	addiu	v0,v0,-4
bfc070c4:	afc20000 	sw	v0,0(s8)
D:\loongson\projects\ls1d_ucos\ls1d_cpu/OS_CPU_C.c:89
    *stk-- = (INT32U)0;						/// s8 t8
bfc070c8:	8fc20000 	lw	v0,0(s8)
bfc070cc:	ac400000 	sw	zero,0(v0)
bfc070d0:	8fc20000 	lw	v0,0(s8)
bfc070d4:	2442fffc 	addiu	v0,v0,-4
bfc070d8:	afc20000 	sw	v0,0(s8)
D:\loongson\projects\ls1d_ucos\ls1d_cpu/OS_CPU_C.c:90
    *stk-- = (INT32U)0;						/// s9 t9
bfc070dc:	8fc20000 	lw	v0,0(s8)
bfc070e0:	ac400000 	sw	zero,0(v0)
bfc070e4:	8fc20000 	lw	v0,0(s8)
bfc070e8:	2442fffc 	addiu	v0,v0,-4
bfc070ec:	afc20000 	sw	v0,0(s8)
D:\loongson\projects\ls1d_ucos\ls1d_cpu/OS_CPU_C.c:91
    *stk-- = (INT32U)0;						/// gp
bfc070f0:	8fc20000 	lw	v0,0(s8)
bfc070f4:	ac400000 	sw	zero,0(v0)
bfc070f8:	8fc20000 	lw	v0,0(s8)
bfc070fc:	2442fffc 	addiu	v0,v0,-4
bfc07100:	afc20000 	sw	v0,0(s8)
D:\loongson\projects\ls1d_ucos\ls1d_cpu/OS_CPU_C.c:92
    *stk-- = (INT32U)0;						/// fp
bfc07104:	8fc20000 	lw	v0,0(s8)
bfc07108:	ac400000 	sw	zero,0(v0)
bfc0710c:	8fc20000 	lw	v0,0(s8)
bfc07110:	2442fffc 	addiu	v0,v0,-4
bfc07114:	afc20000 	sw	v0,0(s8)
D:\loongson\projects\ls1d_ucos\ls1d_cpu/OS_CPU_C.c:93
    *stk   = (INT32U)(task);				/// ra
bfc07118:	8fc30010 	lw	v1,16(s8)
bfc0711c:	8fc20000 	lw	v0,0(s8)
bfc07120:	ac430000 	sw	v1,0(v0)
D:\loongson\projects\ls1d_ucos\ls1d_cpu/OS_CPU_C.c:95

	return ((OS_STK *)stk);
bfc07124:	8fc20000 	lw	v0,0(s8)
D:\loongson\projects\ls1d_ucos\ls1d_cpu/OS_CPU_C.c:96
}
bfc07128:	03c0e821 	move	sp,s8
bfc0712c:	8fbe000c 	lw	s8,12(sp)
bfc07130:	27bd0010 	addiu	sp,sp,16
bfc07134:	03e00008 	jr	ra
bfc07138:	00000000 	nop
bfc0713c:	00000000 	nop

bfc07140 <OSStartHighRdy>:
D:\loongson\projects\ls1d_ucos\ls1d_asm/OS_CPU_A.S:49
;           a) Call OSTaskSwHook() then,
;           b) Set OSRunning to TRUE,
;           c) Switch to the highest priority task.
;*********************************************************************************************************/
OSStartHighRdy:
	la t0,OSRunning             /* Indicate that multitasking has started */
bfc07140:	3c08a000 25081002 24090001 a1090000     ...<...%...$....
D:\loongson\projects\ls1d_ucos\ls1d_asm/OS_CPU_A.S:53
	li t1,1
	sb t1,0(t0)                 /* OSRunning is a boolean */

	la t0,OSTCBHighRdy          /* Get highest priority task TCB address */
bfc07150:	3c08a000 25081064 8d080000 8d1d0000     ...<d..%........
D:\loongson\projects\ls1d_ucos\ls1d_asm/OS_CPU_A.S:57
	lw t0,0(t0)                 /* get stack pointer */
    lw sp,0(t0)                 /* switch to the new stack */

	RESTORE_REG_RET()			/* pop new task's at, v0-v1,a0-a3,t0-t9,s0-s7,fp,ra, & pc */
bfc07160:	8fbf0000 8fbe0004 8fbc0008 8fb9000c     ................
bfc07170:	8fb80010 8fb70014 8fb60018 8fb5001c     ................
bfc07180:	8fb40020 8fb30024 8fb20028 8fb1002c      ...$...(...,...
bfc07190:	8fb00030 8faf0034 8fae0038 8fad003c     0...4...8...<...
bfc071a0:	8fac0040 8fab0044 8faa0048 8fa9004c     @...D...H...L...
bfc071b0:	8fa80050 8fa70054 8fa60058 8fa5005c     P...T...X...\...
bfc071c0:	8fa40060 8fa30064 8fa20068 8fa1006c     `...d...h...l...
bfc071d0:	8fbb0070 8fba0074 27bd0078 409b6000     p...t...x..'.`.@
bfc071e0:	03400008 00000000                       ..@.....

bfc071e8 <OSCtxSw>:
D:\loongson\projects\ls1d_ucos\ls1d_asm/OS_CPU_A.S:81
;
;
;*********************************************************************************************************/
OSCtxSw:
	/* Special optimised code below: */
	STORE_REG_RET(ra)               /* push task's at, v0-v1,a0-a3,t0-t9,s0-s7,fp,ra, & pc */
bfc071e8:	27bdff88 afbf0000 afbe0004 afbc0008     ...'............
bfc071f8:	afb9000c afb80010 afb70014 afb60018     ................
bfc07208:	afb5001c afb40020 afb30024 afb20028     .... ...$...(...
bfc07218:	afb1002c afb00030 afaf0034 afae0038     ,...0...4...8...
bfc07228:	afad003c afac0040 afab0044 afaa0048     <...@...D...H...
bfc07238:	afa9004c afa80050 afa70054 afa60058     L...P...T...X...
bfc07248:	afa5005c afa40060 afa30064 afa20068     \...`...d...h...
bfc07258:	afa1006c 40086000 afa80070 afbf0074     l....`.@p...t...
D:\loongson\projects\ls1d_ucos\ls1d_asm/OS_CPU_A.S:84

	/* OSPrioCur = OSPrioHighRdy */
	la t0,OSPrioCur
bfc07268:	3c08a000 25081020 3c09a000 25291010     ...< ..%...<..)%
D:\loongson\projects\ls1d_ucos\ls1d_asm/OS_CPU_A.S:86
	la t1,OSPrioHighRdy
	lb t2,0(t1)
bfc07278:	812a0000 a10a0000 3c08a000 250810a0     ..*........<...%
D:\loongson\projects\ls1d_ucos\ls1d_asm/OS_CPU_A.S:91
	sb t2,0(t0)

	/* Get current task TCB address */
	la t0,OSTCBCur
	lw t1,0(t0)
bfc07288:	8d090000 ad3d0000 3c09a000 25291064     ......=....<d.)%
D:\loongson\projects\ls1d_ucos\ls1d_asm/OS_CPU_A.S:96
	sw sp,0(t1)                 /* store sp in preempted tasks's TCB */

	/* Get highest priority task TCB address */
	la t1,OSTCBHighRdy
	lw t1,0(t1)
bfc07298:	8d290000 8d3d0000 ad090000 8fbf0000     ..)...=.........
D:\loongson\projects\ls1d_ucos\ls1d_asm/OS_CPU_A.S:102
	lw sp,0(t1)                 /* get new task's stack pointer */

	/* OSTCBCur = OSTCBHighRdy */
	sw t1,0(t0)                /* set new current task TCB address */

	RESTORE_REG_RET()        /* TBI */     /* pop new task's at, v0-v1,a0-a3,t0-t9,s0-s7,fp,ra, & pc */
bfc072a8:	8fbe0004 8fbc0008 8fb9000c 8fb80010     ................
bfc072b8:	8fb70014 8fb60018 8fb5001c 8fb40020     ............ ...
bfc072c8:	8fb30024 8fb20028 8fb1002c 8fb00030     $...(...,...0...
bfc072d8:	8faf0034 8fae0038 8fad003c 8fac0040     4...8...<...@...
bfc072e8:	8fab0044 8faa0048 8fa9004c 8fa80050     D...H...L...P...
bfc072f8:	8fa70054 8fa60058 8fa5005c 8fa40060     T...X...\...`...
bfc07308:	8fa30064 8fa20068 8fa1006c 8fbb0070     d...h...l...p...
bfc07318:	8fba0074 27bd0078 409b6000 03400008     t...x..'.`.@..@.
bfc07328:	00000000                                ....

bfc0732c <OSIntCtxSw>:
D:\loongson\projects\ls1d_ucos\ls1d_asm/OS_CPU_A.S:128
;                                           Flags to load in PSW             (High memory)
;*********************************************************************************************************/
OSIntCtxSw:

	/* OSPrioCur = OSPrioHighRdy */
	la t0,OSPrioCur
bfc0732c:	3c08a000 25081020 3c09a000 25291010     ...< ..%...<..)%
D:\loongson\projects\ls1d_ucos\ls1d_asm/OS_CPU_A.S:130
	la t1,OSPrioHighRdy
	lb t1,0(t1)
bfc0733c:	81290000 a1090000 3c08a000 250810a0     ..)........<...%
D:\loongson\projects\ls1d_ucos\ls1d_asm/OS_CPU_A.S:137

	/* Get current task TCB address */
	la t0,OSTCBCur

	/* Get highest priority task TCB address */
	la t2,OSTCBHighRdy
bfc0734c:	3c0aa000 254a1064 8d4a0000 8d5d0000     ...<d.J%..J...].
D:\loongson\projects\ls1d_ucos\ls1d_asm/OS_CPU_A.S:142
	lw t2,0(t2)
	lw sp,0(t2)                 /* get new task's stack pointer*/

	/* OSTCBCur = OSTCBHighRdy */
	sw t2,0(t0)                 /* set new current task TCB address */
bfc0735c:	ad0a0000 8fbf0000 8fbe0004 8fbc0008     ................
D:\loongson\projects\ls1d_ucos\ls1d_asm/OS_CPU_A.S:144

	RESTORE_REG_ERET()
bfc0736c:	8fb9000c 8fb80010 8fb70014 8fb60018     ................
bfc0737c:	8fb5001c 8fb40020 8fb30024 8fb20028     .... ...$...(...
bfc0738c:	8fb1002c 8fb00030 8faf0034 8fae0038     ,...0...4...8...
bfc0739c:	8fad003c 8fac0040 8fab0044 8faa0048     <...@...D...H...
bfc073ac:	8fa9004c 8fa80050 8fa70054 8fa60058     L...P...T...X...
bfc073bc:	8fa5005c 8fa40060 8fa30064 8fa20068     \...`...d...h...
bfc073cc:	8fa1006c 8fba0070 375a0002 409a6000     l...p.....Z7.`.@
bfc073dc:	8fba0074 409a7000 27bd0078 42000018     t....p.@x..'...B
bfc073ec:	00000000                                ....

bfc073f0 <OSCPUSaveSR>:
D:\loongson\projects\ls1d_ucos\ls1d_asm/OS_CPU_A.S:148


OSCPUSaveSR:
	MFC0  v0,CP0_STATUS
bfc073f0:	40026000 2403fffe 00431824 40836000     .`.@...$$.C..`.@
D:\loongson\projects\ls1d_ucos\ls1d_asm/OS_CPU_A.S:152
	li	v1,0xfffffffe
	and v1,v0,v1
	MTC0  v1,CP0_STATUS
	jr ra
bfc07400:	03e00008 00000000                       ........

bfc07408 <OSCPURestoreSR>:
D:\loongson\projects\ls1d_ucos\ls1d_asm/OS_CPU_A.S:156
	nop

OSCPURestoreSR:
	MTC0  a0,CP0_STATUS
bfc07408:	40846000 03e00008 00000000              .`.@........

bfc07414 <OS_InitMips>:
D:\loongson\projects\ls1d_ucos\ls1d_asm/OS_CPU_A.S:162
	jr ra
    nop


OS_InitMips:
	la 	t0,wGP
bfc07414:	3c08a000 250810b8 ad1c0000 40086000     ...<...%.....`.@
D:\loongson\projects\ls1d_ucos\ls1d_asm/OS_CPU_A.S:166
	sw	gp,0(t0)

	MFC0 t0,CP0_STATUS
	ori  t0,t0,0x201			//// 使能IE 位，使能 timer 的 mask
bfc07424:	35080201 3c09a000 25291120 ad280000     ...5...< .)%..(.
D:\loongson\projects\ls1d_ucos\ls1d_asm/OS_CPU_A.S:169
	la	t1,wSR
	sw 	t0,0(t1)
	jr	ra
bfc07434:	03e00008 00000000                       ........

bfc0743c <EnableWake>:
D:\loongson\projects\ls1d_ucos\ls1d_asm/OS_CPU_A.S:173
	nop

EnableWake:
	MFC0  	t0,CP0_STATUS
bfc0743c:	40086000 35080400 40886000 03e00008     .`.@...5.`.@....
D:\loongson\projects\ls1d_ucos\ls1d_asm/OS_CPU_A.S:177
	ori	t0,t0,0x00000400
	MTC0	t0,CP0_STATUS
	jr ra
    nop
bfc0744c:	00000000                                ....

bfc07450 <EnableInt>:
D:\loongson\projects\ls1d_ucos\ls1d_asm/OS_CPU_A.S:180

EnableInt:
	MFC0  	t0,CP0_STATUS
bfc07450:	40086000 35080401 40886000 03e00008     .`.@...5.`.@....
D:\loongson\projects\ls1d_ucos\ls1d_asm/OS_CPU_A.S:184
	ori	t0,t0,0x00000401
	MTC0	t0,CP0_STATUS
	jr ra
    nop
bfc07460:	00000000                                ....

bfc07464 <EnableIntC>:
D:\loongson\projects\ls1d_ucos\ls1d_asm/OS_CPU_A.S:187

EnableIntC:
	MFC0  	t0,CP0_STATUS
bfc07464:	40086000 35084000 40886000 03e00008     .`.@.@.5.`.@....
D:\loongson\projects\ls1d_ucos\ls1d_asm/OS_CPU_A.S:191
	ori	t0,t0,0x00004000
	MTC0	t0,CP0_STATUS
	jr ra
    nop
bfc07474:	00000000 00000000 00000000              ............

bfc07480 <printbase>:
printbase():
D:\loongson\projects\ls1d_ucos\lib1d/lib.c:5
#include "includes.h"


int printbase(long v,int w,int base,int sign)
{
bfc07480:	27bdff88 	addiu	sp,sp,-120
bfc07484:	afbf0074 	sw	ra,116(sp)
bfc07488:	afbe0070 	sw	s8,112(sp)
bfc0748c:	03a0f021 	move	s8,sp
bfc07490:	afc40078 	sw	a0,120(s8)
bfc07494:	afc5007c 	sw	a1,124(s8)
bfc07498:	afc60080 	sw	a2,128(s8)
bfc0749c:	afc70084 	sw	a3,132(s8)
D:\loongson\projects\ls1d_ucos\lib1d/lib.c:10
	int i,j;
	int c;
	char buf[64];
	unsigned long value;
	if(sign && v<0)
bfc074a0:	8fc20084 	lw	v0,132(s8)
bfc074a4:	1040000e 	beqz	v0,bfc074e0 <printbase+0x60>
bfc074a8:	00000000 	nop
bfc074ac:	8fc20078 	lw	v0,120(s8)
bfc074b0:	0441000b 	bgez	v0,bfc074e0 <printbase+0x60>
bfc074b4:	00000000 	nop
D:\loongson\projects\ls1d_ucos\lib1d/lib.c:12
	{
	value = -v;
bfc074b8:	8fc20078 	lw	v0,120(s8)
bfc074bc:	00021023 	negu	v0,v0
bfc074c0:	afc20010 	sw	v0,16(s8)
D:\loongson\projects\ls1d_ucos\lib1d/lib.c:13
	putchar('-');
bfc074c4:	2404002d 	li	a0,45
bfc074c8:	3c02bfc1 	lui	v0,0xbfc1
bfc074cc:	2459934c 	addiu	t9,v0,-27828
bfc074d0:	0320f809 	jalr	t9
bfc074d4:	00000000 	nop
bfc074d8:	0bf01d3a 	j	bfc074e8 <printbase+0x68>
bfc074dc:	00000000 	nop
D:\loongson\projects\ls1d_ucos\lib1d/lib.c:15
	}
	else value=v;
bfc074e0:	8fc20078 	lw	v0,120(s8)
bfc074e4:	afc20010 	sw	v0,16(s8)
D:\loongson\projects\ls1d_ucos\lib1d/lib.c:17

	for(i=0;value;i++)
bfc074e8:	afc0001c 	sw	zero,28(s8)
bfc074ec:	0bf01d51 	j	bfc07544 <printbase+0xc4>
bfc074f0:	00000000 	nop
D:\loongson\projects\ls1d_ucos\lib1d/lib.c:19
	{
	buf[i]=value%base;
bfc074f4:	8fc4001c 	lw	a0,28(s8)
bfc074f8:	8fc30080 	lw	v1,128(s8)
bfc074fc:	8fc20010 	lw	v0,16(s8)
bfc07500:	0043001b 	divu	zero,v0,v1
bfc07504:	006001f4 	teq	v1,zero,0x7
bfc07508:	00001010 	mfhi	v0
bfc0750c:	00021e00 	sll	v1,v0,0x18
bfc07510:	00031e03 	sra	v1,v1,0x18
bfc07514:	27c20010 	addiu	v0,s8,16
bfc07518:	00441021 	addu	v0,v0,a0
bfc0751c:	a0430010 	sb	v1,16(v0)
D:\loongson\projects\ls1d_ucos\lib1d/lib.c:20
	value=value/base;
bfc07520:	8fc30080 	lw	v1,128(s8)
bfc07524:	8fc20010 	lw	v0,16(s8)
bfc07528:	0043001b 	divu	zero,v0,v1
bfc0752c:	006001f4 	teq	v1,zero,0x7
bfc07530:	00001012 	mflo	v0
bfc07534:	afc20010 	sw	v0,16(s8)
D:\loongson\projects\ls1d_ucos\lib1d/lib.c:17
	value = -v;
	putchar('-');
	}
	else value=v;

	for(i=0;value;i++)
bfc07538:	8fc2001c 	lw	v0,28(s8)
bfc0753c:	24420001 	addiu	v0,v0,1
bfc07540:	afc2001c 	sw	v0,28(s8)
bfc07544:	8fc20010 	lw	v0,16(s8)
bfc07548:	1440ffea 	bnez	v0,bfc074f4 <printbase+0x74>
bfc0754c:	00000000 	nop
D:\loongson\projects\ls1d_ucos\lib1d/lib.c:25
	value=value/base;
	}

#define max(a,b) (((a)>(b))?(a):(b))

	for(j=max(w,i);j>0;j--)
bfc07550:	8fc3007c 	lw	v1,124(s8)
bfc07554:	8fc4001c 	lw	a0,28(s8)
bfc07558:	8fc2001c 	lw	v0,28(s8)
bfc0755c:	0043102a 	slt	v0,v0,v1
bfc07560:	00602821 	move	a1,v1
bfc07564:	0082280a 	movz	a1,a0,v0
bfc07568:	00a01021 	move	v0,a1
bfc0756c:	afc20018 	sw	v0,24(s8)
bfc07570:	0bf01d82 	j	bfc07608 <printbase+0x188>
bfc07574:	00000000 	nop
D:\loongson\projects\ls1d_ucos\lib1d/lib.c:27
	{
		c=j>i?0:buf[j-1];
bfc07578:	8fc20018 	lw	v0,24(s8)
bfc0757c:	8fc3001c 	lw	v1,28(s8)
bfc07580:	0062102a 	slt	v0,v1,v0
bfc07584:	14400009 	bnez	v0,bfc075ac <printbase+0x12c>
bfc07588:	00000000 	nop
bfc0758c:	8fc20018 	lw	v0,24(s8)
bfc07590:	2443ffff 	addiu	v1,v0,-1
bfc07594:	27c20010 	addiu	v0,s8,16
bfc07598:	00431021 	addu	v0,v0,v1
bfc0759c:	80420010 	lb	v0,16(v0)
bfc075a0:	afc20064 	sw	v0,100(s8)
bfc075a4:	0bf01d6c 	j	bfc075b0 <printbase+0x130>
bfc075a8:	00000000 	nop
bfc075ac:	afc00064 	sw	zero,100(s8)
bfc075b0:	8fc20064 	lw	v0,100(s8)
bfc075b4:	afc20014 	sw	v0,20(s8)
D:\loongson\projects\ls1d_ucos\lib1d/lib.c:28
		putchar((c<=9)?c+'0':c-0xa+'a');
bfc075b8:	8fc20014 	lw	v0,20(s8)
bfc075bc:	2842000a 	slti	v0,v0,10
bfc075c0:	10400006 	beqz	v0,bfc075dc <printbase+0x15c>
bfc075c4:	00000000 	nop
bfc075c8:	8fc20014 	lw	v0,20(s8)
bfc075cc:	24420030 	addiu	v0,v0,48
bfc075d0:	afc20060 	sw	v0,96(s8)
bfc075d4:	0bf01d7a 	j	bfc075e8 <printbase+0x168>
bfc075d8:	00000000 	nop
bfc075dc:	8fc20014 	lw	v0,20(s8)
bfc075e0:	24420057 	addiu	v0,v0,87
bfc075e4:	afc20060 	sw	v0,96(s8)
bfc075e8:	8fc40060 	lw	a0,96(s8)
bfc075ec:	3c02bfc1 	lui	v0,0xbfc1
bfc075f0:	2459934c 	addiu	t9,v0,-27828
bfc075f4:	0320f809 	jalr	t9
bfc075f8:	00000000 	nop
D:\loongson\projects\ls1d_ucos\lib1d/lib.c:25
	value=value/base;
	}

#define max(a,b) (((a)>(b))?(a):(b))

	for(j=max(w,i);j>0;j--)
bfc075fc:	8fc20018 	lw	v0,24(s8)
bfc07600:	2442ffff 	addiu	v0,v0,-1
bfc07604:	afc20018 	sw	v0,24(s8)
bfc07608:	8fc20018 	lw	v0,24(s8)
bfc0760c:	1c40ffda 	bgtz	v0,bfc07578 <printbase+0xf8>
bfc07610:	00000000 	nop
D:\loongson\projects\ls1d_ucos\lib1d/lib.c:30
	{
		c=j>i?0:buf[j-1];
		putchar((c<=9)?c+'0':c-0xa+'a');
	}
	return 0;
bfc07614:	00001021 	move	v0,zero
D:\loongson\projects\ls1d_ucos\lib1d/lib.c:31
}
bfc07618:	03c0e821 	move	sp,s8
bfc0761c:	8fbf0074 	lw	ra,116(sp)
bfc07620:	8fbe0070 	lw	s8,112(sp)
bfc07624:	27bd0078 	addiu	sp,sp,120
bfc07628:	03e00008 	jr	ra
bfc0762c:	00000000 	nop

bfc07630 <printf>:
printf():
D:\loongson\projects\ls1d_ucos\lib1d/lib.c:40
int i;
char c;
void **arg;
void *ap;
int w;
__builtin_va_start(ap,fmt);
bfc07630:	27bdffc8 	addiu	sp,sp,-56
bfc07634:	afbf0034 	sw	ra,52(sp)
bfc07638:	afbe0030 	sw	s8,48(sp)
bfc0763c:	03a0f021 	move	s8,sp
bfc07640:	afc5003c 	sw	a1,60(s8)
bfc07644:	afc60040 	sw	a2,64(s8)
bfc07648:	afc70044 	sw	a3,68(s8)
bfc0764c:	afc40038 	sw	a0,56(s8)
bfc07650:	27c2003c 	addiu	v0,s8,60
bfc07654:	afc20020 	sw	v0,32(s8)
D:\loongson\projects\ls1d_ucos\lib1d/lib.c:41
arg=ap;
bfc07658:	8fc20020 	lw	v0,32(s8)
bfc0765c:	afc20014 	sw	v0,20(s8)
D:\loongson\projects\ls1d_ucos\lib1d/lib.c:42
for(i=0;fmt[i];i++)
bfc07660:	afc0001c 	sw	zero,28(s8)
bfc07664:	0bf01e71 	j	bfc079c4 <printf+0x394>
bfc07668:	00000000 	nop
D:\loongson\projects\ls1d_ucos\lib1d/lib.c:44
{
	c=fmt[i];
bfc0766c:	8fc3001c 	lw	v1,28(s8)
bfc07670:	8fc20038 	lw	v0,56(s8)
bfc07674:	00431021 	addu	v0,v0,v1
bfc07678:	90420000 	lbu	v0,0(v0)
bfc0767c:	a3c20018 	sb	v0,24(s8)
D:\loongson\projects\ls1d_ucos\lib1d/lib.c:45
	if(c=='%')
bfc07680:	83c30018 	lb	v1,24(s8)
bfc07684:	24020025 	li	v0,37
bfc07688:	146200bc 	bne	v1,v0,bfc0797c <printf+0x34c>
bfc0768c:	00000000 	nop
D:\loongson\projects\ls1d_ucos\lib1d/lib.c:47
	{
		w=1;
bfc07690:	24020001 	li	v0,1
bfc07694:	afc20010 	sw	v0,16(s8)
D:\loongson\projects\ls1d_ucos\lib1d/lib.c:49
again:
		switch(fmt[i+1])
bfc07698:	8fc2001c 	lw	v0,28(s8)
bfc0769c:	24430001 	addiu	v1,v0,1
bfc076a0:	8fc20038 	lw	v0,56(s8)
bfc076a4:	00431021 	addu	v0,v0,v1
bfc076a8:	80420000 	lb	v0,0(v0)
bfc076ac:	2442ffdb 	addiu	v0,v0,-37
bfc076b0:	afc20028 	sw	v0,40(s8)
bfc076b4:	8fc30028 	lw	v1,40(s8)
bfc076b8:	2c620054 	sltiu	v0,v1,84
bfc076bc:	104000a8 	beqz	v0,bfc07960 <printf+0x330>
bfc076c0:	00000000 	nop
bfc076c4:	8fc20028 	lw	v0,40(s8)
bfc076c8:	00021880 	sll	v1,v0,0x2
bfc076cc:	3c02bfc1 	lui	v0,0xbfc1
bfc076d0:	24429970 	addiu	v0,v0,-26256
bfc076d4:	00621021 	addu	v0,v1,v0
bfc076d8:	8c420000 	lw	v0,0(v0)
bfc076dc:	00400008 	jr	v0
bfc076e0:	00000000 	nop
D:\loongson\projects\ls1d_ucos\lib1d/lib.c:52
		{
			case 's':
				puts(*arg);
bfc076e4:	8fc20014 	lw	v0,20(s8)
bfc076e8:	8c420000 	lw	v0,0(v0)
bfc076ec:	00402021 	move	a0,v0
bfc076f0:	3c02bfc1 	lui	v0,0xbfc1
bfc076f4:	24599390 	addiu	t9,v0,-27760
bfc076f8:	0320f809 	jalr	t9
bfc076fc:	00000000 	nop
D:\loongson\projects\ls1d_ucos\lib1d/lib.c:53
				arg++;
bfc07700:	8fc20014 	lw	v0,20(s8)
bfc07704:	24420004 	addiu	v0,v0,4
bfc07708:	afc20014 	sw	v0,20(s8)
D:\loongson\projects\ls1d_ucos\lib1d/lib.c:54
				i++;
bfc0770c:	8fc2001c 	lw	v0,28(s8)
bfc07710:	24420001 	addiu	v0,v0,1
bfc07714:	afc2001c 	sw	v0,28(s8)
bfc07718:	0bf01e6e 	j	bfc079b8 <printf+0x388>
bfc0771c:	00000000 	nop
D:\loongson\projects\ls1d_ucos\lib1d/lib.c:57
				break;
			case 'c':
				putchar((long)*arg);
bfc07720:	8fc20014 	lw	v0,20(s8)
bfc07724:	8c420000 	lw	v0,0(v0)
bfc07728:	00402021 	move	a0,v0
bfc0772c:	3c02bfc1 	lui	v0,0xbfc1
bfc07730:	2459934c 	addiu	t9,v0,-27828
bfc07734:	0320f809 	jalr	t9
bfc07738:	00000000 	nop
D:\loongson\projects\ls1d_ucos\lib1d/lib.c:58
				arg++;
bfc0773c:	8fc20014 	lw	v0,20(s8)
bfc07740:	24420004 	addiu	v0,v0,4
bfc07744:	afc20014 	sw	v0,20(s8)
D:\loongson\projects\ls1d_ucos\lib1d/lib.c:59
				i++;
bfc07748:	8fc2001c 	lw	v0,28(s8)
bfc0774c:	24420001 	addiu	v0,v0,1
bfc07750:	afc2001c 	sw	v0,28(s8)
bfc07754:	0bf01e6e 	j	bfc079b8 <printf+0x388>
bfc07758:	00000000 	nop
D:\loongson\projects\ls1d_ucos\lib1d/lib.c:62
				break;
			case 'u':
				printbase((long)*arg,w,10,0);
bfc0775c:	8fc20014 	lw	v0,20(s8)
bfc07760:	8c420000 	lw	v0,0(v0)
bfc07764:	00402021 	move	a0,v0
bfc07768:	8fc50010 	lw	a1,16(s8)
bfc0776c:	2406000a 	li	a2,10
bfc07770:	00003821 	move	a3,zero
bfc07774:	0ff01d20 	jal	bfc07480 <printbase>
bfc07778:	00000000 	nop
D:\loongson\projects\ls1d_ucos\lib1d/lib.c:63
				arg++;
bfc0777c:	8fc20014 	lw	v0,20(s8)
bfc07780:	24420004 	addiu	v0,v0,4
bfc07784:	afc20014 	sw	v0,20(s8)
D:\loongson\projects\ls1d_ucos\lib1d/lib.c:64
				i++;
bfc07788:	8fc2001c 	lw	v0,28(s8)
bfc0778c:	24420001 	addiu	v0,v0,1
bfc07790:	afc2001c 	sw	v0,28(s8)
bfc07794:	0bf01e6e 	j	bfc079b8 <printf+0x388>
bfc07798:	00000000 	nop
D:\loongson\projects\ls1d_ucos\lib1d/lib.c:67
				break;
			case 'd':
				printbase((long)*arg,w,10,1);
bfc0779c:	8fc20014 	lw	v0,20(s8)
bfc077a0:	8c420000 	lw	v0,0(v0)
bfc077a4:	00402021 	move	a0,v0
bfc077a8:	8fc50010 	lw	a1,16(s8)
bfc077ac:	2406000a 	li	a2,10
bfc077b0:	24070001 	li	a3,1
bfc077b4:	0ff01d20 	jal	bfc07480 <printbase>
bfc077b8:	00000000 	nop
D:\loongson\projects\ls1d_ucos\lib1d/lib.c:68
				arg++;
bfc077bc:	8fc20014 	lw	v0,20(s8)
bfc077c0:	24420004 	addiu	v0,v0,4
bfc077c4:	afc20014 	sw	v0,20(s8)
D:\loongson\projects\ls1d_ucos\lib1d/lib.c:69
				i++;
bfc077c8:	8fc2001c 	lw	v0,28(s8)
bfc077cc:	24420001 	addiu	v0,v0,1
bfc077d0:	afc2001c 	sw	v0,28(s8)
bfc077d4:	0bf01e6e 	j	bfc079b8 <printf+0x388>
bfc077d8:	00000000 	nop
D:\loongson\projects\ls1d_ucos\lib1d/lib.c:72
				break;
			case 'o':
				printbase((long)*arg,w,8,0);
bfc077dc:	8fc20014 	lw	v0,20(s8)
bfc077e0:	8c420000 	lw	v0,0(v0)
bfc077e4:	00402021 	move	a0,v0
bfc077e8:	8fc50010 	lw	a1,16(s8)
bfc077ec:	24060008 	li	a2,8
bfc077f0:	00003821 	move	a3,zero
bfc077f4:	0ff01d20 	jal	bfc07480 <printbase>
bfc077f8:	00000000 	nop
D:\loongson\projects\ls1d_ucos\lib1d/lib.c:73
				arg++;
bfc077fc:	8fc20014 	lw	v0,20(s8)
bfc07800:	24420004 	addiu	v0,v0,4
bfc07804:	afc20014 	sw	v0,20(s8)
D:\loongson\projects\ls1d_ucos\lib1d/lib.c:74
				i++;
bfc07808:	8fc2001c 	lw	v0,28(s8)
bfc0780c:	24420001 	addiu	v0,v0,1
bfc07810:	afc2001c 	sw	v0,28(s8)
bfc07814:	0bf01e6e 	j	bfc079b8 <printf+0x388>
bfc07818:	00000000 	nop
D:\loongson\projects\ls1d_ucos\lib1d/lib.c:77
				break;
			case 'b':
				printbase((long)*arg,w,2,0);
bfc0781c:	8fc20014 	lw	v0,20(s8)
bfc07820:	8c420000 	lw	v0,0(v0)
bfc07824:	00402021 	move	a0,v0
bfc07828:	8fc50010 	lw	a1,16(s8)
bfc0782c:	24060002 	li	a2,2
bfc07830:	00003821 	move	a3,zero
bfc07834:	0ff01d20 	jal	bfc07480 <printbase>
bfc07838:	00000000 	nop
D:\loongson\projects\ls1d_ucos\lib1d/lib.c:78
				arg++;
bfc0783c:	8fc20014 	lw	v0,20(s8)
bfc07840:	24420004 	addiu	v0,v0,4
bfc07844:	afc20014 	sw	v0,20(s8)
D:\loongson\projects\ls1d_ucos\lib1d/lib.c:79
				i++;
bfc07848:	8fc2001c 	lw	v0,28(s8)
bfc0784c:	24420001 	addiu	v0,v0,1
bfc07850:	afc2001c 	sw	v0,28(s8)
bfc07854:	0bf01e6e 	j	bfc079b8 <printf+0x388>
bfc07858:	00000000 	nop
D:\loongson\projects\ls1d_ucos\lib1d/lib.c:83
				break;
			case 'p':
			case 'x':
				printbase((long)*arg,w,16,0);
bfc0785c:	8fc20014 	lw	v0,20(s8)
bfc07860:	8c420000 	lw	v0,0(v0)
bfc07864:	00402021 	move	a0,v0
bfc07868:	8fc50010 	lw	a1,16(s8)
bfc0786c:	24060010 	li	a2,16
bfc07870:	00003821 	move	a3,zero
bfc07874:	0ff01d20 	jal	bfc07480 <printbase>
bfc07878:	00000000 	nop
D:\loongson\projects\ls1d_ucos\lib1d/lib.c:84
				arg++;
bfc0787c:	8fc20014 	lw	v0,20(s8)
bfc07880:	24420004 	addiu	v0,v0,4
bfc07884:	afc20014 	sw	v0,20(s8)
D:\loongson\projects\ls1d_ucos\lib1d/lib.c:85
				i++;
bfc07888:	8fc2001c 	lw	v0,28(s8)
bfc0788c:	24420001 	addiu	v0,v0,1
bfc07890:	afc2001c 	sw	v0,28(s8)
bfc07894:	0bf01e6e 	j	bfc079b8 <printf+0x388>
bfc07898:	00000000 	nop
D:\loongson\projects\ls1d_ucos\lib1d/lib.c:88
				break;
			case '%':
				putchar('%');
bfc0789c:	24040025 	li	a0,37
bfc078a0:	3c02bfc1 	lui	v0,0xbfc1
bfc078a4:	2459934c 	addiu	t9,v0,-27828
bfc078a8:	0320f809 	jalr	t9
bfc078ac:	00000000 	nop
D:\loongson\projects\ls1d_ucos\lib1d/lib.c:89
				i++;
bfc078b0:	8fc2001c 	lw	v0,28(s8)
bfc078b4:	24420001 	addiu	v0,v0,1
bfc078b8:	afc2001c 	sw	v0,28(s8)
bfc078bc:	0bf01e6e 	j	bfc079b8 <printf+0x388>
bfc078c0:	00000000 	nop
D:\loongson\projects\ls1d_ucos\lib1d/lib.c:92
				break;
			case '0':
				i++;
bfc078c4:	8fc2001c 	lw	v0,28(s8)
bfc078c8:	24420001 	addiu	v0,v0,1
bfc078cc:	afc2001c 	sw	v0,28(s8)
D:\loongson\projects\ls1d_ucos\lib1d/lib.c:94
			case '1' ... '9':
				for(w=0;fmt[i+1]>'0' && fmt[i+1]<='9';i++)
bfc078d0:	afc00010 	sw	zero,16(s8)
bfc078d4:	0bf01e46 	j	bfc07918 <printf+0x2e8>
bfc078d8:	00000000 	nop
D:\loongson\projects\ls1d_ucos\lib1d/lib.c:95
				 w=w*10+(fmt[i+1]-'0');
bfc078dc:	8fc20010 	lw	v0,16(s8)
bfc078e0:	00021840 	sll	v1,v0,0x1
bfc078e4:	00031080 	sll	v0,v1,0x2
bfc078e8:	00622021 	addu	a0,v1,v0
bfc078ec:	8fc2001c 	lw	v0,28(s8)
bfc078f0:	24430001 	addiu	v1,v0,1
bfc078f4:	8fc20038 	lw	v0,56(s8)
bfc078f8:	00431021 	addu	v0,v0,v1
bfc078fc:	80420000 	lb	v0,0(v0)
bfc07900:	2442ffd0 	addiu	v0,v0,-48
bfc07904:	00821021 	addu	v0,a0,v0
bfc07908:	afc20010 	sw	v0,16(s8)
D:\loongson\projects\ls1d_ucos\lib1d/lib.c:94
				i++;
				break;
			case '0':
				i++;
			case '1' ... '9':
				for(w=0;fmt[i+1]>'0' && fmt[i+1]<='9';i++)
bfc0790c:	8fc2001c 	lw	v0,28(s8)
bfc07910:	24420001 	addiu	v0,v0,1
bfc07914:	afc2001c 	sw	v0,28(s8)
bfc07918:	8fc2001c 	lw	v0,28(s8)
bfc0791c:	24430001 	addiu	v1,v0,1
bfc07920:	8fc20038 	lw	v0,56(s8)
bfc07924:	00431021 	addu	v0,v0,v1
bfc07928:	80420000 	lb	v0,0(v0)
bfc0792c:	28420031 	slti	v0,v0,49
bfc07930:	1440ff59 	bnez	v0,bfc07698 <printf+0x68>
bfc07934:	00000000 	nop
bfc07938:	8fc2001c 	lw	v0,28(s8)
bfc0793c:	24430001 	addiu	v1,v0,1
bfc07940:	8fc20038 	lw	v0,56(s8)
bfc07944:	00431021 	addu	v0,v0,v1
bfc07948:	80420000 	lb	v0,0(v0)
bfc0794c:	2842003a 	slti	v0,v0,58
bfc07950:	1440ffe2 	bnez	v0,bfc078dc <printf+0x2ac>
bfc07954:	00000000 	nop
bfc07958:	0bf01da6 	j	bfc07698 <printf+0x68>
bfc0795c:	00000000 	nop
D:\loongson\projects\ls1d_ucos\lib1d/lib.c:100
				 w=w*10+(fmt[i+1]-'0');
				goto again;
				 break;

			default:
				putchar('%');
bfc07960:	24040025 	li	a0,37
bfc07964:	3c02bfc1 	lui	v0,0xbfc1
bfc07968:	2459934c 	addiu	t9,v0,-27828
bfc0796c:	0320f809 	jalr	t9
bfc07970:	00000000 	nop
bfc07974:	0bf01e6e 	j	bfc079b8 <printf+0x388>
bfc07978:	00000000 	nop
D:\loongson\projects\ls1d_ucos\lib1d/lib.c:106
				break;
		}

	}
	else{
		if(c=='\n') putchar('\r');
bfc0797c:	83c30018 	lb	v1,24(s8)
bfc07980:	2402000a 	li	v0,10
bfc07984:	14620006 	bne	v1,v0,bfc079a0 <printf+0x370>
bfc07988:	00000000 	nop
bfc0798c:	2404000d 	li	a0,13
bfc07990:	3c02bfc1 	lui	v0,0xbfc1
bfc07994:	2459934c 	addiu	t9,v0,-27828
bfc07998:	0320f809 	jalr	t9
bfc0799c:	00000000 	nop
D:\loongson\projects\ls1d_ucos\lib1d/lib.c:107
		putchar(c);
bfc079a0:	83c20018 	lb	v0,24(s8)
bfc079a4:	00402021 	move	a0,v0
bfc079a8:	3c02bfc1 	lui	v0,0xbfc1
bfc079ac:	2459934c 	addiu	t9,v0,-27828
bfc079b0:	0320f809 	jalr	t9
bfc079b4:	00000000 	nop
D:\loongson\projects\ls1d_ucos\lib1d/lib.c:42
void **arg;
void *ap;
int w;
__builtin_va_start(ap,fmt);
arg=ap;
for(i=0;fmt[i];i++)
bfc079b8:	8fc2001c 	lw	v0,28(s8)
bfc079bc:	24420001 	addiu	v0,v0,1
bfc079c0:	afc2001c 	sw	v0,28(s8)
bfc079c4:	8fc3001c 	lw	v1,28(s8)
bfc079c8:	8fc20038 	lw	v0,56(s8)
bfc079cc:	00431021 	addu	v0,v0,v1
bfc079d0:	80420000 	lb	v0,0(v0)
bfc079d4:	1440ff25 	bnez	v0,bfc0766c <printf+0x3c>
bfc079d8:	00000000 	nop
D:\loongson\projects\ls1d_ucos\lib1d/lib.c:110
	else{
		if(c=='\n') putchar('\r');
		putchar(c);
	}
}
	return 0;
bfc079dc:	00001021 	move	v0,zero
D:\loongson\projects\ls1d_ucos\lib1d/lib.c:111
}
bfc079e0:	03c0e821 	move	sp,s8
bfc079e4:	8fbf0034 	lw	ra,52(sp)
bfc079e8:	8fbe0030 	lw	s8,48(sp)
bfc079ec:	27bd0038 	addiu	sp,sp,56
bfc079f0:	03e00008 	jr	ra
bfc079f4:	00000000 	nop

bfc079f8 <ftoa>:
ftoa():
D:\loongson\projects\ls1d_ucos\lib1d/lib.c:125
 * 比如 32.1345 转换为  字符串  	'3 2 . 1 3 4 5'
 * 处理结果是正直还是负值，如果是负值第一个字符是一个'-'
 * 这里怎么使用浮点计算 显示 错误呀。搞不懂。 TODO
 * **/
int ftoa(char *str, _fp32 num, int n)
{
bfc079f8:	27bdffc0 	addiu	sp,sp,-64
bfc079fc:	afbe003c 	sw	s8,60(sp)
bfc07a00:	03a0f021 	move	s8,sp
bfc07a04:	afc40040 	sw	a0,64(s8)
bfc07a08:	afc50044 	sw	a1,68(s8)
bfc07a0c:	afc60048 	sw	a2,72(s8)
D:\loongson\projects\ls1d_ucos\lib1d/lib.c:128
	int     sumI;
	_fp32   sumF;
	int     sign = 0;
bfc07a10:	afc00010 	sw	zero,16(s8)
D:\loongson\projects\ls1d_ucos\lib1d/lib.c:130
	INT8U	temp;
	int     count = 0;
bfc07a14:	afc00008 	sw	zero,8(s8)
D:\loongson\projects\ls1d_ucos\lib1d/lib.c:135

	char *p;
	char *pp;

	if(str == NULL)
bfc07a18:	8fc20040 	lw	v0,64(s8)
bfc07a1c:	14400005 	bnez	v0,bfc07a34 <ftoa+0x3c>
bfc07a20:	00000000 	nop
D:\loongson\projects\ls1d_ucos\lib1d/lib.c:136
		return -1;
bfc07a24:	2402ffff 	li	v0,-1
bfc07a28:	afc20028 	sw	v0,40(s8)
bfc07a2c:	0bf01f4c 	j	bfc07d30 <ftoa+0x338>
bfc07a30:	00000000 	nop
D:\loongson\projects\ls1d_ucos\lib1d/lib.c:137
	p = str;
bfc07a34:	8fc20040 	lw	v0,64(s8)
bfc07a38:	afc20004 	sw	v0,4(s8)
D:\loongson\projects\ls1d_ucos\lib1d/lib.c:140

	/*Is less than 0*/
	if(num < 0)
bfc07a3c:	c7c10044 	lwc1	$f1,68(s8)
bfc07a40:	44800000 	mtc1	zero,$f0
bfc07a44:	4600083c 	c.lt.s	$f1,$f0
bfc07a48:	45000007 	bc1f	bfc07a68 <ftoa+0x70>
bfc07a4c:	00000000 	nop
D:\loongson\projects\ls1d_ucos\lib1d/lib.c:142
	{
		sign = 1;
bfc07a50:	24020001 	li	v0,1
bfc07a54:	afc20010 	sw	v0,16(s8)
D:\loongson\projects\ls1d_ucos\lib1d/lib.c:143
		num = 0 - num;
bfc07a58:	44800800 	mtc1	zero,$f1
bfc07a5c:	c7c00044 	lwc1	$f0,68(s8)
bfc07a60:	46000801 	sub.s	$f0,$f1,$f0
bfc07a64:	e7c00044 	swc1	$f0,68(s8)
D:\loongson\projects\ls1d_ucos\lib1d/lib.c:146
	}

	sumI = (int)num;    //sumI is the part of int
bfc07a68:	c7c00044 	lwc1	$f0,68(s8)
bfc07a6c:	4600000d 	trunc.w.s	$f0,$f0
bfc07a70:	e7c00018 	swc1	$f0,24(s8)
D:\loongson\projects\ls1d_ucos\lib1d/lib.c:147
	sumF = num - sumI;  //sumF is the part of float
bfc07a74:	c7c00018 	lwc1	$f0,24(s8)
bfc07a78:	46800060 	cvt.s.w	$f1,$f0
bfc07a7c:	c7c00044 	lwc1	$f0,68(s8)
bfc07a80:	46010001 	sub.s	$f0,$f0,$f1
bfc07a84:	e7c00014 	swc1	$f0,20(s8)
D:\loongson\projects\ls1d_ucos\lib1d/lib.c:152

	/*Int ===> String*/
	do
	{
		temp = sumI % 10;
bfc07a88:	8fc40018 	lw	a0,24(s8)
bfc07a8c:	3c026666 	lui	v0,0x6666
bfc07a90:	34426667 	ori	v0,v0,0x6667
bfc07a94:	00820018 	mult	a0,v0
bfc07a98:	00001012 	mflo	v0
bfc07a9c:	00001810 	mfhi	v1
bfc07aa0:	00031883 	sra	v1,v1,0x2
bfc07aa4:	000417c3 	sra	v0,a0,0x1f
bfc07aa8:	00621023 	subu	v0,v1,v0
bfc07aac:	afc20024 	sw	v0,36(s8)
bfc07ab0:	8fc20024 	lw	v0,36(s8)
bfc07ab4:	00021040 	sll	v0,v0,0x1
bfc07ab8:	00021880 	sll	v1,v0,0x2
bfc07abc:	00431021 	addu	v0,v0,v1
bfc07ac0:	00821023 	subu	v0,a0,v0
bfc07ac4:	afc20024 	sw	v0,36(s8)
bfc07ac8:	8fc20024 	lw	v0,36(s8)
bfc07acc:	a3c2000c 	sb	v0,12(s8)
D:\loongson\projects\ls1d_ucos\lib1d/lib.c:153
		*(str++) = temp + '0';
bfc07ad0:	93c2000c 	lbu	v0,12(s8)
bfc07ad4:	24420030 	addiu	v0,v0,48
bfc07ad8:	304200ff 	andi	v0,v0,0xff
bfc07adc:	00021e00 	sll	v1,v0,0x18
bfc07ae0:	00031e03 	sra	v1,v1,0x18
bfc07ae4:	8fc20040 	lw	v0,64(s8)
bfc07ae8:	a0430000 	sb	v1,0(v0)
bfc07aec:	8fc20040 	lw	v0,64(s8)
bfc07af0:	24420001 	addiu	v0,v0,1
bfc07af4:	afc20040 	sw	v0,64(s8)
D:\loongson\projects\ls1d_ucos\lib1d/lib.c:154
	}while((sumI = sumI /10) != 0);
bfc07af8:	8fc40018 	lw	a0,24(s8)
bfc07afc:	3c026666 	lui	v0,0x6666
bfc07b00:	34426667 	ori	v0,v0,0x6667
bfc07b04:	00820018 	mult	a0,v0
bfc07b08:	00001010 	mfhi	v0
bfc07b0c:	00021883 	sra	v1,v0,0x2
bfc07b10:	000417c3 	sra	v0,a0,0x1f
bfc07b14:	00621023 	subu	v0,v1,v0
bfc07b18:	afc20018 	sw	v0,24(s8)
bfc07b1c:	8fc20018 	lw	v0,24(s8)
bfc07b20:	1440ffd9 	bnez	v0,bfc07a88 <ftoa+0x90>
bfc07b24:	00000000 	nop
D:\loongson\projects\ls1d_ucos\lib1d/lib.c:157

	/*******End*******/
	if(sign == 1)
bfc07b28:	8fc30010 	lw	v1,16(s8)
bfc07b2c:	24020001 	li	v0,1
bfc07b30:	14620007 	bne	v1,v0,bfc07b50 <ftoa+0x158>
bfc07b34:	00000000 	nop
D:\loongson\projects\ls1d_ucos\lib1d/lib.c:159
	{
		*(str++) = '-';
bfc07b38:	8fc30040 	lw	v1,64(s8)
bfc07b3c:	2402002d 	li	v0,45
bfc07b40:	a0620000 	sb	v0,0(v1)
bfc07b44:	8fc20040 	lw	v0,64(s8)
bfc07b48:	24420001 	addiu	v0,v0,1
bfc07b4c:	afc20040 	sw	v0,64(s8)
D:\loongson\projects\ls1d_ucos\lib1d/lib.c:162
	}

	pp = str;
bfc07b50:	8fc20040 	lw	v0,64(s8)
bfc07b54:	afc20000 	sw	v0,0(s8)
D:\loongson\projects\ls1d_ucos\lib1d/lib.c:164

	pp--;
bfc07b58:	8fc20000 	lw	v0,0(s8)
bfc07b5c:	2442ffff 	addiu	v0,v0,-1
bfc07b60:	afc20000 	sw	v0,0(s8)
bfc07b64:	0bf01f05 	j	bfc07c14 <ftoa+0x21c>
bfc07b68:	00000000 	nop
D:\loongson\projects\ls1d_ucos\lib1d/lib.c:167
	while(p < pp)
	{
		*p = *p + *pp;
bfc07b6c:	8fc20004 	lw	v0,4(s8)
bfc07b70:	80420000 	lb	v0,0(v0)
bfc07b74:	304300ff 	andi	v1,v0,0xff
bfc07b78:	8fc20000 	lw	v0,0(s8)
bfc07b7c:	80420000 	lb	v0,0(v0)
bfc07b80:	304200ff 	andi	v0,v0,0xff
bfc07b84:	00621021 	addu	v0,v1,v0
bfc07b88:	304200ff 	andi	v0,v0,0xff
bfc07b8c:	00021e00 	sll	v1,v0,0x18
bfc07b90:	00031e03 	sra	v1,v1,0x18
bfc07b94:	8fc20004 	lw	v0,4(s8)
bfc07b98:	a0430000 	sb	v1,0(v0)
D:\loongson\projects\ls1d_ucos\lib1d/lib.c:168
		*pp = *p - *pp;
bfc07b9c:	8fc20004 	lw	v0,4(s8)
bfc07ba0:	80420000 	lb	v0,0(v0)
bfc07ba4:	304300ff 	andi	v1,v0,0xff
bfc07ba8:	8fc20000 	lw	v0,0(s8)
bfc07bac:	80420000 	lb	v0,0(v0)
bfc07bb0:	304200ff 	andi	v0,v0,0xff
bfc07bb4:	00621023 	subu	v0,v1,v0
bfc07bb8:	304200ff 	andi	v0,v0,0xff
bfc07bbc:	00021e00 	sll	v1,v0,0x18
bfc07bc0:	00031e03 	sra	v1,v1,0x18
bfc07bc4:	8fc20000 	lw	v0,0(s8)
bfc07bc8:	a0430000 	sb	v1,0(v0)
D:\loongson\projects\ls1d_ucos\lib1d/lib.c:169
		*p = *p -*pp;
bfc07bcc:	8fc20004 	lw	v0,4(s8)
bfc07bd0:	80420000 	lb	v0,0(v0)
bfc07bd4:	304300ff 	andi	v1,v0,0xff
bfc07bd8:	8fc20000 	lw	v0,0(s8)
bfc07bdc:	80420000 	lb	v0,0(v0)
bfc07be0:	304200ff 	andi	v0,v0,0xff
bfc07be4:	00621023 	subu	v0,v1,v0
bfc07be8:	304200ff 	andi	v0,v0,0xff
bfc07bec:	00021e00 	sll	v1,v0,0x18
bfc07bf0:	00031e03 	sra	v1,v1,0x18
bfc07bf4:	8fc20004 	lw	v0,4(s8)
bfc07bf8:	a0430000 	sb	v1,0(v0)
D:\loongson\projects\ls1d_ucos\lib1d/lib.c:170
		p++;
bfc07bfc:	8fc20004 	lw	v0,4(s8)
bfc07c00:	24420001 	addiu	v0,v0,1
bfc07c04:	afc20004 	sw	v0,4(s8)
D:\loongson\projects\ls1d_ucos\lib1d/lib.c:171
		pp--;
bfc07c08:	8fc20000 	lw	v0,0(s8)
bfc07c0c:	2442ffff 	addiu	v0,v0,-1
bfc07c10:	afc20000 	sw	v0,0(s8)
D:\loongson\projects\ls1d_ucos\lib1d/lib.c:165
	}

	pp = str;

	pp--;
	while(p < pp)
bfc07c14:	8fc20004 	lw	v0,4(s8)
bfc07c18:	8fc30000 	lw	v1,0(s8)
bfc07c1c:	0043102b 	sltu	v0,v0,v1
bfc07c20:	1440ffd2 	bnez	v0,bfc07b6c <ftoa+0x174>
bfc07c24:	00000000 	nop
D:\loongson\projects\ls1d_ucos\lib1d/lib.c:173
		*pp = *p - *pp;
		*p = *p -*pp;
		p++;
		pp--;
	}
	*(str++) = '.';     //point
bfc07c28:	8fc30040 	lw	v1,64(s8)
bfc07c2c:	2402002e 	li	v0,46
bfc07c30:	a0620000 	sb	v0,0(v1)
bfc07c34:	8fc20040 	lw	v0,64(s8)
bfc07c38:	24420001 	addiu	v0,v0,1
bfc07c3c:	afc20040 	sw	v0,64(s8)
D:\loongson\projects\ls1d_ucos\lib1d/lib.c:178

	/*Float ===> String*/
	do
	{
		temp = (INT8U)(sumF*10);
bfc07c40:	c7c10014 	lwc1	$f1,20(s8)
bfc07c44:	3c02bfc1 	lui	v0,0xbfc1
bfc07c48:	c4409ac0 	lwc1	$f0,-25920(v0)
bfc07c4c:	46000802 	mul.s	$f0,$f1,$f0
bfc07c50:	e7c00020 	swc1	$f0,32(s8)
bfc07c54:	3c02bfc1 	lui	v0,0xbfc1
bfc07c58:	c4409ac4 	lwc1	$f0,-25916(v0)
bfc07c5c:	e7c00030 	swc1	$f0,48(s8)
bfc07c60:	c7c10020 	lwc1	$f1,32(s8)
bfc07c64:	c7c20030 	lwc1	$f2,48(s8)
bfc07c68:	4601103e 	c.le.s	$f2,$f1
bfc07c6c:	45010006 	bc1t	bfc07c88 <ftoa+0x290>
bfc07c70:	00000000 	nop
bfc07c74:	c7c00020 	lwc1	$f0,32(s8)
bfc07c78:	4600000d 	trunc.w.s	$f0,$f0
bfc07c7c:	e7c0002c 	swc1	$f0,44(s8)
bfc07c80:	0bf01f2b 	j	bfc07cac <ftoa+0x2b4>
bfc07c84:	00000000 	nop
bfc07c88:	c7c10020 	lwc1	$f1,32(s8)
bfc07c8c:	c7c20030 	lwc1	$f2,48(s8)
bfc07c90:	46020801 	sub.s	$f0,$f1,$f2
bfc07c94:	3c028000 	lui	v0,0x8000
bfc07c98:	4600000d 	trunc.w.s	$f0,$f0
bfc07c9c:	e7c0002c 	swc1	$f0,44(s8)
bfc07ca0:	8fc3002c 	lw	v1,44(s8)
bfc07ca4:	00621825 	or	v1,v1,v0
bfc07ca8:	afc3002c 	sw	v1,44(s8)
bfc07cac:	8fc2002c 	lw	v0,44(s8)
bfc07cb0:	a3c2000c 	sb	v0,12(s8)
D:\loongson\projects\ls1d_ucos\lib1d/lib.c:179
		*(str++) = temp + '0';
bfc07cb4:	93c2000c 	lbu	v0,12(s8)
bfc07cb8:	24420030 	addiu	v0,v0,48
bfc07cbc:	304200ff 	andi	v0,v0,0xff
bfc07cc0:	00021e00 	sll	v1,v0,0x18
bfc07cc4:	00031e03 	sra	v1,v1,0x18
bfc07cc8:	8fc20040 	lw	v0,64(s8)
bfc07ccc:	a0430000 	sb	v1,0(v0)
bfc07cd0:	8fc20040 	lw	v0,64(s8)
bfc07cd4:	24420001 	addiu	v0,v0,1
bfc07cd8:	afc20040 	sw	v0,64(s8)
D:\loongson\projects\ls1d_ucos\lib1d/lib.c:180
		if((++ count) == n)
bfc07cdc:	8fc20008 	lw	v0,8(s8)
bfc07ce0:	24420001 	addiu	v0,v0,1
bfc07ce4:	afc20008 	sw	v0,8(s8)
bfc07ce8:	8fc30008 	lw	v1,8(s8)
bfc07cec:	8fc20048 	lw	v0,72(s8)
bfc07cf0:	1062000c 	beq	v1,v0,bfc07d24 <ftoa+0x32c>
bfc07cf4:	00000000 	nop
D:\loongson\projects\ls1d_ucos\lib1d/lib.c:182
			break;
		sumF = sumF * 10 - temp;
bfc07cf8:	c7c10014 	lwc1	$f1,20(s8)
bfc07cfc:	3c02bfc1 	lui	v0,0xbfc1
bfc07d00:	c4409ac0 	lwc1	$f0,-25920(v0)
bfc07d04:	46000842 	mul.s	$f1,$f1,$f0
bfc07d08:	93c3000c 	lbu	v1,12(s8)
bfc07d0c:	44830000 	mtc1	v1,$f0
bfc07d10:	46800020 	cvt.s.w	$f0,$f0
bfc07d14:	46000801 	sub.s	$f0,$f1,$f0
bfc07d18:	e7c00014 	swc1	$f0,20(s8)
bfc07d1c:	0bf01f10 	j	bfc07c40 <ftoa+0x248>
bfc07d20:	00000000 	nop
D:\loongson\projects\ls1d_ucos\lib1d/lib.c:184
	}while(1);		//while(!(sumF <= 0.00001));		///TODO  这里如果有 浮点数比较，则链接错误。搞不懂。
	*str = 0;
bfc07d24:	8fc20040 	lw	v0,64(s8)
bfc07d28:	a0400000 	sb	zero,0(v0)
D:\loongson\projects\ls1d_ucos\lib1d/lib.c:186

	return 0;
bfc07d2c:	afc00028 	sw	zero,40(s8)
bfc07d30:	8fc20028 	lw	v0,40(s8)
D:\loongson\projects\ls1d_ucos\lib1d/lib.c:187
}
bfc07d34:	03c0e821 	move	sp,s8
bfc07d38:	8fbe003c 	lw	s8,60(sp)
bfc07d3c:	27bd0040 	addiu	sp,sp,64
bfc07d40:	03e00008 	jr	ra
bfc07d44:	00000000 	nop

bfc07d48 <memchar1d>:
memchar1d():
D:\loongson\projects\ls1d_ucos\lib1d/lib.c:190

INT8U memchar1d(void * s,INT8U c, char charac)
{
bfc07d48:	27bdffe8 	addiu	sp,sp,-24
bfc07d4c:	afbe0014 	sw	s8,20(sp)
bfc07d50:	03a0f021 	move	s8,sp
bfc07d54:	afc40018 	sw	a0,24(s8)
bfc07d58:	00a01021 	move	v0,a1
bfc07d5c:	00c01821 	move	v1,a2
bfc07d60:	a3c2001c 	sb	v0,28(s8)
bfc07d64:	a3c30020 	sb	v1,32(s8)
D:\loongson\projects\ls1d_ucos\lib1d/lib.c:193
	INT8U	*src;

	src		= (INT8U *)s;
bfc07d68:	8fc20018 	lw	v0,24(s8)
bfc07d6c:	afc20000 	sw	v0,0(s8)
bfc07d70:	0bf01f72 	j	bfc07dc8 <memchar1d+0x80>
bfc07d74:	00000000 	nop
D:\loongson\projects\ls1d_ucos\lib1d/lib.c:195
	while(c--){
		if(*src ++ == (INT8U)charac){
bfc07d78:	8fc20000 	lw	v0,0(s8)
bfc07d7c:	90430000 	lbu	v1,0(v0)
bfc07d80:	93c20020 	lbu	v0,32(s8)
bfc07d84:	00621026 	xor	v0,v1,v0
bfc07d88:	2c420001 	sltiu	v0,v0,1
bfc07d8c:	304300ff 	andi	v1,v0,0xff
bfc07d90:	8fc20000 	lw	v0,0(s8)
bfc07d94:	24420001 	addiu	v0,v0,1
bfc07d98:	afc20000 	sw	v0,0(s8)
bfc07d9c:	1060000a 	beqz	v1,bfc07dc8 <memchar1d+0x80>
bfc07da0:	00000000 	nop
D:\loongson\projects\ls1d_ucos\lib1d/lib.c:196
			return (INT8U)((INT32U)src - (INT32U)s );
bfc07da4:	8fc20000 	lw	v0,0(s8)
bfc07da8:	304300ff 	andi	v1,v0,0xff
bfc07dac:	8fc20018 	lw	v0,24(s8)
bfc07db0:	304200ff 	andi	v0,v0,0xff
bfc07db4:	00621023 	subu	v0,v1,v0
bfc07db8:	304200ff 	andi	v0,v0,0xff
bfc07dbc:	afc20008 	sw	v0,8(s8)
bfc07dc0:	0bf01f7b 	j	bfc07dec <memchar1d+0xa4>
bfc07dc4:	00000000 	nop
D:\loongson\projects\ls1d_ucos\lib1d/lib.c:194
INT8U memchar1d(void * s,INT8U c, char charac)
{
	INT8U	*src;

	src		= (INT8U *)s;
	while(c--){
bfc07dc8:	93c2001c 	lbu	v0,28(s8)
bfc07dcc:	0002102b 	sltu	v0,zero,v0
bfc07dd0:	304300ff 	andi	v1,v0,0xff
bfc07dd4:	93c2001c 	lbu	v0,28(s8)
bfc07dd8:	2442ffff 	addiu	v0,v0,-1
bfc07ddc:	a3c2001c 	sb	v0,28(s8)
bfc07de0:	1460ffe5 	bnez	v1,bfc07d78 <memchar1d+0x30>
bfc07de4:	00000000 	nop
D:\loongson\projects\ls1d_ucos\lib1d/lib.c:199
		if(*src ++ == (INT8U)charac){
			return (INT8U)((INT32U)src - (INT32U)s );
		}
	}
	return 0;
bfc07de8:	afc00008 	sw	zero,8(s8)
bfc07dec:	8fc20008 	lw	v0,8(s8)
D:\loongson\projects\ls1d_ucos\lib1d/lib.c:200
}
bfc07df0:	03c0e821 	move	sp,s8
bfc07df4:	8fbe0014 	lw	s8,20(sp)
bfc07df8:	27bd0018 	addiu	sp,sp,24
bfc07dfc:	03e00008 	jr	ra
bfc07e00:	00000000 	nop

bfc07e04 <memset1d>:
memset1d():
D:\loongson\projects\ls1d_ucos\lib1d/lib.c:203

void * memset1d(void * s,INT8U c, INT8U count)
{
bfc07e04:	27bdfff0 	addiu	sp,sp,-16
bfc07e08:	afbe000c 	sw	s8,12(sp)
bfc07e0c:	03a0f021 	move	s8,sp
bfc07e10:	afc40010 	sw	a0,16(s8)
bfc07e14:	00a01021 	move	v0,a1
bfc07e18:	00c01821 	move	v1,a2
bfc07e1c:	a3c20014 	sb	v0,20(s8)
bfc07e20:	a3c30018 	sb	v1,24(s8)
D:\loongson\projects\ls1d_ucos\lib1d/lib.c:204
	INT8U *xs = (INT8U *) s;
bfc07e24:	8fc20010 	lw	v0,16(s8)
bfc07e28:	afc20000 	sw	v0,0(s8)
bfc07e2c:	0bf01f93 	j	bfc07e4c <memset1d+0x48>
bfc07e30:	00000000 	nop
D:\loongson\projects\ls1d_ucos\lib1d/lib.c:207

	while (count--)
		*xs++ = c;
bfc07e34:	8fc30000 	lw	v1,0(s8)
bfc07e38:	93c20014 	lbu	v0,20(s8)
bfc07e3c:	a0620000 	sb	v0,0(v1)
bfc07e40:	8fc20000 	lw	v0,0(s8)
bfc07e44:	24420001 	addiu	v0,v0,1
bfc07e48:	afc20000 	sw	v0,0(s8)
D:\loongson\projects\ls1d_ucos\lib1d/lib.c:206

void * memset1d(void * s,INT8U c, INT8U count)
{
	INT8U *xs = (INT8U *) s;

	while (count--)
bfc07e4c:	93c20018 	lbu	v0,24(s8)
bfc07e50:	0002102b 	sltu	v0,zero,v0
bfc07e54:	304300ff 	andi	v1,v0,0xff
bfc07e58:	93c20018 	lbu	v0,24(s8)
bfc07e5c:	2442ffff 	addiu	v0,v0,-1
bfc07e60:	a3c20018 	sb	v0,24(s8)
bfc07e64:	1460fff3 	bnez	v1,bfc07e34 <memset1d+0x30>
bfc07e68:	00000000 	nop
D:\loongson\projects\ls1d_ucos\lib1d/lib.c:209
		*xs++ = c;

	return s;
bfc07e6c:	8fc20010 	lw	v0,16(s8)
D:\loongson\projects\ls1d_ucos\lib1d/lib.c:210
}
bfc07e70:	03c0e821 	move	sp,s8
bfc07e74:	8fbe000c 	lw	s8,12(sp)
bfc07e78:	27bd0010 	addiu	sp,sp,16
bfc07e7c:	03e00008 	jr	ra
bfc07e80:	00000000 	nop

bfc07e84 <memcpy1d>:
memcpy1d():
D:\loongson\projects\ls1d_ucos\lib1d/lib.c:213

void * memcpy1d(void * dst,void * src, INT8U count)
{
bfc07e84:	27bdfff0 	addiu	sp,sp,-16
bfc07e88:	afbe000c 	sw	s8,12(sp)
bfc07e8c:	03a0f021 	move	s8,sp
bfc07e90:	afc40010 	sw	a0,16(s8)
bfc07e94:	afc50014 	sw	a1,20(s8)
bfc07e98:	00c01021 	move	v0,a2
bfc07e9c:	a3c20018 	sb	v0,24(s8)
D:\loongson\projects\ls1d_ucos\lib1d/lib.c:214
	INT8U *xs = (INT8U *) src;
bfc07ea0:	8fc20014 	lw	v0,20(s8)
bfc07ea4:	afc20000 	sw	v0,0(s8)
bfc07ea8:	0bf01fb6 	j	bfc07ed8 <memcpy1d+0x54>
bfc07eac:	00000000 	nop
D:\loongson\projects\ls1d_ucos\lib1d/lib.c:217

	while (count--)
		*(INT8U *)dst ++ = *xs ++;
bfc07eb0:	8fc30010 	lw	v1,16(s8)
bfc07eb4:	8fc20000 	lw	v0,0(s8)
bfc07eb8:	90420000 	lbu	v0,0(v0)
bfc07ebc:	a0620000 	sb	v0,0(v1)
bfc07ec0:	8fc20010 	lw	v0,16(s8)
bfc07ec4:	24420001 	addiu	v0,v0,1
bfc07ec8:	afc20010 	sw	v0,16(s8)
bfc07ecc:	8fc20000 	lw	v0,0(s8)
bfc07ed0:	24420001 	addiu	v0,v0,1
bfc07ed4:	afc20000 	sw	v0,0(s8)
D:\loongson\projects\ls1d_ucos\lib1d/lib.c:216

void * memcpy1d(void * dst,void * src, INT8U count)
{
	INT8U *xs = (INT8U *) src;

	while (count--)
bfc07ed8:	93c20018 	lbu	v0,24(s8)
bfc07edc:	0002102b 	sltu	v0,zero,v0
bfc07ee0:	304300ff 	andi	v1,v0,0xff
bfc07ee4:	93c20018 	lbu	v0,24(s8)
bfc07ee8:	2442ffff 	addiu	v0,v0,-1
bfc07eec:	a3c20018 	sb	v0,24(s8)
bfc07ef0:	1460ffef 	bnez	v1,bfc07eb0 <memcpy1d+0x2c>
bfc07ef4:	00000000 	nop
D:\loongson\projects\ls1d_ucos\lib1d/lib.c:219
		*(INT8U *)dst ++ = *xs ++;

	return src;
bfc07ef8:	8fc20014 	lw	v0,20(s8)
D:\loongson\projects\ls1d_ucos\lib1d/lib.c:220
}
bfc07efc:	03c0e821 	move	sp,s8
bfc07f00:	8fbe000c 	lw	s8,12(sp)
bfc07f04:	27bd0010 	addiu	sp,sp,16
bfc07f08:	03e00008 	jr	ra
bfc07f0c:	00000000 	nop

bfc07f10 <Hex2Bcd>:
Hex2Bcd():
D:\loongson\projects\ls1d_ucos\lib1d/lib.c:224

/*******这个可以用mips汇编优化一下， arm x86  51 都有关于bcd 码的指令，在mips上却没有！*******/
INT8U Hex2Bcd(INT8U hex)
{
bfc07f10:	27bdfff0 	addiu	sp,sp,-16
bfc07f14:	afbe000c 	sw	s8,12(sp)
bfc07f18:	03a0f021 	move	s8,sp
bfc07f1c:	00801021 	move	v0,a0
bfc07f20:	a3c20010 	sb	v0,16(s8)
D:\loongson\projects\ls1d_ucos\lib1d/lib.c:227
	INT8U	low,high;

	low = high = 0;
bfc07f24:	a3c00000 	sb	zero,0(s8)
bfc07f28:	93c20000 	lbu	v0,0(s8)
bfc07f2c:	a3c20001 	sb	v0,1(s8)
bfc07f30:	0bf01fd4 	j	bfc07f50 <Hex2Bcd+0x40>
bfc07f34:	00000000 	nop
D:\loongson\projects\ls1d_ucos\lib1d/lib.c:229
	while(hex >= 10){
		hex	-= 10;
bfc07f38:	93c20010 	lbu	v0,16(s8)
bfc07f3c:	2442fff6 	addiu	v0,v0,-10
bfc07f40:	a3c20010 	sb	v0,16(s8)
D:\loongson\projects\ls1d_ucos\lib1d/lib.c:230
		high ++;
bfc07f44:	93c20000 	lbu	v0,0(s8)
bfc07f48:	24420001 	addiu	v0,v0,1
bfc07f4c:	a3c20000 	sb	v0,0(s8)
D:\loongson\projects\ls1d_ucos\lib1d/lib.c:228
INT8U Hex2Bcd(INT8U hex)
{
	INT8U	low,high;

	low = high = 0;
	while(hex >= 10){
bfc07f50:	93c20010 	lbu	v0,16(s8)
bfc07f54:	2c42000a 	sltiu	v0,v0,10
bfc07f58:	1040fff7 	beqz	v0,bfc07f38 <Hex2Bcd+0x28>
bfc07f5c:	00000000 	nop
D:\loongson\projects\ls1d_ucos\lib1d/lib.c:232
		hex	-= 10;
		high ++;
	}
	low	= hex;
bfc07f60:	93c20010 	lbu	v0,16(s8)
bfc07f64:	a3c20001 	sb	v0,1(s8)
D:\loongson\projects\ls1d_ucos\lib1d/lib.c:233
	return (high << 4 | low);
bfc07f68:	93c20000 	lbu	v0,0(s8)
bfc07f6c:	00021100 	sll	v0,v0,0x4
bfc07f70:	00021e00 	sll	v1,v0,0x18
bfc07f74:	00031e03 	sra	v1,v1,0x18
bfc07f78:	83c20001 	lb	v0,1(s8)
bfc07f7c:	00621025 	or	v0,v1,v0
bfc07f80:	00021600 	sll	v0,v0,0x18
bfc07f84:	00021603 	sra	v0,v0,0x18
bfc07f88:	304200ff 	andi	v0,v0,0xff
D:\loongson\projects\ls1d_ucos\lib1d/lib.c:234
}
bfc07f8c:	03c0e821 	move	sp,s8
bfc07f90:	8fbe000c 	lw	s8,12(sp)
bfc07f94:	27bd0010 	addiu	sp,sp,16
bfc07f98:	03e00008 	jr	ra
bfc07f9c:	00000000 	nop

bfc07fa0 <adc_init0>:
adc_init0():
D:\loongson\projects\ls1d_ucos\devices/adc.c:5
#include "includes.h"


void adc_init0( )
{
bfc07fa0:	27bdffe0 	addiu	sp,sp,-32
bfc07fa4:	afbf001c 	sw	ra,28(sp)
bfc07fa8:	afbe0018 	sw	s8,24(sp)
bfc07fac:	03a0f021 	move	s8,sp
D:\loongson\projects\ls1d_ucos\devices/adc.c:9
#if OS_CRITICAL_METHOD == 3
    OS_CPU_SR  cpu_sr;
#endif
	OS_ENTER_CRITICAL();
bfc07fb0:	3c02bfc0 	lui	v0,0xbfc0
bfc07fb4:	245973f0 	addiu	t9,v0,29680
bfc07fb8:	0320f809 	jalr	t9
bfc07fbc:	00000000 	nop
bfc07fc0:	afc20010 	sw	v0,16(s8)
D:\loongson\projects\ls1d_ucos\devices/adc.c:10
	PMU_SecToken = PMU_SecToken_chipctrl;
bfc07fc4:	3c02bfeb 	lui	v0,0xbfeb
bfc07fc8:	3443007c 	ori	v1,v0,0x7c
bfc07fcc:	3c0215da 	lui	v0,0x15da
bfc07fd0:	3442ed27 	ori	v0,v0,0xed27
bfc07fd4:	ac620000 	sw	v0,0(v1)
D:\loongson\projects\ls1d_ucos\devices/adc.c:11
	PMU_ChipCtrl |= 0x40;
bfc07fd8:	3c02bfeb 	lui	v0,0xbfeb
bfc07fdc:	3443000c 	ori	v1,v0,0xc
bfc07fe0:	3c02bfeb 	lui	v0,0xbfeb
bfc07fe4:	3442000c 	ori	v0,v0,0xc
bfc07fe8:	8c420000 	lw	v0,0(v0)
bfc07fec:	34420040 	ori	v0,v0,0x40
bfc07ff0:	ac620000 	sw	v0,0(v1)
D:\loongson\projects\ls1d_ucos\devices/adc.c:12
	OS_EXIT_CRITICAL();
bfc07ff4:	8fc40010 	lw	a0,16(s8)
bfc07ff8:	3c02bfc0 	lui	v0,0xbfc0
bfc07ffc:	24597408 	addiu	t9,v0,29704
bfc08000:	0320f809 	jalr	t9
bfc08004:	00000000 	nop
D:\loongson\projects\ls1d_ucos\devices/adc.c:13
	PMU_GPIO_OE |= 0x1000;  //empi output
bfc08008:	3c02bfeb 	lui	v0,0xbfeb
bfc0800c:	34430010 	ori	v1,v0,0x10
bfc08010:	3c02bfeb 	lui	v0,0xbfeb
bfc08014:	34420010 	ori	v0,v0,0x10
bfc08018:	8c420000 	lw	v0,0(v0)
bfc0801c:	34421000 	ori	v0,v0,0x1000
bfc08020:	ac620000 	sw	v0,0(v1)
D:\loongson\projects\ls1d_ucos\devices/adc.c:14
	PMU_GPIO_O &= ~0x1000;  //empi output '0'
bfc08024:	3c02bfeb 	lui	v0,0xbfeb
bfc08028:	34440014 	ori	a0,v0,0x14
bfc0802c:	3c02bfeb 	lui	v0,0xbfeb
bfc08030:	34420014 	ori	v0,v0,0x14
bfc08034:	8c430000 	lw	v1,0(v0)
bfc08038:	2402efff 	li	v0,-4097
bfc0803c:	00621024 	and	v0,v1,v0
bfc08040:	ac820000 	sw	v0,0(a0)
D:\loongson\projects\ls1d_ucos\devices/adc.c:16
	return ;
}
bfc08044:	03c0e821 	move	sp,s8
bfc08048:	8fbf001c 	lw	ra,28(sp)
bfc0804c:	8fbe0018 	lw	s8,24(sp)
bfc08050:	27bd0020 	addiu	sp,sp,32
bfc08054:	03e00008 	jr	ra
bfc08058:	00000000 	nop

bfc0805c <adc_measure0>:
adc_measure0():
D:\loongson\projects\ls1d_ucos\devices/adc.c:20


_u32 adc_measure0()
{
bfc0805c:	27bdfff0 	addiu	sp,sp,-16
bfc08060:	afbe000c 	sw	s8,12(sp)
bfc08064:	03a0f021 	move	s8,sp
D:\loongson\projects\ls1d_ucos\devices/adc.c:21
	_u32 result = 0;
bfc08068:	afc00000 	sw	zero,0(s8)
D:\loongson\projects\ls1d_ucos\devices/adc.c:24
	/**这里轮询 adc 测试是否完毕， 经过多次测试  lcd打印 发现轮询次数也就在 2次左右 ，因此不需要什么特别的处理了 注意临界区 ***/
	/* set CR_sel, when a measure finish, the CR_stat should be set to "01" automatically, the sel remains the value */
	ADC_CR = ADC_CR_START;
bfc0806c:	3c02bfea 	lui	v0,0xbfea
bfc08070:	34438000 	ori	v1,v0,0x8000
bfc08074:	2402ff80 	li	v0,-128
bfc08078:	a0620000 	sb	v0,0(v1)
D:\loongson\projects\ls1d_ucos\devices/adc.c:25
	while(!(ADC_CR&ADC_CR_HALT));
bfc0807c:	3c02bfea 	lui	v0,0xbfea
bfc08080:	34428000 	ori	v0,v0,0x8000
bfc08084:	90420000 	lbu	v0,0(v0)
bfc08088:	304200ff 	andi	v0,v0,0xff
bfc0808c:	30420040 	andi	v0,v0,0x40
bfc08090:	1040fffa 	beqz	v0,bfc0807c <adc_measure0+0x20>
bfc08094:	00000000 	nop
D:\loongson\projects\ls1d_ucos\devices/adc.c:27

	result = ((_u32)(ADC_D0&0xf0) >> 4) + ((_u32)ADC_D1 << 4);
bfc08098:	3c02bfea 	lui	v0,0xbfea
bfc0809c:	34428001 	ori	v0,v0,0x8001
bfc080a0:	90420000 	lbu	v0,0(v0)
bfc080a4:	304200ff 	andi	v0,v0,0xff
bfc080a8:	00021102 	srl	v0,v0,0x4
bfc080ac:	304200ff 	andi	v0,v0,0xff
bfc080b0:	00401821 	move	v1,v0
bfc080b4:	3c02bfea 	lui	v0,0xbfea
bfc080b8:	34428002 	ori	v0,v0,0x8002
bfc080bc:	90420000 	lbu	v0,0(v0)
bfc080c0:	304200ff 	andi	v0,v0,0xff
bfc080c4:	00021100 	sll	v0,v0,0x4
bfc080c8:	00621021 	addu	v0,v1,v0
bfc080cc:	afc20000 	sw	v0,0(s8)
D:\loongson\projects\ls1d_ucos\devices/adc.c:29

	return result;
bfc080d0:	8fc20000 	lw	v0,0(s8)
D:\loongson\projects\ls1d_ucos\devices/adc.c:30
}
bfc080d4:	03c0e821 	move	sp,s8
bfc080d8:	8fbe000c 	lw	s8,12(sp)
bfc080dc:	27bd0010 	addiu	sp,sp,16
bfc080e0:	03e00008 	jr	ra
bfc080e4:	00000000 	nop

bfc080e8 <adc_disable0>:
adc_disable0():
D:\loongson\projects\ls1d_ucos\devices/adc.c:34


void adc_disable0()
{
bfc080e8:	27bdfff8 	addiu	sp,sp,-8
bfc080ec:	afbe0004 	sw	s8,4(sp)
bfc080f0:	03a0f021 	move	s8,sp
D:\loongson\projects\ls1d_ucos\devices/adc.c:35
	PMU_GPIO_O |= 0x1000;  //empi output '1'
bfc080f4:	3c02bfeb 	lui	v0,0xbfeb
bfc080f8:	34430014 	ori	v1,v0,0x14
bfc080fc:	3c02bfeb 	lui	v0,0xbfeb
bfc08100:	34420014 	ori	v0,v0,0x14
bfc08104:	8c420000 	lw	v0,0(v0)
bfc08108:	34421000 	ori	v0,v0,0x1000
bfc0810c:	ac620000 	sw	v0,0(v1)
D:\loongson\projects\ls1d_ucos\devices/adc.c:38

	return ;
}
bfc08110:	03c0e821 	move	sp,s8
bfc08114:	8fbe0004 	lw	s8,4(sp)
bfc08118:	27bd0008 	addiu	sp,sp,8
bfc0811c:	03e00008 	jr	ra
bfc08120:	00000000 	nop

bfc08124 <adc_test>:
adc_test():
D:\loongson\projects\ls1d_ucos\devices/adc.c:42

/**返回 通道0 的电压值，用16进制返回  0xAAB 对应着 2.2V**/
INT32U	adc_test()
{
bfc08124:	27bdffe0 	addiu	sp,sp,-32
bfc08128:	afbf001c 	sw	ra,28(sp)
bfc0812c:	afbe0018 	sw	s8,24(sp)
bfc08130:	03a0f021 	move	s8,sp
D:\loongson\projects\ls1d_ucos\devices/adc.c:44
	INT32U		ret;
	adc_init0();
bfc08134:	0ff01fe8 	jal	bfc07fa0 <adc_init0>
bfc08138:	00000000 	nop
D:\loongson\projects\ls1d_ucos\devices/adc.c:46

	ret	= adc_measure0();
bfc0813c:	0ff02017 	jal	bfc0805c <adc_measure0>
bfc08140:	00000000 	nop
bfc08144:	afc20010 	sw	v0,16(s8)
D:\loongson\projects\ls1d_ucos\devices/adc.c:48

	adc_disable0();
bfc08148:	0ff0203a 	jal	bfc080e8 <adc_disable0>
bfc0814c:	00000000 	nop
D:\loongson\projects\ls1d_ucos\devices/adc.c:50

	return ret;
bfc08150:	8fc20010 	lw	v0,16(s8)
D:\loongson\projects\ls1d_ucos\devices/adc.c:51
}
bfc08154:	03c0e821 	move	sp,s8
bfc08158:	8fbf001c 	lw	ra,28(sp)
bfc0815c:	8fbe0018 	lw	s8,24(sp)
bfc08160:	27bd0020 	addiu	sp,sp,32
bfc08164:	03e00008 	jr	ra
bfc08168:	00000000 	nop

bfc0816c <VoltageCtrl>:
VoltageCtrl():
D:\loongson\projects\ls1d_ucos\devices/adc.c:55

/**  任意时刻，电压低于 2.7V 第15位 置位。   2分钟后出现低电压标志 14位置位。 16分钟后低电压标志消失14位清零。**/
void	VoltageCtrl(void)
{
bfc0816c:	27bdffe8 	addiu	sp,sp,-24
bfc08170:	afbf0014 	sw	ra,20(sp)
bfc08174:	afbe0010 	sw	s8,16(sp)
bfc08178:	03a0f021 	move	s8,sp
D:\loongson\projects\ls1d_ucos\devices/adc.c:56
	if( ( !(VoltageFlag & (1<<15)) ) && !(VoltageFlag & 1<< 14) ){
bfc0817c:	3c02a000 	lui	v0,0xa000
bfc08180:	94421048 	lhu	v0,4168(v0)
bfc08184:	3042ffff 	andi	v0,v0,0xffff
bfc08188:	00021400 	sll	v0,v0,0x10
bfc0818c:	00021403 	sra	v0,v0,0x10
bfc08190:	0440001b 	bltz	v0,bfc08200 <VoltageCtrl+0x94>
bfc08194:	00000000 	nop
bfc08198:	3c02a000 	lui	v0,0xa000
bfc0819c:	94421048 	lhu	v0,4168(v0)
bfc081a0:	3042ffff 	andi	v0,v0,0xffff
bfc081a4:	30424000 	andi	v0,v0,0x4000
bfc081a8:	14400015 	bnez	v0,bfc08200 <VoltageCtrl+0x94>
bfc081ac:	00000000 	nop
D:\loongson\projects\ls1d_ucos\devices/adc.c:57
		if( (Voltage = adc_test())  < StandVolt){
bfc081b0:	0ff02049 	jal	bfc08124 <adc_test>
bfc081b4:	00000000 	nop
bfc081b8:	00401821 	move	v1,v0
bfc081bc:	3c02a000 	lui	v0,0xa000
bfc081c0:	ac431024 	sw	v1,4132(v0)
bfc081c4:	3c02a000 	lui	v0,0xa000
bfc081c8:	8c421024 	lw	v0,4132(v0)
bfc081cc:	2c4208ba 	sltiu	v0,v0,2234
bfc081d0:	1040004b 	beqz	v0,bfc08300 <VoltageCtrl+0x194>
bfc081d4:	00000000 	nop
D:\loongson\projects\ls1d_ucos\devices/adc.c:58
			VoltageFlag |= 1<<15;
bfc081d8:	3c02a000 	lui	v0,0xa000
bfc081dc:	94421048 	lhu	v0,4168(v0)
bfc081e0:	3043ffff 	andi	v1,v0,0xffff
bfc081e4:	24028000 	li	v0,-32768
bfc081e8:	00621025 	or	v0,v1,v0
bfc081ec:	3043ffff 	andi	v1,v0,0xffff
bfc081f0:	3c02a000 	lui	v0,0xa000
bfc081f4:	a4431048 	sh	v1,4168(v0)
bfc081f8:	0bf020c0 	j	bfc08300 <VoltageCtrl+0x194>
bfc081fc:	00000000 	nop
D:\loongson\projects\ls1d_ucos\devices/adc.c:60
		}
	}else if( VoltageFlag & (1<<15) ){
bfc08200:	3c02a000 	lui	v0,0xa000
bfc08204:	94421048 	lhu	v0,4168(v0)
bfc08208:	3042ffff 	andi	v0,v0,0xffff
bfc0820c:	00021400 	sll	v0,v0,0x10
bfc08210:	00021403 	sra	v0,v0,0x10
bfc08214:	04410024 	bgez	v0,bfc082a8 <VoltageCtrl+0x13c>
bfc08218:	00000000 	nop
D:\loongson\projects\ls1d_ucos\devices/adc.c:61
		VoltageFlag	++;
bfc0821c:	3c02a000 	lui	v0,0xa000
bfc08220:	94421048 	lhu	v0,4168(v0)
bfc08224:	3042ffff 	andi	v0,v0,0xffff
bfc08228:	24420001 	addiu	v0,v0,1
bfc0822c:	3043ffff 	andi	v1,v0,0xffff
bfc08230:	3c02a000 	lui	v0,0xa000
bfc08234:	a4431048 	sh	v1,4168(v0)
D:\loongson\projects\ls1d_ucos\devices/adc.c:62
		if((VoltageFlag & 0xfff) > 120){
bfc08238:	3c02a000 	lui	v0,0xa000
bfc0823c:	94421048 	lhu	v0,4168(v0)
bfc08240:	3042ffff 	andi	v0,v0,0xffff
bfc08244:	30420fff 	andi	v0,v0,0xfff
bfc08248:	28420079 	slti	v0,v0,121
bfc0824c:	1440002c 	bnez	v0,bfc08300 <VoltageCtrl+0x194>
bfc08250:	00000000 	nop
D:\loongson\projects\ls1d_ucos\devices/adc.c:63
			VoltageFlag	|= 1<< 14;
bfc08254:	3c02a000 	lui	v0,0xa000
bfc08258:	94421048 	lhu	v0,4168(v0)
bfc0825c:	3042ffff 	andi	v0,v0,0xffff
bfc08260:	34424000 	ori	v0,v0,0x4000
bfc08264:	3043ffff 	andi	v1,v0,0xffff
bfc08268:	3c02a000 	lui	v0,0xa000
bfc0826c:	a4431048 	sh	v1,4168(v0)
D:\loongson\projects\ls1d_ucos\devices/adc.c:64
			VoltageFlag	&= ~(1<< 15);
bfc08270:	3c02a000 	lui	v0,0xa000
bfc08274:	94421048 	lhu	v0,4168(v0)
bfc08278:	3042ffff 	andi	v0,v0,0xffff
bfc0827c:	30427fff 	andi	v0,v0,0x7fff
bfc08280:	3c03a000 	lui	v1,0xa000
bfc08284:	a4621048 	sh	v0,4168(v1)
D:\loongson\projects\ls1d_ucos\devices/adc.c:65
			VoltageFlag	&= 0xf000;
bfc08288:	3c02a000 	lui	v0,0xa000
bfc0828c:	94421048 	lhu	v0,4168(v0)
bfc08290:	3042ffff 	andi	v0,v0,0xffff
bfc08294:	3042f000 	andi	v0,v0,0xf000
bfc08298:	3c03a000 	lui	v1,0xa000
bfc0829c:	a4621048 	sh	v0,4168(v1)
bfc082a0:	0bf020c0 	j	bfc08300 <VoltageCtrl+0x194>
bfc082a4:	00000000 	nop
D:\loongson\projects\ls1d_ucos\devices/adc.c:67
		}
	}else if(VoltageFlag & (1<<14)){
bfc082a8:	3c02a000 	lui	v0,0xa000
bfc082ac:	94421048 	lhu	v0,4168(v0)
bfc082b0:	3042ffff 	andi	v0,v0,0xffff
bfc082b4:	30424000 	andi	v0,v0,0x4000
bfc082b8:	10400011 	beqz	v0,bfc08300 <VoltageCtrl+0x194>
bfc082bc:	00000000 	nop
D:\loongson\projects\ls1d_ucos\devices/adc.c:68
		VoltageFlag	++;
bfc082c0:	3c02a000 	lui	v0,0xa000
bfc082c4:	94421048 	lhu	v0,4168(v0)
bfc082c8:	3042ffff 	andi	v0,v0,0xffff
bfc082cc:	24420001 	addiu	v0,v0,1
bfc082d0:	3043ffff 	andi	v1,v0,0xffff
bfc082d4:	3c02a000 	lui	v0,0xa000
bfc082d8:	a4431048 	sh	v1,4168(v0)
D:\loongson\projects\ls1d_ucos\devices/adc.c:69
		if((VoltageFlag & 0xfff) > 960){
bfc082dc:	3c02a000 	lui	v0,0xa000
bfc082e0:	94421048 	lhu	v0,4168(v0)
bfc082e4:	3042ffff 	andi	v0,v0,0xffff
bfc082e8:	30420fff 	andi	v0,v0,0xfff
bfc082ec:	284203c1 	slti	v0,v0,961
bfc082f0:	14400003 	bnez	v0,bfc08300 <VoltageCtrl+0x194>
bfc082f4:	00000000 	nop
D:\loongson\projects\ls1d_ucos\devices/adc.c:70
			VoltageFlag	= 0;
bfc082f8:	3c02a000 	lui	v0,0xa000
bfc082fc:	a4401048 	sh	zero,4168(v0)
D:\loongson\projects\ls1d_ucos\devices/adc.c:73
		}
	}
}
bfc08300:	03c0e821 	move	sp,s8
bfc08304:	8fbf0014 	lw	ra,20(sp)
bfc08308:	8fbe0010 	lw	s8,16(sp)
bfc0830c:	27bd0018 	addiu	sp,sp,24
bfc08310:	03e00008 	jr	ra
bfc08314:	00000000 	nop
bfc08318:	00000000 	nop
bfc0831c:	00000000 	nop

bfc08320 <InitTdc>:
InitTdc():
D:\loongson\projects\ls1d_ucos\devices/tdc.c:5
#include "includes.h"


void InitTdc(void)
{
bfc08320:	27bdffe0 	addiu	sp,sp,-32
bfc08324:	afbf001c 	sw	ra,28(sp)
bfc08328:	afbe0018 	sw	s8,24(sp)
bfc0832c:	03a0f021 	move	s8,sp
D:\loongson\projects\ls1d_ucos\devices/tdc.c:9
#if OS_CRITICAL_METHOD == 3
    OS_CPU_SR  cpu_sr;
#endif
	Sonar[0] = 0x80008210;    //8M div 8, 48mA, Fireup, stop2
bfc08330:	3c02bfeb 	lui	v0,0xbfeb
bfc08334:	34434000 	ori	v1,v0,0x4000
bfc08338:	3c028000 	lui	v0,0x8000
bfc0833c:	34428210 	ori	v0,v0,0x8210
bfc08340:	ac620000 	sw	v0,0(v1)
D:\loongson\projects\ls1d_ucos\devices/tdc.c:10
	Sonar[1] = 0xf0c407a8;     //use Stdc, measure 2, single rise-edge
bfc08344:	3c02bfeb 	lui	v0,0xbfeb
bfc08348:	34434004 	ori	v1,v0,0x4004
bfc0834c:	3c02f0c4 	lui	v0,0xf0c4
bfc08350:	344207a8 	ori	v0,v0,0x7a8
bfc08354:	ac620000 	sw	v0,0(v1)
D:\loongson\projects\ls1d_ucos\devices/tdc.c:13

	//开首波
	Sonar[2] = 0x40500000;    //detect first wave, double, single-sample
bfc08358:	3c02bfeb 	lui	v0,0xbfeb
bfc0835c:	34434008 	ori	v1,v0,0x4008
bfc08360:	3c024050 	lui	v0,0x4050
bfc08364:	ac620000 	sw	v0,0(v1)
D:\loongson\projects\ls1d_ucos\devices/tdc.c:14
	Sonar[3] =  0x8003a00;    //set delay, detect first wave
bfc08368:	3c02bfeb 	lui	v0,0xbfeb
bfc0836c:	3443400c 	ori	v1,v0,0x400c
bfc08370:	3c020800 	lui	v0,0x800
bfc08374:	34423a00 	ori	v0,v0,0x3a00
bfc08378:	ac620000 	sw	v0,0(v1)
D:\loongson\projects\ls1d_ucos\devices/tdc.c:15
	Sonar[4] =  0x40006a0;    //set delay, from first wave to the first stop
bfc0837c:	3c02bfeb 	lui	v0,0xbfeb
bfc08380:	34434010 	ori	v1,v0,0x4010
bfc08384:	3c020400 	lui	v0,0x400
bfc08388:	344206a0 	ori	v0,v0,0x6a0
bfc0838c:	ac620000 	sw	v0,0(v1)
D:\loongson\projects\ls1d_ucos\devices/tdc.c:17

	Thsens[0] = 0xf7;
bfc08390:	3c02bfeb 	lui	v0,0xbfeb
bfc08394:	34438000 	ori	v1,v0,0x8000
bfc08398:	240200f7 	li	v0,247
bfc0839c:	ac620000 	sw	v0,0(v1)
D:\loongson\projects\ls1d_ucos\devices/tdc.c:23

	//_u32 i;
	//for(i=0; i<6; i++)
	//	printf("sonar[%d] = 0x%x\n", i, Sonar[i]);

	OS_ENTER_CRITICAL();
bfc083a0:	3c02bfc0 	lui	v0,0xbfc0
bfc083a4:	245973f0 	addiu	t9,v0,29680
bfc083a8:	0320f809 	jalr	t9
bfc083ac:	00000000 	nop
bfc083b0:	afc20010 	sw	v0,16(s8)
D:\loongson\projects\ls1d_ucos\devices/tdc.c:24
	PMU_SecToken = PMU_SecToken_chipctrl;
bfc083b4:	3c02bfeb 	lui	v0,0xbfeb
bfc083b8:	3443007c 	ori	v1,v0,0x7c
bfc083bc:	3c0215da 	lui	v0,0x15da
bfc083c0:	3442ed27 	ori	v0,v0,0xed27
bfc083c4:	ac620000 	sw	v0,0(v1)
D:\loongson\projects\ls1d_ucos\devices/tdc.c:25
	PMU_ChipCtrl &= ~(1<<4);
bfc083c8:	3c02bfeb 	lui	v0,0xbfeb
bfc083cc:	3444000c 	ori	a0,v0,0xc
bfc083d0:	3c02bfeb 	lui	v0,0xbfeb
bfc083d4:	3442000c 	ori	v0,v0,0xc
bfc083d8:	8c430000 	lw	v1,0(v0)
bfc083dc:	2402ffef 	li	v0,-17
bfc083e0:	00621024 	and	v0,v1,v0
bfc083e4:	ac820000 	sw	v0,0(a0)
D:\loongson\projects\ls1d_ucos\devices/tdc.c:26
	PMU_SecToken = PMU_SecToken_command;
bfc083e8:	3c02bfeb 	lui	v0,0xbfeb
bfc083ec:	3443007c 	ori	v1,v0,0x7c
bfc083f0:	3c02cf21 	lui	v0,0xcf21
bfc083f4:	34426e95 	ori	v0,v0,0x6e95
bfc083f8:	ac620000 	sw	v0,0(v1)
D:\loongson\projects\ls1d_ucos\devices/tdc.c:27
	PMU_Command |= 0x8000;
bfc083fc:	3c02bfeb 	lui	v0,0xbfeb
bfc08400:	34430004 	ori	v1,v0,0x4
bfc08404:	3c02bfeb 	lui	v0,0xbfeb
bfc08408:	34420004 	ori	v0,v0,0x4
bfc0840c:	8c420000 	lw	v0,0(v0)
bfc08410:	34428000 	ori	v0,v0,0x8000
bfc08414:	ac620000 	sw	v0,0(v1)
D:\loongson\projects\ls1d_ucos\devices/tdc.c:28
	OS_EXIT_CRITICAL();
bfc08418:	8fc40010 	lw	a0,16(s8)
bfc0841c:	3c02bfc0 	lui	v0,0xbfc0
bfc08420:	24597408 	addiu	t9,v0,29704
bfc08424:	0320f809 	jalr	t9
bfc08428:	00000000 	nop
D:\loongson\projects\ls1d_ucos\devices/tdc.c:29
}
bfc0842c:	03c0e821 	move	sp,s8
bfc08430:	8fbf001c 	lw	ra,28(sp)
bfc08434:	8fbe0018 	lw	s8,24(sp)
bfc08438:	27bd0020 	addiu	sp,sp,32
bfc0843c:	03e00008 	jr	ra
bfc08440:	00000000 	nop

bfc08444 <SelectTdc>:
SelectTdc():
D:\loongson\projects\ls1d_ucos\devices/tdc.c:32

void SelectTdc(INT32U mode)
{
bfc08444:	27bdfff0 	addiu	sp,sp,-16
bfc08448:	afbe000c 	sw	s8,12(sp)
bfc0844c:	03a0f021 	move	s8,sp
bfc08450:	afc40010 	sw	a0,16(s8)
D:\loongson\projects\ls1d_ucos\devices/tdc.c:33
	switch(mode){
bfc08454:	8fc20010 	lw	v0,16(s8)
bfc08458:	afc20000 	sw	v0,0(s8)
bfc0845c:	8fc30000 	lw	v1,0(s8)
bfc08460:	10600016 	beqz	v1,bfc084bc <SelectTdc+0x78>
bfc08464:	00000000 	nop
bfc08468:	24020001 	li	v0,1
bfc0846c:	8fc30000 	lw	v1,0(s8)
bfc08470:	10620012 	beq	v1,v0,bfc084bc <SelectTdc+0x78>
bfc08474:	00000000 	nop
D:\loongson\projects\ls1d_ucos\devices/tdc.c:40
		break;
	case H_TDC:  //htdc
		break;
	case S_TDC:  //stdc
	default:
		Sonar[1] &= ~0x08080000;
bfc08478:	3c02bfeb 	lui	v0,0xbfeb
bfc0847c:	34444004 	ori	a0,v0,0x4004
bfc08480:	3c02bfeb 	lui	v0,0xbfeb
bfc08484:	34424004 	ori	v0,v0,0x4004
bfc08488:	8c430000 	lw	v1,0(v0)
bfc0848c:	3c02f7f7 	lui	v0,0xf7f7
bfc08490:	3442ffff 	ori	v0,v0,0xffff
bfc08494:	00621024 	and	v0,v1,v0
bfc08498:	ac820000 	sw	v0,0(a0)
D:\loongson\projects\ls1d_ucos\devices/tdc.c:41
		Sonar[1] |=  0x08000000;  //stdc
bfc0849c:	3c02bfeb 	lui	v0,0xbfeb
bfc084a0:	34444004 	ori	a0,v0,0x4004
bfc084a4:	3c02bfeb 	lui	v0,0xbfeb
bfc084a8:	34424004 	ori	v0,v0,0x4004
bfc084ac:	8c430000 	lw	v1,0(v0)
bfc084b0:	3c020800 	lui	v0,0x800
bfc084b4:	00621025 	or	v0,v1,v0
bfc084b8:	ac820000 	sw	v0,0(a0)
D:\loongson\projects\ls1d_ucos\devices/tdc.c:44
		break;
	}
}
bfc084bc:	03c0e821 	move	sp,s8
bfc084c0:	8fbe000c 	lw	s8,12(sp)
bfc084c4:	27bd0010 	addiu	sp,sp,16
bfc084c8:	03e00008 	jr	ra
bfc084cc:	00000000 	nop

bfc084d0 <SetTdcMop>:
SetTdcMop():
D:\loongson\projects\ls1d_ucos\devices/tdc.c:48


void SetTdcMop(INT32U mode)
{
bfc084d0:	27bdffe0 	addiu	sp,sp,-32
bfc084d4:	afbf001c 	sw	ra,28(sp)
bfc084d8:	afbe0018 	sw	s8,24(sp)
bfc084dc:	03a0f021 	move	s8,sp
bfc084e0:	afc40020 	sw	a0,32(s8)
D:\loongson\projects\ls1d_ucos\devices/tdc.c:52
#if OS_CRITICAL_METHOD == 3
    OS_CPU_SR  cpu_sr;
#endif
    OS_ENTER_CRITICAL();
bfc084e4:	3c02bfc0 	lui	v0,0xbfc0
bfc084e8:	245973f0 	addiu	t9,v0,29680
bfc084ec:	0320f809 	jalr	t9
bfc084f0:	00000000 	nop
bfc084f4:	afc20014 	sw	v0,20(s8)
D:\loongson\projects\ls1d_ucos\devices/tdc.c:54
	//cruise mode
	PMU_SecToken = PMU_SecToken_timing;
bfc084f8:	3c02bfeb 	lui	v0,0xbfeb
bfc084fc:	3443007c 	ori	v1,v0,0x7c
bfc08500:	3c025f43 	lui	v0,0x5f43
bfc08504:	34429e29 	ori	v0,v0,0x9e29
bfc08508:	ac620000 	sw	v0,0(v1)
D:\loongson\projects\ls1d_ucos\devices/tdc.c:55
	PMU_Timing = 0x21014;
bfc0850c:	3c03bfeb 	lui	v1,0xbfeb
bfc08510:	3c020002 	lui	v0,0x2
bfc08514:	34421014 	ori	v0,v0,0x1014
bfc08518:	ac620000 	sw	v0,0(v1)
D:\loongson\projects\ls1d_ucos\devices/tdc.c:57

	INT32U tmp = PMU_Command & 0xffffff20;
bfc0851c:	3c02bfeb 	lui	v0,0xbfeb
bfc08520:	34420004 	ori	v0,v0,0x4
bfc08524:	8c430000 	lw	v1,0(v0)
bfc08528:	2402ff20 	li	v0,-224
bfc0852c:	00621024 	and	v0,v1,v0
bfc08530:	afc20010 	sw	v0,16(s8)
D:\loongson\projects\ls1d_ucos\devices/tdc.c:58
	PMU_SecToken = PMU_SecToken_command;
bfc08534:	3c02bfeb 	lui	v0,0xbfeb
bfc08538:	3443007c 	ori	v1,v0,0x7c
bfc0853c:	3c02cf21 	lui	v0,0xcf21
bfc08540:	34426e95 	ori	v0,v0,0x6e95
bfc08544:	ac620000 	sw	v0,0(v1)
D:\loongson\projects\ls1d_ucos\devices/tdc.c:59
	PMU_Command = tmp|mode;   		//res
bfc08548:	3c02bfeb 	lui	v0,0xbfeb
bfc0854c:	34440004 	ori	a0,v0,0x4
bfc08550:	8fc30010 	lw	v1,16(s8)
bfc08554:	8fc20020 	lw	v0,32(s8)
bfc08558:	00621025 	or	v0,v1,v0
bfc0855c:	ac820000 	sw	v0,0(a0)
D:\loongson\projects\ls1d_ucos\devices/tdc.c:63
	/// 此时 tmp=0x8000 ，mode = 0x10
	/// mode位一般对应于Command寄存器的 MOP 位。 一般mop都是小于7 的。
	/// 按照寄存器说明这里只打开了 res_valid 中断使能， 没有打开巡航模式！！
	OS_EXIT_CRITICAL();
bfc08560:	8fc40014 	lw	a0,20(s8)
bfc08564:	3c02bfc0 	lui	v0,0xbfc0
bfc08568:	24597408 	addiu	t9,v0,29704
bfc0856c:	0320f809 	jalr	t9
bfc08570:	00000000 	nop
D:\loongson\projects\ls1d_ucos\devices/tdc.c:64
}
bfc08574:	03c0e821 	move	sp,s8
bfc08578:	8fbf001c 	lw	ra,28(sp)
bfc0857c:	8fbe0018 	lw	s8,24(sp)
bfc08580:	27bd0020 	addiu	sp,sp,32
bfc08584:	03e00008 	jr	ra
bfc08588:	00000000 	nop

bfc0858c <StartTdc>:
StartTdc():
D:\loongson\projects\ls1d_ucos\devices/tdc.c:69



void StartTdc()
{
bfc0858c:	27bdffe0 	addiu	sp,sp,-32
bfc08590:	afbf001c 	sw	ra,28(sp)
bfc08594:	afbe0018 	sw	s8,24(sp)
bfc08598:	03a0f021 	move	s8,sp
D:\loongson\projects\ls1d_ucos\devices/tdc.c:73
#if OS_CRITICAL_METHOD == 3
    OS_CPU_SR  cpu_sr;
#endif
	OS_ENTER_CRITICAL();
bfc0859c:	3c02bfc0 	lui	v0,0xbfc0
bfc085a0:	245973f0 	addiu	t9,v0,29680
bfc085a4:	0320f809 	jalr	t9
bfc085a8:	00000000 	nop
bfc085ac:	afc20010 	sw	v0,16(s8)
D:\loongson\projects\ls1d_ucos\devices/tdc.c:74
	PMU_SecToken = PMU_SecToken_command;
bfc085b0:	3c02bfeb 	lui	v0,0xbfeb
bfc085b4:	3443007c 	ori	v1,v0,0x7c
bfc085b8:	3c02cf21 	lui	v0,0xcf21
bfc085bc:	34426e95 	ori	v0,v0,0x6e95
bfc085c0:	ac620000 	sw	v0,0(v1)
D:\loongson\projects\ls1d_ucos\devices/tdc.c:75
	PMU_CommandW = 0x2;
bfc085c4:	3c02bfeb 	lui	v0,0xbfeb
bfc085c8:	3443003c 	ori	v1,v0,0x3c
bfc085cc:	24020002 	li	v0,2
bfc085d0:	ac620000 	sw	v0,0(v1)
D:\loongson\projects\ls1d_ucos\devices/tdc.c:76
	OS_EXIT_CRITICAL();
bfc085d4:	8fc40010 	lw	a0,16(s8)
bfc085d8:	3c02bfc0 	lui	v0,0xbfc0
bfc085dc:	24597408 	addiu	t9,v0,29704
bfc085e0:	0320f809 	jalr	t9
bfc085e4:	00000000 	nop
D:\loongson\projects\ls1d_ucos\devices/tdc.c:77
}
bfc085e8:	03c0e821 	move	sp,s8
bfc085ec:	8fbf001c 	lw	ra,28(sp)
bfc085f0:	8fbe0018 	lw	s8,24(sp)
bfc085f4:	27bd0020 	addiu	sp,sp,32
bfc085f8:	03e00008 	jr	ra
bfc085fc:	00000000 	nop

bfc08600 <Flash_Erase_page>:
Flash_Erase_page():
D:\loongson\projects\ls1d_ucos\devices/flash.c:6
#include "includes.h"


/** 成功返回0，失败返回 1 **/
_u32 Flash_Erase_page(_u32 addr)  //erase a flash page, FLASH_PAGE_SIZE
{
bfc08600:	27bdffe8 	addiu	sp,sp,-24
bfc08604:	afbe0014 	sw	s8,20(sp)
bfc08608:	03a0f021 	move	s8,sp
bfc0860c:	afc40018 	sw	a0,24(s8)
D:\loongson\projects\ls1d_ucos\devices/flash.c:7
	_u32 page_addr = (addr & (~(FLASH_PAGE_SIZE - 1))) ;
bfc08610:	8fc30018 	lw	v1,24(s8)
bfc08614:	2402ff80 	li	v0,-128
bfc08618:	00621024 	and	v0,v1,v0
bfc0861c:	afc20004 	sw	v0,4(s8)
D:\loongson\projects\ls1d_ucos\devices/flash.c:8
	FLASH_PEctrl_REG = 0x2;  // erase time, 2.5ms
bfc08620:	3c02bfe6 	lui	v0,0xbfe6
bfc08624:	34430024 	ori	v1,v0,0x24
bfc08628:	24020002 	li	v0,2
bfc0862c:	ac620000 	sw	v0,0(v1)
D:\loongson\projects\ls1d_ucos\devices/flash.c:9
	FLASH_CMD_REG = FLASH_Command_erase_page | (page_addr & FLASH_Command_Daddr_MASK);
bfc08630:	3c04bfe6 	lui	a0,0xbfe6
bfc08634:	8fc20004 	lw	v0,4(s8)
bfc08638:	3043ffff 	andi	v1,v0,0xffff
bfc0863c:	3c02a000 	lui	v0,0xa000
bfc08640:	00621025 	or	v0,v1,v0
bfc08644:	ac820000 	sw	v0,0(a0)
D:\loongson\projects\ls1d_ucos\devices/flash.c:12

	_u32 i;
	for(i=0; i<FLASH_PAGE_SIZE/4; i += 4)
bfc08648:	afc00000 	sw	zero,0(s8)
bfc0864c:	0bf021a2 	j	bfc08688 <Flash_Erase_page+0x88>
bfc08650:	00000000 	nop
D:\loongson\projects\ls1d_ucos\devices/flash.c:14
	{
		if(*(volatile _u32 *)(page_addr+i) != 0x0)
bfc08654:	8fc30004 	lw	v1,4(s8)
bfc08658:	8fc20000 	lw	v0,0(s8)
bfc0865c:	00621021 	addu	v0,v1,v0
bfc08660:	8c420000 	lw	v0,0(v0)
bfc08664:	10400005 	beqz	v0,bfc0867c <Flash_Erase_page+0x7c>
bfc08668:	00000000 	nop
D:\loongson\projects\ls1d_ucos\devices/flash.c:15
			return 1;
bfc0866c:	24020001 	li	v0,1
bfc08670:	afc20008 	sw	v0,8(s8)
bfc08674:	0bf021a7 	j	bfc0869c <Flash_Erase_page+0x9c>
bfc08678:	00000000 	nop
D:\loongson\projects\ls1d_ucos\devices/flash.c:12
	_u32 page_addr = (addr & (~(FLASH_PAGE_SIZE - 1))) ;
	FLASH_PEctrl_REG = 0x2;  // erase time, 2.5ms
	FLASH_CMD_REG = FLASH_Command_erase_page | (page_addr & FLASH_Command_Daddr_MASK);

	_u32 i;
	for(i=0; i<FLASH_PAGE_SIZE/4; i += 4)
bfc0867c:	8fc20000 	lw	v0,0(s8)
bfc08680:	24420004 	addiu	v0,v0,4
bfc08684:	afc20000 	sw	v0,0(s8)
bfc08688:	8fc20000 	lw	v0,0(s8)
bfc0868c:	2c420020 	sltiu	v0,v0,32
bfc08690:	1440fff0 	bnez	v0,bfc08654 <Flash_Erase_page+0x54>
bfc08694:	00000000 	nop
D:\loongson\projects\ls1d_ucos\devices/flash.c:18
	{
		if(*(volatile _u32 *)(page_addr+i) != 0x0)
			return 1;
	}

	return 0 ;
bfc08698:	afc00008 	sw	zero,8(s8)
bfc0869c:	8fc20008 	lw	v0,8(s8)
D:\loongson\projects\ls1d_ucos\devices/flash.c:19
}
bfc086a0:	03c0e821 	move	sp,s8
bfc086a4:	8fbe0014 	lw	s8,20(sp)
bfc086a8:	27bd0018 	addiu	sp,sp,24
bfc086ac:	03e00008 	jr	ra
bfc086b0:	00000000 	nop

bfc086b4 <Flash_Write>:
Flash_Write():
D:\loongson\projects\ls1d_ucos\devices/flash.c:26

/*
	 This function will modify X(num) word, started from addr.
*/
_u32 Flash_Write(_u32 addr, _u32 *data, _u32 num)
{
bfc086b4:	27bdff40 	addiu	sp,sp,-192
bfc086b8:	afbf00bc 	sw	ra,188(sp)
bfc086bc:	afbe00b8 	sw	s8,184(sp)
bfc086c0:	03a0f021 	move	s8,sp
bfc086c4:	afc400c0 	sw	a0,192(s8)
bfc086c8:	afc500c4 	sw	a1,196(s8)
bfc086cc:	afc600c8 	sw	a2,200(s8)
D:\loongson\projects\ls1d_ucos\devices/flash.c:28
	_u32 i, j, offset, write_addr;
	j = 0;
bfc086d0:	afc00024 	sw	zero,36(s8)
D:\loongson\projects\ls1d_ucos\devices/flash.c:29
	write_addr = addr;
bfc086d4:	8fc200c0 	lw	v0,192(s8)
bfc086d8:	afc2001c 	sw	v0,28(s8)
D:\loongson\projects\ls1d_ucos\devices/flash.c:30
	_u32 flash_block_mask = FLASH_PAGE_SIZE - 1;
bfc086dc:	2402007f 	li	v0,127
bfc086e0:	afc20018 	sw	v0,24(s8)
bfc086e4:	0bf02227 	j	bfc0889c <Flash_Write+0x1e8>
bfc086e8:	00000000 	nop
D:\loongson\projects\ls1d_ucos\devices/flash.c:35
	_u32 old_data[FLASH_PAGE_SIZE/4];

	while(j<num)
	{
		for(i=0; i<FLASH_PAGE_SIZE/4; i++)
bfc086ec:	afc00028 	sw	zero,40(s8)
bfc086f0:	0bf021ce 	j	bfc08738 <Flash_Write+0x84>
bfc086f4:	00000000 	nop
D:\loongson\projects\ls1d_ucos\devices/flash.c:36
			old_data[i] = *(_u32 *)((write_addr & ~flash_block_mask)+i*4) ;
bfc086f8:	8fc50028 	lw	a1,40(s8)
bfc086fc:	8fc20018 	lw	v0,24(s8)
bfc08700:	00021827 	nor	v1,zero,v0
bfc08704:	8fc2001c 	lw	v0,28(s8)
bfc08708:	00621824 	and	v1,v1,v0
bfc0870c:	8fc20028 	lw	v0,40(s8)
bfc08710:	00021080 	sll	v0,v0,0x2
bfc08714:	00621021 	addu	v0,v1,v0
bfc08718:	8c440000 	lw	a0,0(v0)
bfc0871c:	00051080 	sll	v0,a1,0x2
bfc08720:	27c30010 	addiu	v1,s8,16
bfc08724:	00621021 	addu	v0,v1,v0
bfc08728:	ac44001c 	sw	a0,28(v0)
D:\loongson\projects\ls1d_ucos\devices/flash.c:35
	_u32 flash_block_mask = FLASH_PAGE_SIZE - 1;
	_u32 old_data[FLASH_PAGE_SIZE/4];

	while(j<num)
	{
		for(i=0; i<FLASH_PAGE_SIZE/4; i++)
bfc0872c:	8fc20028 	lw	v0,40(s8)
bfc08730:	24420001 	addiu	v0,v0,1
bfc08734:	afc20028 	sw	v0,40(s8)
bfc08738:	8fc20028 	lw	v0,40(s8)
bfc0873c:	2c420020 	sltiu	v0,v0,32
bfc08740:	1440ffed 	bnez	v0,bfc086f8 <Flash_Write+0x44>
bfc08744:	00000000 	nop
D:\loongson\projects\ls1d_ucos\devices/flash.c:38
			old_data[i] = *(_u32 *)((write_addr & ~flash_block_mask)+i*4) ;

		FLASH_CMD_REG = FLASH_Command_clr_page_latch;
bfc08748:	3c03bfe6 	lui	v1,0xbfe6
bfc0874c:	3c024000 	lui	v0,0x4000
bfc08750:	ac620000 	sw	v0,0(v1)
D:\loongson\projects\ls1d_ucos\devices/flash.c:42
		/*wait interrupt ? Should I disable other int??????*/
		//debug("Page_latch is clean now...\n")

		_u32 *page_data = (_u32 *)(write_addr & ~flash_block_mask) ;
bfc08754:	8fc20018 	lw	v0,24(s8)
bfc08758:	00021827 	nor	v1,zero,v0
bfc0875c:	8fc2001c 	lw	v0,28(s8)
bfc08760:	00621024 	and	v0,v1,v0
bfc08764:	afc20014 	sw	v0,20(s8)
D:\loongson\projects\ls1d_ucos\devices/flash.c:44

		offset = ((write_addr & flash_block_mask)>>2);  //页内字偏移
bfc08768:	8fc3001c 	lw	v1,28(s8)
bfc0876c:	8fc20018 	lw	v0,24(s8)
bfc08770:	00621024 	and	v0,v1,v0
bfc08774:	00021082 	srl	v0,v0,0x2
bfc08778:	afc20020 	sw	v0,32(s8)
D:\loongson\projects\ls1d_ucos\devices/flash.c:45
		for(i=0; i<(FLASH_PAGE_SIZE/4); i++)
bfc0877c:	afc00028 	sw	zero,40(s8)
bfc08780:	0bf02208 	j	bfc08820 <Flash_Write+0x16c>
bfc08784:	00000000 	nop
D:\loongson\projects\ls1d_ucos\devices/flash.c:47
		{
			if( (offset <= i)  && (j < num) )
bfc08788:	8fc20020 	lw	v0,32(s8)
bfc0878c:	8fc30028 	lw	v1,40(s8)
bfc08790:	0062102b 	sltu	v0,v1,v0
bfc08794:	14400015 	bnez	v0,bfc087ec <Flash_Write+0x138>
bfc08798:	00000000 	nop
bfc0879c:	8fc20024 	lw	v0,36(s8)
bfc087a0:	8fc300c8 	lw	v1,200(s8)
bfc087a4:	0043102b 	sltu	v0,v0,v1
bfc087a8:	10400010 	beqz	v0,bfc087ec <Flash_Write+0x138>
bfc087ac:	00000000 	nop
D:\loongson\projects\ls1d_ucos\devices/flash.c:48
				page_data[i] = data[j++];
bfc087b0:	8fc20028 	lw	v0,40(s8)
bfc087b4:	00021880 	sll	v1,v0,0x2
bfc087b8:	8fc20014 	lw	v0,20(s8)
bfc087bc:	00432021 	addu	a0,v0,v1
bfc087c0:	8fc20024 	lw	v0,36(s8)
bfc087c4:	00021880 	sll	v1,v0,0x2
bfc087c8:	8fc200c4 	lw	v0,196(s8)
bfc087cc:	00431021 	addu	v0,v0,v1
bfc087d0:	8c420000 	lw	v0,0(v0)
bfc087d4:	ac820000 	sw	v0,0(a0)
bfc087d8:	8fc20024 	lw	v0,36(s8)
bfc087dc:	24420001 	addiu	v0,v0,1
bfc087e0:	afc20024 	sw	v0,36(s8)
bfc087e4:	0bf02205 	j	bfc08814 <Flash_Write+0x160>
bfc087e8:	00000000 	nop
D:\loongson\projects\ls1d_ucos\devices/flash.c:50
			else
				page_data[i] = old_data[i];
bfc087ec:	8fc20028 	lw	v0,40(s8)
bfc087f0:	00021880 	sll	v1,v0,0x2
bfc087f4:	8fc20014 	lw	v0,20(s8)
bfc087f8:	00432021 	addu	a0,v0,v1
bfc087fc:	8fc20028 	lw	v0,40(s8)
bfc08800:	00021080 	sll	v0,v0,0x2
bfc08804:	27c30010 	addiu	v1,s8,16
bfc08808:	00621021 	addu	v0,v1,v0
bfc0880c:	8c42001c 	lw	v0,28(v0)
bfc08810:	ac820000 	sw	v0,0(a0)
D:\loongson\projects\ls1d_ucos\devices/flash.c:45
		//debug("Page_latch is clean now...\n")

		_u32 *page_data = (_u32 *)(write_addr & ~flash_block_mask) ;

		offset = ((write_addr & flash_block_mask)>>2);  //页内字偏移
		for(i=0; i<(FLASH_PAGE_SIZE/4); i++)
bfc08814:	8fc20028 	lw	v0,40(s8)
bfc08818:	24420001 	addiu	v0,v0,1
bfc0881c:	afc20028 	sw	v0,40(s8)
bfc08820:	8fc20028 	lw	v0,40(s8)
bfc08824:	2c420020 	sltiu	v0,v0,32
bfc08828:	1440ffd7 	bnez	v0,bfc08788 <Flash_Write+0xd4>
bfc0882c:	00000000 	nop
D:\loongson\projects\ls1d_ucos\devices/flash.c:54
			else
				page_data[i] = old_data[i];
		}

		_u32 err;
		err = Flash_Erase_page(write_addr);
bfc08830:	8fc4001c 	lw	a0,28(s8)
bfc08834:	0ff02180 	jal	bfc08600 <Flash_Erase_page>
bfc08838:	00000000 	nop
bfc0883c:	afc20010 	sw	v0,16(s8)
D:\loongson\projects\ls1d_ucos\devices/flash.c:57
		/*wait interrupt ? */
		/*Flash page is clean now*/
		if(err)
bfc08840:	8fc20010 	lw	v0,16(s8)
bfc08844:	10400005 	beqz	v0,bfc0885c <Flash_Write+0x1a8>
bfc08848:	00000000 	nop
D:\loongson\projects\ls1d_ucos\devices/flash.c:58
			return 1;
bfc0884c:	24020001 	li	v0,1
bfc08850:	afc200b0 	sw	v0,176(s8)
bfc08854:	0bf0222d 	j	bfc088b4 <Flash_Write+0x200>
bfc08858:	00000000 	nop
D:\loongson\projects\ls1d_ucos\devices/flash.c:60

		FLASH_PEctrl_REG = 0x2;  // write time, 2.5ms
bfc0885c:	3c02bfe6 	lui	v0,0xbfe6
bfc08860:	34430024 	ori	v1,v0,0x24
bfc08864:	24020002 	li	v0,2
bfc08868:	ac620000 	sw	v0,0(v1)
D:\loongson\projects\ls1d_ucos\devices/flash.c:61
		FLASH_CMD_REG = FLASH_Command_prog_page | (write_addr & FLASH_Command_Daddr_MASK) ;
bfc0886c:	3c04bfe6 	lui	a0,0xbfe6
bfc08870:	8fc2001c 	lw	v0,28(s8)
bfc08874:	3043ffff 	andi	v1,v0,0xffff
bfc08878:	3c02e000 	lui	v0,0xe000
bfc0887c:	00621025 	or	v0,v1,v0
bfc08880:	ac820000 	sw	v0,0(a0)
D:\loongson\projects\ls1d_ucos\devices/flash.c:65
		/*wait interrupt ? */
		/*Flash page write is finish*/

		write_addr = (write_addr & ~flash_block_mask) + FLASH_PAGE_SIZE;  //待写数据超过当前页, 则继续写下一页
bfc08884:	8fc20018 	lw	v0,24(s8)
bfc08888:	00021827 	nor	v1,zero,v0
bfc0888c:	8fc2001c 	lw	v0,28(s8)
bfc08890:	00621024 	and	v0,v1,v0
bfc08894:	24420080 	addiu	v0,v0,128
bfc08898:	afc2001c 	sw	v0,28(s8)
D:\loongson\projects\ls1d_ucos\devices/flash.c:33
	j = 0;
	write_addr = addr;
	_u32 flash_block_mask = FLASH_PAGE_SIZE - 1;
	_u32 old_data[FLASH_PAGE_SIZE/4];

	while(j<num)
bfc0889c:	8fc20024 	lw	v0,36(s8)
bfc088a0:	8fc300c8 	lw	v1,200(s8)
bfc088a4:	0043102b 	sltu	v0,v0,v1
bfc088a8:	1440ff90 	bnez	v0,bfc086ec <Flash_Write+0x38>
bfc088ac:	00000000 	nop
D:\loongson\projects\ls1d_ucos\devices/flash.c:67
		/*wait interrupt ? */
		/*Flash page write is finish*/

		write_addr = (write_addr & ~flash_block_mask) + FLASH_PAGE_SIZE;  //待写数据超过当前页, 则继续写下一页
	}
	return 0;
bfc088b0:	afc000b0 	sw	zero,176(s8)
bfc088b4:	8fc200b0 	lw	v0,176(s8)
D:\loongson\projects\ls1d_ucos\devices/flash.c:68
}
bfc088b8:	03c0e821 	move	sp,s8
bfc088bc:	8fbf00bc 	lw	ra,188(sp)
bfc088c0:	8fbe00b8 	lw	s8,184(sp)
bfc088c4:	27bd00c0 	addiu	sp,sp,192
bfc088c8:	03e00008 	jr	ra
bfc088cc:	00000000 	nop

bfc088d0 <MonthlySave>:
MonthlySave():
D:\loongson\projects\ls1d_ucos\devices/flash.c:75
//_u32 Flash_Write(_u32 addr, _u32 *data, _u32 num)
//RecodrFlashTbl
// MonthlySaveIndex
/**处理月结数据 */
void	MonthlySave(void)
{
bfc088d0:	27bdffd8 	addiu	sp,sp,-40
bfc088d4:	afbf0024 	sw	ra,36(sp)
bfc088d8:	afbe0020 	sw	s8,32(sp)
bfc088dc:	03a0f021 	move	s8,sp
D:\loongson\projects\ls1d_ucos\devices/flash.c:82

	/*temp.heat	= AccumHeat;
	temp.flux	= InteFlux;
	temp.month	= month;
	temp.year	= year;*/
	temp.heat	= 13.4571f;
bfc088e0:	3c02bfc1 	lui	v0,0xbfc1
bfc088e4:	c4409ad0 	lwc1	$f0,-25904(v0)
bfc088e8:	e7c00014 	swc1	$f0,20(s8)
D:\loongson\projects\ls1d_ucos\devices/flash.c:83
	temp.flux	= 4513.4f;
bfc088ec:	3c02bfc1 	lui	v0,0xbfc1
bfc088f0:	c4409ad4 	lwc1	$f0,-25900(v0)
bfc088f4:	e7c00018 	swc1	$f0,24(s8)
D:\loongson\projects\ls1d_ucos\devices/flash.c:84
	temp.month	= 6;
bfc088f8:	24020006 	li	v0,6
bfc088fc:	a3c20011 	sb	v0,17(s8)
D:\loongson\projects\ls1d_ucos\devices/flash.c:85
	temp.year	= 14;
bfc08900:	2402000e 	li	v0,14
bfc08904:	a3c20010 	sb	v0,16(s8)
D:\loongson\projects\ls1d_ucos\devices/flash.c:86
	Flash_Write((_u32)&RecodrFlashTbl[MonthlySaveIndex],(_u32 *)&temp,sizeof(RecordInfo));
bfc08908:	3c02a000 	lui	v0,0xa000
bfc0890c:	9042107c 	lbu	v0,4220(v0)
bfc08910:	00021880 	sll	v1,v0,0x2
bfc08914:	00031080 	sll	v0,v1,0x2
bfc08918:	00431823 	subu	v1,v0,v1
bfc0891c:	3c02bfc0 	lui	v0,0xbfc0
bfc08920:	3442f800 	ori	v0,v0,0xf800
bfc08924:	00621021 	addu	v0,v1,v0
bfc08928:	27c30010 	addiu	v1,s8,16
bfc0892c:	00402021 	move	a0,v0
bfc08930:	00602821 	move	a1,v1
bfc08934:	2406000c 	li	a2,12
bfc08938:	0ff021ad 	jal	bfc086b4 <Flash_Write>
bfc0893c:	00000000 	nop
D:\loongson\projects\ls1d_ucos\devices/flash.c:87
	MonthlySaveIndex	++;
bfc08940:	3c02a000 	lui	v0,0xa000
bfc08944:	9042107c 	lbu	v0,4220(v0)
bfc08948:	24420001 	addiu	v0,v0,1
bfc0894c:	304300ff 	andi	v1,v0,0xff
bfc08950:	3c02a000 	lui	v0,0xa000
bfc08954:	a043107c 	sb	v1,4220(v0)
D:\loongson\projects\ls1d_ucos\devices/flash.c:88
	if(MonthlySaveIndex >= 18)
bfc08958:	3c02a000 	lui	v0,0xa000
bfc0895c:	9042107c 	lbu	v0,4220(v0)
bfc08960:	2c420012 	sltiu	v0,v0,18
bfc08964:	14400003 	bnez	v0,bfc08974 <MonthlySave+0xa4>
bfc08968:	00000000 	nop
D:\loongson\projects\ls1d_ucos\devices/flash.c:89
		MonthlySaveIndex	= 0;
bfc0896c:	3c02a000 	lui	v0,0xa000
bfc08970:	a040107c 	sb	zero,4220(v0)
D:\loongson\projects\ls1d_ucos\devices/flash.c:90
}
bfc08974:	03c0e821 	move	sp,s8
bfc08978:	8fbf0024 	lw	ra,36(sp)
bfc0897c:	8fbe0020 	lw	s8,32(sp)
bfc08980:	27bd0028 	addiu	sp,sp,40
bfc08984:	03e00008 	jr	ra
bfc08988:	00000000 	nop
bfc0898c:	00000000 	nop

bfc08990 <ChkWakeUp>:
ChkWakeUp():
D:\loongson\projects\ls1d_ucos\devices/waker.c:7
#include "device.h"


/**	在  OSInit 之前调用 ！  **/
INT32U  ChkWakeUp(void)
{
bfc08990:	27bdffe8 	addiu	sp,sp,-24
bfc08994:	afbe0014 	sw	s8,20(sp)
bfc08998:	03a0f021 	move	s8,sp
D:\loongson\projects\ls1d_ucos\devices/waker.c:9
	INT32U count;
	if(!(PMU_ChipCtrl & 0xf8000000))			//// 系统启动 非唤醒！！
bfc0899c:	3c02bfeb 	lui	v0,0xbfeb
bfc089a0:	3442000c 	ori	v0,v0,0xc
bfc089a4:	8c430000 	lw	v1,0(v0)
bfc089a8:	3c02f800 	lui	v0,0xf800
bfc089ac:	00621024 	and	v0,v1,v0
bfc089b0:	14400016 	bnez	v0,bfc08a0c <ChkWakeUp+0x7c>
bfc089b4:	00000000 	nop
D:\loongson\projects\ls1d_ucos\devices/waker.c:11
	{
		CASE_SET(POWERUP);
bfc089b8:	3c02a000 	lui	v0,0xa000
bfc089bc:	8c4210b0 	lw	v0,4272(v0)
bfc089c0:	34430002 	ori	v1,v0,0x2
bfc089c4:	3c02a000 	lui	v0,0xa000
bfc089c8:	ac4310b0 	sw	v1,4272(v0)
D:\loongson\projects\ls1d_ucos\devices/waker.c:12
		PMU_SecToken = PMU_SecToken_chipctrl;
bfc089cc:	3c02bfeb 	lui	v0,0xbfeb
bfc089d0:	3443007c 	ori	v1,v0,0x7c
bfc089d4:	3c0215da 	lui	v0,0x15da
bfc089d8:	3442ed27 	ori	v0,v0,0xed27
bfc089dc:	ac620000 	sw	v0,0(v1)
D:\loongson\projects\ls1d_ucos\devices/waker.c:13
		PMU_ChipCtrl |= 0xf8000000;
bfc089e0:	3c02bfeb 	lui	v0,0xbfeb
bfc089e4:	3444000c 	ori	a0,v0,0xc
bfc089e8:	3c02bfeb 	lui	v0,0xbfeb
bfc089ec:	3442000c 	ori	v0,v0,0xc
bfc089f0:	8c430000 	lw	v1,0(v0)
bfc089f4:	3c02f800 	lui	v0,0xf800
bfc089f8:	00621025 	or	v0,v1,v0
bfc089fc:	ac820000 	sw	v0,0(a0)
D:\loongson\projects\ls1d_ucos\devices/waker.c:14
		return 0;
bfc08a00:	afc00008 	sw	zero,8(s8)
bfc08a04:	0bf02293 	j	bfc08a4c <ChkWakeUp+0xbc>
bfc08a08:	00000000 	nop
D:\loongson\projects\ls1d_ucos\devices/waker.c:16
	}else{										/// 系统被唤醒的
		count 		= PMU_Count;						/// 时间计数器，每 1/16 秒加  1
bfc08a0c:	3c02bfeb 	lui	v0,0xbfeb
bfc08a10:	3442001c 	ori	v0,v0,0x1c
bfc08a14:	8c420000 	lw	v0,0(v0)
bfc08a18:	afc20000 	sw	v0,0(s8)
D:\loongson\projects\ls1d_ucos\devices/waker.c:17
		count 		&= PMU_Count_RTC_MASK;
bfc08a1c:	8fc30000 	lw	v1,0(s8)
bfc08a20:	3c02000f 	lui	v0,0xf
bfc08a24:	3442ffff 	ori	v0,v0,0xffff
bfc08a28:	00621024 	and	v0,v1,v0
bfc08a2c:	afc20000 	sw	v0,0(s8)
D:\loongson\projects\ls1d_ucos\devices/waker.c:18
		CASE_SET(UNKNOWN);
bfc08a30:	3c02a000 	lui	v0,0xa000
bfc08a34:	8c4210b0 	lw	v0,4272(v0)
bfc08a38:	34430001 	ori	v1,v0,0x1
bfc08a3c:	3c02a000 	lui	v0,0xa000
bfc08a40:	ac4310b0 	sw	v1,4272(v0)
D:\loongson\projects\ls1d_ucos\devices/waker.c:19
		return count;
bfc08a44:	8fc20000 	lw	v0,0(s8)
bfc08a48:	afc20008 	sw	v0,8(s8)
bfc08a4c:	8fc20008 	lw	v0,8(s8)
D:\loongson\projects\ls1d_ucos\devices/waker.c:21
	}
}
bfc08a50:	03c0e821 	move	sp,s8
bfc08a54:	8fbe0014 	lw	s8,20(sp)
bfc08a58:	27bd0018 	addiu	sp,sp,24
bfc08a5c:	03e00008 	jr	ra
bfc08a60:	00000000 	nop

bfc08a64 <WakeWaitInt>:
WakeWaitInt():
D:\loongson\projects\ls1d_ucos\devices/waker.c:31
 * 系统休眠的并被唤醒的时候需要触发一次中断，在这个函数里面等待中断完成，
 * 调用 OSInit 之后立即调用这个函数，此时status寄存器  在被唤醒之后没有什么修改
 * timer 的mask还未置位，IE位还为0.
 * *************************************/
void	WakeWaitInt()
{
bfc08a64:	27bdfff8 	addiu	sp,sp,-8
bfc08a68:	afbe0004 	sw	s8,4(sp)
bfc08a6c:	03a0f021 	move	s8,sp
D:\loongson\projects\ls1d_ucos\devices/waker.c:32
	if(CASE_ISSET(POWERUP)){
bfc08a70:	3c02a000 	lui	v0,0xa000
bfc08a74:	8c4210b0 	lw	v0,4272(v0)
bfc08a78:	30420002 	andi	v0,v0,0x2
bfc08a7c:	14400012 	bnez	v0,bfc08ac8 <WakeWaitInt+0x64>
bfc08a80:	00000000 	nop
D:\loongson\projects\ls1d_ucos\devices/waker.c:34
		 ;
	}else if(CASE_ISSET(UNKNOWN)){
bfc08a84:	3c02a000 	lui	v0,0xa000
bfc08a88:	8c4210b0 	lw	v0,4272(v0)
bfc08a8c:	30420001 	andi	v0,v0,0x1
bfc08a90:	304200ff 	andi	v0,v0,0xff
bfc08a94:	1040000c 	beqz	v0,bfc08ac8 <WakeWaitInt+0x64>
bfc08a98:	00000000 	nop
D:\loongson\projects\ls1d_ucos\devices/waker.c:35
		WAKEINT_ENABLE;							/// 使能 IE ,wake ,key ,res  的 mask 位.  切记不可使能timer 的mask位!!
bfc08a9c:	40086000 	mfc0	t0,c0_status
bfc08aa0:	3c09ffff 	lui	t1,0xffff
bfc08aa4:	352900fe 	ori	t1,t1,0xfe
bfc08aa8:	01095024 	and	t2,t0,t1
bfc08aac:	24092c01 	li	t1,11265
bfc08ab0:	01494025 	or	t0,t2,t1
bfc08ab4:	40886000 	mtc0	t0,c0_status
D:\loongson\projects\ls1d_ucos\devices/waker.c:37
												/// 刚刚使能上面的 中断位，中断会立即产生。
		WAKEINT_DISABLE;							/// 禁止 IE ,wake ,key ,res  的 mask 位
bfc08ab8:	40086000 	mfc0	t0,c0_status
bfc08abc:	2409d3fe 	li	t1,-11266
bfc08ac0:	01095024 	and	t2,t0,t1
bfc08ac4:	408a6000 	mtc0	t2,c0_status
D:\loongson\projects\ls1d_ucos\devices/waker.c:39
	}
}
bfc08ac8:	03c0e821 	move	sp,s8
bfc08acc:	8fbe0004 	lw	s8,4(sp)
bfc08ad0:	03e00008 	jr	ra
bfc08ad4:	27bd0008 	addiu	sp,sp,8

bfc08ad8 <InitWaker>:
InitWaker():
D:\loongson\projects\ls1d_ucos\devices/waker.c:48
 * 等待 唤醒的中断 产生之后才能继续往前走  比如说  key_int 或者 wake_int，因为要涉及到关中断
 * 如果继续往前走可能会因为  OS_ENTER_CRITICAL 导致 中断  丢失。
 * 现在处于任务上下文中，这里不会因为循环丢失 timer 中断！
*****************************************************/
INT8U InitWaker()
{
bfc08ad8:	27bdffd8 	addiu	sp,sp,-40
bfc08adc:	afbf0024 	sw	ra,36(sp)
bfc08ae0:	afbe0020 	sw	s8,32(sp)
bfc08ae4:	03a0f021 	move	s8,sp
D:\loongson\projects\ls1d_ucos\devices/waker.c:51
    OS_CPU_SR  cpu_sr;

    SleepEn	= 4;
bfc08ae8:	3c03a000 	lui	v1,0xa000
bfc08aec:	24020004 	li	v0,4
bfc08af0:	a0621099 	sb	v0,4249(v1)
D:\loongson\projects\ls1d_ucos\devices/waker.c:52
	if(CASE_ISSET(POWERUP) )					//// 系统启动 非唤醒！！
bfc08af4:	3c02a000 	lui	v0,0xa000
bfc08af8:	8c4210b0 	lw	v0,4272(v0)
bfc08afc:	30420002 	andi	v0,v0,0x2
bfc08b00:	10400035 	beqz	v0,bfc08bd8 <InitWaker+0x100>
bfc08b04:	00000000 	nop
D:\loongson\projects\ls1d_ucos\devices/waker.c:54
	{
		SampingMode	= USER;
bfc08b08:	3c02a000 	lui	v0,0xa000
bfc08b0c:	ac401044 	sw	zero,4164(v0)
D:\loongson\projects\ls1d_ucos\devices/waker.c:55
		MajorMenu	= 1;
bfc08b10:	3c03a000 	lui	v1,0xa000
bfc08b14:	24020001 	li	v0,1
bfc08b18:	a0621084 	sb	v0,4228(v1)
D:\loongson\projects\ls1d_ucos\devices/waker.c:56
		MinorMenu	= 0;
bfc08b1c:	3c02a000 	lui	v0,0xa000
bfc08b20:	a0401061 	sb	zero,4193(v0)
D:\loongson\projects\ls1d_ucos\devices/waker.c:58
		//InitTimeDate();
		OS_ENTER_CRITICAL();
bfc08b24:	3c02bfc0 	lui	v0,0xbfc0
bfc08b28:	245973f0 	addiu	t9,v0,29680
bfc08b2c:	0320f809 	jalr	t9
bfc08b30:	00000000 	nop
bfc08b34:	afc20010 	sw	v0,16(s8)
D:\loongson\projects\ls1d_ucos\devices/waker.c:60
#if OS_TIME_GET_SET_EN > 0
		OSTime        = 0L;						/// 这是一个全局的时钟
bfc08b38:	3c02a000 	lui	v0,0xa000
bfc08b3c:	ac4010a8 	sw	zero,4264(v0)
D:\loongson\projects\ls1d_ucos\devices/waker.c:62
#endif
		PMU_SecToken = PMU_SecToken_command;
bfc08b40:	3c02bfeb 	lui	v0,0xbfeb
bfc08b44:	3443007c 	ori	v1,v0,0x7c
bfc08b48:	3c02cf21 	lui	v0,0xcf21
bfc08b4c:	34426e95 	ori	v0,v0,0x6e95
bfc08b50:	ac620000 	sw	v0,0(v1)
D:\loongson\projects\ls1d_ucos\devices/waker.c:63
		PMU_Command |= 0x1100;					/// 打开定时唤醒，使能 e_Wake 中断
bfc08b54:	3c02bfeb 	lui	v0,0xbfeb
bfc08b58:	34430004 	ori	v1,v0,0x4
bfc08b5c:	3c02bfeb 	lui	v0,0xbfeb
bfc08b60:	34420004 	ori	v0,v0,0x4
bfc08b64:	8c420000 	lw	v0,0(v0)
bfc08b68:	34421100 	ori	v0,v0,0x1100
bfc08b6c:	ac620000 	sw	v0,0(v1)
D:\loongson\projects\ls1d_ucos\devices/waker.c:64
		ls1d_key_init();
bfc08b70:	3c02bfc1 	lui	v0,0xbfc1
bfc08b74:	24599690 	addiu	t9,v0,-26992
bfc08b78:	0320f809 	jalr	t9
bfc08b7c:	00000000 	nop
D:\loongson\projects\ls1d_ucos\devices/waker.c:65
		OS_EXIT_CRITICAL();
bfc08b80:	8fc40010 	lw	a0,16(s8)
bfc08b84:	3c02bfc0 	lui	v0,0xbfc0
bfc08b88:	24597408 	addiu	t9,v0,29704
bfc08b8c:	0320f809 	jalr	t9
bfc08b90:	00000000 	nop
D:\loongson\projects\ls1d_ucos\devices/waker.c:66
		InitTdc();
bfc08b94:	3c02bfc1 	lui	v0,0xbfc1
bfc08b98:	24598320 	addiu	t9,v0,-31968
bfc08b9c:	0320f809 	jalr	t9
bfc08ba0:	00000000 	nop
D:\loongson\projects\ls1d_ucos\devices/waker.c:67
		SelectTdc(S_TDC);
bfc08ba4:	24040002 	li	a0,2
bfc08ba8:	3c02bfc1 	lui	v0,0xbfc1
bfc08bac:	24598444 	addiu	t9,v0,-31676
bfc08bb0:	0320f809 	jalr	t9
bfc08bb4:	00000000 	nop
D:\loongson\projects\ls1d_ucos\devices/waker.c:68
		puts("power\n");
bfc08bb8:	3c02bfc1 	lui	v0,0xbfc1
bfc08bbc:	24449ae0 	addiu	a0,v0,-25888
bfc08bc0:	3c02bfc1 	lui	v0,0xbfc1
bfc08bc4:	24599390 	addiu	t9,v0,-27760
bfc08bc8:	0320f809 	jalr	t9
bfc08bcc:	00000000 	nop
bfc08bd0:	0bf02343 	j	bfc08d0c <InitWaker+0x234>
bfc08bd4:	00000000 	nop
D:\loongson\projects\ls1d_ucos\devices/waker.c:70
	}else {										/// 系统被唤醒的
		if(CASE_ISSET(PMUWAKE)){
bfc08bd8:	3c02a000 	lui	v0,0xa000
bfc08bdc:	8c4210b0 	lw	v0,4272(v0)
bfc08be0:	30420004 	andi	v0,v0,0x4
bfc08be4:	10400007 	beqz	v0,bfc08c04 <InitWaker+0x12c>
bfc08be8:	00000000 	nop
D:\loongson\projects\ls1d_ucos\devices/waker.c:71
			puts("pmu\n");
bfc08bec:	3c02bfc1 	lui	v0,0xbfc1
bfc08bf0:	24449ae8 	addiu	a0,v0,-25880
bfc08bf4:	3c02bfc1 	lui	v0,0xbfc1
bfc08bf8:	24599390 	addiu	t9,v0,-27760
bfc08bfc:	0320f809 	jalr	t9
bfc08c00:	00000000 	nop
D:\loongson\projects\ls1d_ucos\devices/waker.c:73
		}
		if(CASE_ISSET(KEYWAKE) ){				///这里  status寄存器并没有 打开 key 中断
bfc08c04:	3c02a000 	lui	v0,0xa000
bfc08c08:	8c4210b0 	lw	v0,4272(v0)
bfc08c0c:	30420008 	andi	v0,v0,0x8
bfc08c10:	10400010 	beqz	v0,bfc08c54 <InitWaker+0x17c>
bfc08c14:	00000000 	nop
D:\loongson\projects\ls1d_ucos\devices/waker.c:74
			OSMboxPost(pGMboxKey,&MboxKey);
bfc08c18:	3c02a000 	lui	v0,0xa000
bfc08c1c:	8c4210a4 	lw	v0,4260(v0)
bfc08c20:	00402021 	move	a0,v0
bfc08c24:	3c02a000 	lui	v0,0xa000
bfc08c28:	244510ac 	addiu	a1,v0,4268
bfc08c2c:	3c02bfc0 	lui	v0,0xbfc0
bfc08c30:	24596894 	addiu	t9,v0,26772
bfc08c34:	0320f809 	jalr	t9
bfc08c38:	00000000 	nop
D:\loongson\projects\ls1d_ucos\devices/waker.c:75
			puts("key\n");
bfc08c3c:	3c02bfc1 	lui	v0,0xbfc1
bfc08c40:	24449af0 	addiu	a0,v0,-25872
bfc08c44:	3c02bfc1 	lui	v0,0xbfc1
bfc08c48:	24599390 	addiu	t9,v0,-27760
bfc08c4c:	0320f809 	jalr	t9
bfc08c50:	00000000 	nop
D:\loongson\projects\ls1d_ucos\devices/waker.c:77
		}
		if( CASE_ISSET(TIMEWAKE)  ||  CASE_ISSET(THSENSWAKE) ){
bfc08c54:	3c02a000 	lui	v0,0xa000
bfc08c58:	8c4210b0 	lw	v0,4272(v0)
bfc08c5c:	30420010 	andi	v0,v0,0x10
bfc08c60:	14400006 	bnez	v0,bfc08c7c <InitWaker+0x1a4>
bfc08c64:	00000000 	nop
bfc08c68:	3c02a000 	lui	v0,0xa000
bfc08c6c:	8c4210b0 	lw	v0,4272(v0)
bfc08c70:	30420020 	andi	v0,v0,0x20
bfc08c74:	1040001e 	beqz	v0,bfc08cf0 <InitWaker+0x218>
bfc08c78:	00000000 	nop
D:\loongson\projects\ls1d_ucos\devices/waker.c:78
			OSSemPost(pGSemTdcInt);
bfc08c7c:	3c02a000 	lui	v0,0xa000
bfc08c80:	8c421054 	lw	v0,4180(v0)
bfc08c84:	00402021 	move	a0,v0
bfc08c88:	3c02bfc0 	lui	v0,0xbfc0
bfc08c8c:	24594c4c 	addiu	t9,v0,19532
bfc08c90:	0320f809 	jalr	t9
bfc08c94:	00000000 	nop
D:\loongson\projects\ls1d_ucos\devices/waker.c:79
			if(CASE_ISSET(TIMEWAKE)){
bfc08c98:	3c02a000 	lui	v0,0xa000
bfc08c9c:	8c4210b0 	lw	v0,4272(v0)
bfc08ca0:	30420010 	andi	v0,v0,0x10
bfc08ca4:	10400007 	beqz	v0,bfc08cc4 <InitWaker+0x1ec>
bfc08ca8:	00000000 	nop
D:\loongson\projects\ls1d_ucos\devices/waker.c:80
				puts("res1\n");
bfc08cac:	3c02bfc1 	lui	v0,0xbfc1
bfc08cb0:	24449af8 	addiu	a0,v0,-25864
bfc08cb4:	3c02bfc1 	lui	v0,0xbfc1
bfc08cb8:	24599390 	addiu	t9,v0,-27760
bfc08cbc:	0320f809 	jalr	t9
bfc08cc0:	00000000 	nop
D:\loongson\projects\ls1d_ucos\devices/waker.c:82
			}
			if(CASE_ISSET(THSENSWAKE)){
bfc08cc4:	3c02a000 	lui	v0,0xa000
bfc08cc8:	8c4210b0 	lw	v0,4272(v0)
bfc08ccc:	30420020 	andi	v0,v0,0x20
bfc08cd0:	10400007 	beqz	v0,bfc08cf0 <InitWaker+0x218>
bfc08cd4:	00000000 	nop
D:\loongson\projects\ls1d_ucos\devices/waker.c:83
				puts("res2\n");
bfc08cd8:	3c02bfc1 	lui	v0,0xbfc1
bfc08cdc:	24449b00 	addiu	a0,v0,-25856
bfc08ce0:	3c02bfc1 	lui	v0,0xbfc1
bfc08ce4:	24599390 	addiu	t9,v0,-27760
bfc08ce8:	0320f809 	jalr	t9
bfc08cec:	00000000 	nop
D:\loongson\projects\ls1d_ucos\devices/waker.c:86
			}
		}
		if( CASE_ISSET(PMUWAKE)  && CASE_ISSET(KEYWAKE) ){          /// 应当考虑这种同时唤醒额情况！！ 一般不会引起系统错误！
bfc08cf0:	3c02a000 	lui	v0,0xa000
bfc08cf4:	8c4210b0 	lw	v0,4272(v0)
bfc08cf8:	30420004 	andi	v0,v0,0x4
bfc08cfc:	10400003 	beqz	v0,bfc08d0c <InitWaker+0x234>
bfc08d00:	00000000 	nop
bfc08d04:	3c02a000 	lui	v0,0xa000
bfc08d08:	8c4210b0 	lw	v0,4272(v0)
D:\loongson\projects\ls1d_ucos\devices/waker.c:90
																	/// 这样就把这次唤醒作为 PMUWAKE 了。
		}
	}
	return 0;
bfc08d0c:	00001021 	move	v0,zero
D:\loongson\projects\ls1d_ucos\devices/waker.c:91
}
bfc08d10:	03c0e821 	move	sp,s8
bfc08d14:	8fbf0024 	lw	ra,36(sp)
bfc08d18:	8fbe0020 	lw	s8,32(sp)
bfc08d1c:	27bd0028 	addiu	sp,sp,40
bfc08d20:	03e00008 	jr	ra
bfc08d24:	00000000 	nop

bfc08d28 <WakeCompen>:
WakeCompen():
D:\loongson\projects\ls1d_ucos\devices/waker.c:101
 * 对于当前正处于  ODTimeDly 状态的任务，并不会减少他们的等待时间
 * 这里  OSTime 不是浮点类型,会导致比较大的误差，
 * 因此还需要有一个校正过程
 * */
void	WakeCompen()
{
bfc08d28:	27bdffd0 	addiu	sp,sp,-48
bfc08d2c:	afbf002c 	sw	ra,44(sp)
bfc08d30:	afbe0028 	sw	s8,40(sp)
bfc08d34:	03a0f021 	move	s8,sp
D:\loongson\projects\ls1d_ucos\devices/waker.c:103
	///通过反汇编分析这里进行了 浮点计算！！
	OSTimeSet(OSTimeGet() + (INT32U)(62.5f * 8000 / TIMERDLY * (WakeUpPmuCnt - SleepPmuCnt)));
bfc08d38:	3c02bfc0 	lui	v0,0xbfc0
bfc08d3c:	245964fc 	addiu	t9,v0,25852
bfc08d40:	0320f809 	jalr	t9
bfc08d44:	00000000 	nop
bfc08d48:	afc20020 	sw	v0,32(s8)
bfc08d4c:	3c02a000 	lui	v0,0xa000
bfc08d50:	8c431038 	lw	v1,4152(v0)
bfc08d54:	3c02a000 	lui	v0,0xa000
bfc08d58:	8c421014 	lw	v0,4116(v0)
bfc08d5c:	00621823 	subu	v1,v1,v0
bfc08d60:	afc3001c 	sw	v1,28(s8)
bfc08d64:	8fc2001c 	lw	v0,28(s8)
bfc08d68:	04400006 	bltz	v0,bfc08d84 <WakeCompen+0x5c>
bfc08d6c:	00000000 	nop
bfc08d70:	c7c0001c 	lwc1	$f0,28(s8)
bfc08d74:	46800020 	cvt.s.w	$f0,$f0
bfc08d78:	e7c00018 	swc1	$f0,24(s8)
bfc08d7c:	0bf0236d 	j	bfc08db4 <WakeCompen+0x8c>
bfc08d80:	00000000 	nop
bfc08d84:	8fc3001c 	lw	v1,28(s8)
bfc08d88:	30620001 	andi	v0,v1,0x1
bfc08d8c:	8fc4001c 	lw	a0,28(s8)
bfc08d90:	00041842 	srl	v1,a0,0x1
bfc08d94:	00431025 	or	v0,v0,v1
bfc08d98:	44820000 	mtc1	v0,$f0
bfc08d9c:	46800020 	cvt.s.w	$f0,$f0
bfc08da0:	e7c00018 	swc1	$f0,24(s8)
bfc08da4:	c7c10018 	lwc1	$f1,24(s8)
bfc08da8:	c7c20018 	lwc1	$f2,24(s8)
bfc08dac:	46020840 	add.s	$f1,$f1,$f2
bfc08db0:	e7c10018 	swc1	$f1,24(s8)
bfc08db4:	3c02bfc1 	lui	v0,0xbfc1
bfc08db8:	c4409b08 	lwc1	$f0,-25848(v0)
bfc08dbc:	c7c10018 	lwc1	$f1,24(s8)
bfc08dc0:	46000802 	mul.s	$f0,$f1,$f0
bfc08dc4:	e7c00014 	swc1	$f0,20(s8)
bfc08dc8:	3c02bfc1 	lui	v0,0xbfc1
bfc08dcc:	c4429b0c 	lwc1	$f2,-25844(v0)
bfc08dd0:	e7c20024 	swc1	$f2,36(s8)
bfc08dd4:	c7c00014 	lwc1	$f0,20(s8)
bfc08dd8:	c7c10024 	lwc1	$f1,36(s8)
bfc08ddc:	4600083e 	c.le.s	$f1,$f0
bfc08de0:	45010006 	bc1t	bfc08dfc <WakeCompen+0xd4>
bfc08de4:	00000000 	nop
bfc08de8:	c7c20014 	lwc1	$f2,20(s8)
bfc08dec:	4600108d 	trunc.w.s	$f2,$f2
bfc08df0:	e7c20010 	swc1	$f2,16(s8)
bfc08df4:	0bf02388 	j	bfc08e20 <WakeCompen+0xf8>
bfc08df8:	00000000 	nop
bfc08dfc:	c7c10014 	lwc1	$f1,20(s8)
bfc08e00:	c7c20024 	lwc1	$f2,36(s8)
bfc08e04:	46020801 	sub.s	$f0,$f1,$f2
bfc08e08:	3c028000 	lui	v0,0x8000
bfc08e0c:	4600000d 	trunc.w.s	$f0,$f0
bfc08e10:	e7c00010 	swc1	$f0,16(s8)
bfc08e14:	8fc30010 	lw	v1,16(s8)
bfc08e18:	00621825 	or	v1,v1,v0
bfc08e1c:	afc30010 	sw	v1,16(s8)
bfc08e20:	8fc40020 	lw	a0,32(s8)
bfc08e24:	8fc30010 	lw	v1,16(s8)
bfc08e28:	00831021 	addu	v0,a0,v1
bfc08e2c:	00402021 	move	a0,v0
bfc08e30:	3c02bfc0 	lui	v0,0xbfc0
bfc08e34:	2459655c 	addiu	t9,v0,25948
bfc08e38:	0320f809 	jalr	t9
bfc08e3c:	00000000 	nop
D:\loongson\projects\ls1d_ucos\devices/waker.c:104
}
bfc08e40:	03c0e821 	move	sp,s8
bfc08e44:	8fbf002c 	lw	ra,44(sp)
bfc08e48:	8fbe0028 	lw	s8,40(sp)
bfc08e4c:	27bd0030 	addiu	sp,sp,48
bfc08e50:	03e00008 	jr	ra
bfc08e54:	00000000 	nop

bfc08e58 <SetPDTime>:
SetPDTime():
D:\loongson\projects\ls1d_ucos\devices/waker.c:108

/// 在临界区调用的 的！
INT32U	SetPDTime(INT32U PDTime)
{
bfc08e58:	27bdfff0 	addiu	sp,sp,-16
bfc08e5c:	afbe000c 	sw	s8,12(sp)
bfc08e60:	03a0f021 	move	s8,sp
bfc08e64:	afc40010 	sw	a0,16(s8)
D:\loongson\projects\ls1d_ucos\devices/waker.c:110
	INT32U count;
	count = PMU_Count;				/// 时间计数器，每 1/16 秒加  1
bfc08e68:	3c02bfeb 	lui	v0,0xbfeb
bfc08e6c:	3442001c 	ori	v0,v0,0x1c
bfc08e70:	8c420000 	lw	v0,0(v0)
bfc08e74:	afc20000 	sw	v0,0(s8)
D:\loongson\projects\ls1d_ucos\devices/waker.c:111
	count &= PMU_Count_RTC_MASK;
bfc08e78:	8fc30000 	lw	v1,0(s8)
bfc08e7c:	3c02000f 	lui	v0,0xf
bfc08e80:	3442ffff 	ori	v0,v0,0xffff
bfc08e84:	00621024 	and	v0,v1,v0
bfc08e88:	afc20000 	sw	v0,0(s8)
D:\loongson\projects\ls1d_ucos\devices/waker.c:112
	PMU_Compare = count + PDTime;  	/* 每 1s 产生一个BT中断  PDTime = PowerDownTime */
bfc08e8c:	3c02bfeb 	lui	v0,0xbfeb
bfc08e90:	34440008 	ori	a0,v0,0x8
bfc08e94:	8fc30000 	lw	v1,0(s8)
bfc08e98:	8fc20010 	lw	v0,16(s8)
bfc08e9c:	00621021 	addu	v0,v1,v0
bfc08ea0:	ac820000 	sw	v0,0(a0)
D:\loongson\projects\ls1d_ucos\devices/waker.c:113
	return count;
bfc08ea4:	8fc20000 	lw	v0,0(s8)
D:\loongson\projects\ls1d_ucos\devices/waker.c:114
}
bfc08ea8:	03c0e821 	move	sp,s8
bfc08eac:	8fbe000c 	lw	s8,12(sp)
bfc08eb0:	27bd0010 	addiu	sp,sp,16
bfc08eb4:	03e00008 	jr	ra
bfc08eb8:	00000000 	nop

bfc08ebc <CpuSleep>:
CpuSleep():
D:\loongson\projects\ls1d_ucos\devices/waker.c:118

/// 在临界区调用的 的！
void  CpuSleep()
{
bfc08ebc:	27bdfff8 	addiu	sp,sp,-8
bfc08ec0:	afbe0004 	sw	s8,4(sp)
bfc08ec4:	03a0f021 	move	s8,sp
D:\loongson\projects\ls1d_ucos\devices/waker.c:119
	SleepPmuCnt		= PMU_Count;
bfc08ec8:	3c02bfeb 	lui	v0,0xbfeb
bfc08ecc:	3442001c 	ori	v0,v0,0x1c
bfc08ed0:	8c430000 	lw	v1,0(v0)
bfc08ed4:	3c02a000 	lui	v0,0xa000
bfc08ed8:	ac431014 	sw	v1,4116(v0)
D:\loongson\projects\ls1d_ucos\devices/waker.c:120
	SleepPmuCnt		&= PMU_Count_RTC_MASK;
bfc08edc:	3c02a000 	lui	v0,0xa000
bfc08ee0:	8c431014 	lw	v1,4116(v0)
bfc08ee4:	3c02000f 	lui	v0,0xf
bfc08ee8:	3442ffff 	ori	v0,v0,0xffff
bfc08eec:	00621824 	and	v1,v1,v0
bfc08ef0:	3c02a000 	lui	v0,0xa000
bfc08ef4:	ac431014 	sw	v1,4116(v0)
D:\loongson\projects\ls1d_ucos\devices/waker.c:121
	CASE_ZERO();
bfc08ef8:	3c02a000 	lui	v0,0xa000
bfc08efc:	ac4010b0 	sw	zero,4272(v0)
D:\loongson\projects\ls1d_ucos\devices/waker.c:123

	PMU_SecToken = PMU_SecToken_command;
bfc08f00:	3c02bfeb 	lui	v0,0xbfeb
bfc08f04:	3443007c 	ori	v1,v0,0x7c
bfc08f08:	3c02cf21 	lui	v0,0xcf21
bfc08f0c:	34426e95 	ori	v0,v0,0x6e95
bfc08f10:	ac620000 	sw	v0,0(v1)
D:\loongson\projects\ls1d_ucos\devices/waker.c:124
	PMU_CommandW = 0x1;  					//cpu power down
bfc08f14:	3c02bfeb 	lui	v0,0xbfeb
bfc08f18:	3443003c 	ori	v1,v0,0x3c
bfc08f1c:	24020001 	li	v0,1
bfc08f20:	ac620000 	sw	v0,0(v1)
D:\loongson\projects\ls1d_ucos\devices/waker.c:125
}
bfc08f24:	03c0e821 	move	sp,s8
bfc08f28:	8fbe0004 	lw	s8,4(sp)
bfc08f2c:	27bd0008 	addiu	sp,sp,8
bfc08f30:	03e00008 	jr	ra
bfc08f34:	00000000 	nop

bfc08f38 <EnSleep>:
EnSleep():
D:\loongson\projects\ls1d_ucos\devices/waker.c:129


void	EnSleep()
{
bfc08f38:	27bdffe0 	addiu	sp,sp,-32
bfc08f3c:	afbf001c 	sw	ra,28(sp)
bfc08f40:	afbe0018 	sw	s8,24(sp)
bfc08f44:	03a0f021 	move	s8,sp
D:\loongson\projects\ls1d_ucos\devices/waker.c:132
    OS_CPU_SR  cpu_sr;

	OS_ENTER_CRITICAL();
bfc08f48:	3c02bfc0 	lui	v0,0xbfc0
bfc08f4c:	245973f0 	addiu	t9,v0,29680
bfc08f50:	0320f809 	jalr	t9
bfc08f54:	00000000 	nop
bfc08f58:	afc20010 	sw	v0,16(s8)
D:\loongson\projects\ls1d_ucos\devices/waker.c:133
	SleepEn ++;
bfc08f5c:	3c02a000 	lui	v0,0xa000
bfc08f60:	90421099 	lbu	v0,4249(v0)
bfc08f64:	304200ff 	andi	v0,v0,0xff
bfc08f68:	24420001 	addiu	v0,v0,1
bfc08f6c:	304300ff 	andi	v1,v0,0xff
bfc08f70:	3c02a000 	lui	v0,0xa000
bfc08f74:	a0431099 	sb	v1,4249(v0)
D:\loongson\projects\ls1d_ucos\devices/waker.c:134
	OS_EXIT_CRITICAL();
bfc08f78:	8fc40010 	lw	a0,16(s8)
bfc08f7c:	3c02bfc0 	lui	v0,0xbfc0
bfc08f80:	24597408 	addiu	t9,v0,29704
bfc08f84:	0320f809 	jalr	t9
bfc08f88:	00000000 	nop
D:\loongson\projects\ls1d_ucos\devices/waker.c:135
}
bfc08f8c:	03c0e821 	move	sp,s8
bfc08f90:	8fbf001c 	lw	ra,28(sp)
bfc08f94:	8fbe0018 	lw	s8,24(sp)
bfc08f98:	27bd0020 	addiu	sp,sp,32
bfc08f9c:	03e00008 	jr	ra
bfc08fa0:	00000000 	nop

bfc08fa4 <DisSleep>:
DisSleep():
D:\loongson\projects\ls1d_ucos\devices/waker.c:139


void	DisSleep()
{
bfc08fa4:	27bdffe0 	addiu	sp,sp,-32
bfc08fa8:	afbf001c 	sw	ra,28(sp)
bfc08fac:	afbe0018 	sw	s8,24(sp)
bfc08fb0:	03a0f021 	move	s8,sp
D:\loongson\projects\ls1d_ucos\devices/waker.c:142
    OS_CPU_SR  cpu_sr;

	OS_ENTER_CRITICAL();
bfc08fb4:	3c02bfc0 	lui	v0,0xbfc0
bfc08fb8:	245973f0 	addiu	t9,v0,29680
bfc08fbc:	0320f809 	jalr	t9
bfc08fc0:	00000000 	nop
bfc08fc4:	afc20010 	sw	v0,16(s8)
D:\loongson\projects\ls1d_ucos\devices/waker.c:143
	SleepEn --;
bfc08fc8:	3c02a000 	lui	v0,0xa000
bfc08fcc:	90421099 	lbu	v0,4249(v0)
bfc08fd0:	304200ff 	andi	v0,v0,0xff
bfc08fd4:	2442ffff 	addiu	v0,v0,-1
bfc08fd8:	304300ff 	andi	v1,v0,0xff
bfc08fdc:	3c02a000 	lui	v0,0xa000
bfc08fe0:	a0431099 	sb	v1,4249(v0)
D:\loongson\projects\ls1d_ucos\devices/waker.c:144
	OS_EXIT_CRITICAL();
bfc08fe4:	8fc40010 	lw	a0,16(s8)
bfc08fe8:	3c02bfc0 	lui	v0,0xbfc0
bfc08fec:	24597408 	addiu	t9,v0,29704
bfc08ff0:	0320f809 	jalr	t9
bfc08ff4:	00000000 	nop
D:\loongson\projects\ls1d_ucos\devices/waker.c:145
}
bfc08ff8:	03c0e821 	move	sp,s8
bfc08ffc:	8fbf001c 	lw	ra,28(sp)
bfc09000:	8fbe0018 	lw	s8,24(sp)
bfc09004:	27bd0020 	addiu	sp,sp,32
bfc09008:	03e00008 	jr	ra
bfc0900c:	00000000 	nop

bfc09010 <LcdPoweron>:
LcdPoweron():
D:\loongson\projects\ls1d_ucos\devices/lcd.c:13

#include "includes.h"


void LcdPoweron()
{
bfc09010:	27bdfff8 	addiu	sp,sp,-8
bfc09014:	afbe0004 	sw	s8,4(sp)
bfc09018:	03a0f021 	move	s8,sp
D:\loongson\projects\ls1d_ucos\devices/lcd.c:15
	//INTERRUPT_DISABLE;
	PMU_SecToken = PMU_SecToken_chipctrl;
bfc0901c:	3c02bfeb 	lui	v0,0xbfeb
bfc09020:	3443007c 	ori	v1,v0,0x7c
bfc09024:	3c0215da 	lui	v0,0x15da
bfc09028:	3442ed27 	ori	v0,v0,0xed27
bfc0902c:	ac620000 	sw	v0,0(v1)
D:\loongson\projects\ls1d_ucos\devices/lcd.c:16
	PMU_ChipCtrl &= ~(1<<9);
bfc09030:	3c02bfeb 	lui	v0,0xbfeb
bfc09034:	3444000c 	ori	a0,v0,0xc
bfc09038:	3c02bfeb 	lui	v0,0xbfeb
bfc0903c:	3442000c 	ori	v0,v0,0xc
bfc09040:	8c430000 	lw	v1,0(v0)
bfc09044:	2402fdff 	li	v0,-513
bfc09048:	00621024 	and	v0,v1,v0
bfc0904c:	ac820000 	sw	v0,0(a0)
D:\loongson\projects\ls1d_ucos\devices/lcd.c:18
	//INTERRUPT_ENABLE;
}
bfc09050:	03c0e821 	move	sp,s8
bfc09054:	8fbe0004 	lw	s8,4(sp)
bfc09058:	27bd0008 	addiu	sp,sp,8
bfc0905c:	03e00008 	jr	ra
bfc09060:	00000000 	nop

bfc09064 <LcdPowerdown>:
LcdPowerdown():
D:\loongson\projects\ls1d_ucos\devices/lcd.c:21

void LcdPowerdown()
{
bfc09064:	27bdfff8 	addiu	sp,sp,-8
bfc09068:	afbe0004 	sw	s8,4(sp)
bfc0906c:	03a0f021 	move	s8,sp
D:\loongson\projects\ls1d_ucos\devices/lcd.c:23
	//INTERRUPT_DISABLE;
	PMU_SecToken = PMU_SecToken_chipctrl;
bfc09070:	3c02bfeb 	lui	v0,0xbfeb
bfc09074:	3443007c 	ori	v1,v0,0x7c
bfc09078:	3c0215da 	lui	v0,0x15da
bfc0907c:	3442ed27 	ori	v0,v0,0xed27
bfc09080:	ac620000 	sw	v0,0(v1)
D:\loongson\projects\ls1d_ucos\devices/lcd.c:24
	PMU_ChipCtrl |= (1<<9);
bfc09084:	3c02bfeb 	lui	v0,0xbfeb
bfc09088:	3443000c 	ori	v1,v0,0xc
bfc0908c:	3c02bfeb 	lui	v0,0xbfeb
bfc09090:	3442000c 	ori	v0,v0,0xc
bfc09094:	8c420000 	lw	v0,0(v0)
bfc09098:	34420200 	ori	v0,v0,0x200
bfc0909c:	ac620000 	sw	v0,0(v1)
D:\loongson\projects\ls1d_ucos\devices/lcd.c:26
	//INTERRUPT_ENABLE;
}
bfc090a0:	03c0e821 	move	sp,s8
bfc090a4:	8fbe0004 	lw	s8,4(sp)
bfc090a8:	27bd0008 	addiu	sp,sp,8
bfc090ac:	03e00008 	jr	ra
bfc090b0:	00000000 	nop

bfc090b4 <WriteLcdRegs>:
WriteLcdRegs():
D:\loongson\projects\ls1d_ucos\devices/lcd.c:29

void WriteLcdRegs(INT8U *buf)
{
bfc090b4:	27bdfff0 	addiu	sp,sp,-16
bfc090b8:	afbe000c 	sw	s8,12(sp)
bfc090bc:	03a0f021 	move	s8,sp
bfc090c0:	afc40010 	sw	a0,16(s8)
D:\loongson\projects\ls1d_ucos\devices/lcd.c:30
	INT32U *data = (INT32U *)buf;
bfc090c4:	8fc20010 	lw	v0,16(s8)
bfc090c8:	afc20000 	sw	v0,0(s8)
D:\loongson\projects\ls1d_ucos\devices/lcd.c:32

    LCD_FB_0 = (data[0]);
bfc090cc:	3c02bfeb 	lui	v0,0xbfeb
bfc090d0:	3443c000 	ori	v1,v0,0xc000
bfc090d4:	8fc20000 	lw	v0,0(s8)
bfc090d8:	8c420000 	lw	v0,0(v0)
bfc090dc:	ac620000 	sw	v0,0(v1)
D:\loongson\projects\ls1d_ucos\devices/lcd.c:33
    LCD_FB_1 = (data[1]);
bfc090e0:	3c02bfeb 	lui	v0,0xbfeb
bfc090e4:	3443c004 	ori	v1,v0,0xc004
bfc090e8:	8fc20000 	lw	v0,0(s8)
bfc090ec:	24420004 	addiu	v0,v0,4
bfc090f0:	8c420000 	lw	v0,0(v0)
bfc090f4:	ac620000 	sw	v0,0(v1)
D:\loongson\projects\ls1d_ucos\devices/lcd.c:34
    LCD_FB_2 = (data[2]);
bfc090f8:	3c02bfeb 	lui	v0,0xbfeb
bfc090fc:	3443c008 	ori	v1,v0,0xc008
bfc09100:	8fc20000 	lw	v0,0(s8)
bfc09104:	24420008 	addiu	v0,v0,8
bfc09108:	8c420000 	lw	v0,0(v0)
bfc0910c:	ac620000 	sw	v0,0(v1)
D:\loongson\projects\ls1d_ucos\devices/lcd.c:35
}
bfc09110:	03c0e821 	move	sp,s8
bfc09114:	8fbe000c 	lw	s8,12(sp)
bfc09118:	27bd0010 	addiu	sp,sp,16
bfc0911c:	03e00008 	jr	ra
bfc09120:	00000000 	nop

bfc09124 <Lcd_HW_Init>:
Lcd_HW_Init():
D:\loongson\projects\ls1d_ucos\devices/lcd.c:38

void Lcd_HW_Init()
{
bfc09124:	27bdfff8 	addiu	sp,sp,-8
bfc09128:	afbe0004 	sw	s8,4(sp)
bfc0912c:	03a0f021 	move	s8,sp
D:\loongson\projects\ls1d_ucos\devices/lcd.c:39
	LCD_RefeshRate = 0x10;
bfc09130:	3c02bfeb 	lui	v0,0xbfeb
bfc09134:	3443c00c 	ori	v1,v0,0xc00c
bfc09138:	24020010 	li	v0,16
bfc0913c:	ac620000 	sw	v0,0(v1)
D:\loongson\projects\ls1d_ucos\devices/lcd.c:43

	//IO init
	//INTERRUPT_DISABLE;
	PMU_SecToken = PMU_SecToken_chipctrl;
bfc09140:	3c02bfeb 	lui	v0,0xbfeb
bfc09144:	3443007c 	ori	v1,v0,0x7c
bfc09148:	3c0215da 	lui	v0,0x15da
bfc0914c:	3442ed27 	ori	v0,v0,0xed27
bfc09150:	ac620000 	sw	v0,0(v1)
D:\loongson\projects\ls1d_ucos\devices/lcd.c:44
	PMU_ChipCtrl &= ~0x3c00200; //lcd power on
bfc09154:	3c02bfeb 	lui	v0,0xbfeb
bfc09158:	3444000c 	ori	a0,v0,0xc
bfc0915c:	3c02bfeb 	lui	v0,0xbfeb
bfc09160:	3442000c 	ori	v0,v0,0xc
bfc09164:	8c430000 	lw	v1,0(v0)
bfc09168:	3c02fc3f 	lui	v0,0xfc3f
bfc0916c:	3442fdff 	ori	v0,v0,0xfdff
bfc09170:	00621024 	and	v0,v1,v0
bfc09174:	ac820000 	sw	v0,0(a0)
D:\loongson\projects\ls1d_ucos\devices/lcd.c:45
	PMU_SecToken = PMU_SecToken_chipctrl;
bfc09178:	3c02bfeb 	lui	v0,0xbfeb
bfc0917c:	3443007c 	ori	v1,v0,0x7c
bfc09180:	3c0215da 	lui	v0,0x15da
bfc09184:	3442ed27 	ori	v0,v0,0xed27
bfc09188:	ac620000 	sw	v0,0(v1)
D:\loongson\projects\ls1d_ucos\devices/lcd.c:46
	PMU_ChipCtrl |= 0x100;  //GPIO->lcd
bfc0918c:	3c02bfeb 	lui	v0,0xbfeb
bfc09190:	3443000c 	ori	v1,v0,0xc
bfc09194:	3c02bfeb 	lui	v0,0xbfeb
bfc09198:	3442000c 	ori	v0,v0,0xc
bfc0919c:	8c420000 	lw	v0,0(v0)
bfc091a0:	34420100 	ori	v0,v0,0x100
bfc091a4:	ac620000 	sw	v0,0(v1)
D:\loongson\projects\ls1d_ucos\devices/lcd.c:48
	//INTERRUPT_ENABLE;
}
bfc091a8:	03c0e821 	move	sp,s8
bfc091ac:	8fbe0004 	lw	s8,4(sp)
bfc091b0:	27bd0008 	addiu	sp,sp,8
bfc091b4:	03e00008 	jr	ra
bfc091b8:	00000000 	nop

bfc091bc <WriteLcdAll>:
WriteLcdAll():
D:\loongson\projects\ls1d_ucos\devices/lcd.c:51

void WriteLcdAll(void )
{
bfc091bc:	27bdfff8 	addiu	sp,sp,-8
bfc091c0:	afbe0004 	sw	s8,4(sp)
bfc091c4:	03a0f021 	move	s8,sp
D:\loongson\projects\ls1d_ucos\devices/lcd.c:52
    LCD_FB_0 = 0xf0f0f0f0;
bfc091c8:	3c02bfeb 	lui	v0,0xbfeb
bfc091cc:	3443c000 	ori	v1,v0,0xc000
bfc091d0:	3c02f0f0 	lui	v0,0xf0f0
bfc091d4:	3442f0f0 	ori	v0,v0,0xf0f0
bfc091d8:	ac620000 	sw	v0,0(v1)
D:\loongson\projects\ls1d_ucos\devices/lcd.c:53
    LCD_FB_1 = 0xf0f0f0f0;
bfc091dc:	3c02bfeb 	lui	v0,0xbfeb
bfc091e0:	3443c004 	ori	v1,v0,0xc004
bfc091e4:	3c02f0f0 	lui	v0,0xf0f0
bfc091e8:	3442f0f0 	ori	v0,v0,0xf0f0
bfc091ec:	ac620000 	sw	v0,0(v1)
D:\loongson\projects\ls1d_ucos\devices/lcd.c:54
    LCD_FB_2 = 0xf0f0f0f0;
bfc091f0:	3c02bfeb 	lui	v0,0xbfeb
bfc091f4:	3443c008 	ori	v1,v0,0xc008
bfc091f8:	3c02f0f0 	lui	v0,0xf0f0
bfc091fc:	3442f0f0 	ori	v0,v0,0xf0f0
bfc09200:	ac620000 	sw	v0,0(v1)
D:\loongson\projects\ls1d_ucos\devices/lcd.c:55
}
bfc09204:	03c0e821 	move	sp,s8
bfc09208:	8fbe0004 	lw	s8,4(sp)
bfc0920c:	27bd0008 	addiu	sp,sp,8
bfc09210:	03e00008 	jr	ra
bfc09214:	00000000 	nop
bfc09218:	00000000 	nop
bfc0921c:	00000000 	nop

bfc09220 <Uart0_38400B>:
Uart0_38400B():
D:\loongson\projects\ls1d_ucos\devices/uart.c:5

#include "includes.h"

void Uart0_38400B(void)
{
bfc09220:	27bdffe0 	addiu	sp,sp,-32
bfc09224:	afbf001c 	sw	ra,28(sp)
bfc09228:	afbe0018 	sw	s8,24(sp)
bfc0922c:	03a0f021 	move	s8,sp
D:\loongson\projects\ls1d_ucos\devices/uart.c:9
#if OS_CRITICAL_METHOD == 3
    OS_CPU_SR     cpu_sr;
#endif
	OS_ENTER_CRITICAL();
bfc09230:	3c02bfc0 	lui	v0,0xbfc0
bfc09234:	245973f0 	addiu	t9,v0,29680
bfc09238:	0320f809 	jalr	t9
bfc0923c:	00000000 	nop
bfc09240:	afc20010 	sw	v0,16(s8)
D:\loongson\projects\ls1d_ucos\devices/uart.c:10
	PMU_SecToken = PMU_SecToken_chipctrl;
bfc09244:	3c02bfeb 	lui	v0,0xbfeb
bfc09248:	3443007c 	ori	v1,v0,0x7c
bfc0924c:	3c0215da 	lui	v0,0x15da
bfc09250:	3442ed27 	ori	v0,v0,0xed27
bfc09254:	ac620000 	sw	v0,0(v1)
D:\loongson\projects\ls1d_ucos\devices/uart.c:11
	PMU_ChipCtrl &= ~(1<<2);
bfc09258:	3c02bfeb 	lui	v0,0xbfeb
bfc0925c:	3444000c 	ori	a0,v0,0xc
bfc09260:	3c02bfeb 	lui	v0,0xbfeb
bfc09264:	3442000c 	ori	v0,v0,0xc
bfc09268:	8c430000 	lw	v1,0(v0)
bfc0926c:	2402fffb 	li	v0,-5
bfc09270:	00621024 	and	v0,v1,v0
bfc09274:	ac820000 	sw	v0,0(a0)
D:\loongson\projects\ls1d_ucos\devices/uart.c:12
	OS_EXIT_CRITICAL();
bfc09278:	8fc40010 	lw	a0,16(s8)
bfc0927c:	3c02bfc0 	lui	v0,0xbfc0
bfc09280:	24597408 	addiu	t9,v0,29704
bfc09284:	0320f809 	jalr	t9
bfc09288:	00000000 	nop
D:\loongson\projects\ls1d_ucos\devices/uart.c:17
	/*
	 8bit  1stop  38400Baut  odd parity
	*/

	Uart0_FCR = FIFO_ENABLE|FIFO_RCV_RST|FIFO_XMT_RST|FIFO_TRIGGER_1;
bfc0928c:	3c02bfe8 	lui	v0,0xbfe8
bfc09290:	34430002 	ori	v1,v0,0x2
bfc09294:	24020007 	li	v0,7
bfc09298:	a0620000 	sb	v0,0(v1)
D:\loongson\projects\ls1d_ucos\devices/uart.c:18
	Uart0_LCR = CFCR_DLAB;
bfc0929c:	3c02bfe8 	lui	v0,0xbfe8
bfc092a0:	34430003 	ori	v1,v0,0x3
bfc092a4:	2402ff80 	li	v0,-128
bfc092a8:	a0620000 	sb	v0,0(v1)
D:\loongson\projects\ls1d_ucos\devices/uart.c:19
	Uart0_BaudL = 13;
bfc092ac:	3c03bfe8 	lui	v1,0xbfe8
bfc092b0:	2402000d 	li	v0,13
bfc092b4:	a0620000 	sb	v0,0(v1)
D:\loongson\projects\ls1d_ucos\devices/uart.c:20
	Uart0_LCR = CFCR_8BITS|CFCR_PENAB|CFCR_PODD;  //8bit, 1stop, odd parity
bfc092b8:	3c02bfe8 	lui	v0,0xbfe8
bfc092bc:	34430003 	ori	v1,v0,0x3
bfc092c0:	2402000b 	li	v0,11
bfc092c4:	a0620000 	sb	v0,0(v1)
D:\loongson\projects\ls1d_ucos\devices/uart.c:21
	Uart0_MCR = MCR_DTR|MCR_RTS;
bfc092c8:	3c02bfe8 	lui	v0,0xbfe8
bfc092cc:	34430004 	ori	v1,v0,0x4
bfc092d0:	24020003 	li	v0,3
bfc092d4:	a0620000 	sb	v0,0(v1)
D:\loongson\projects\ls1d_ucos\devices/uart.c:22
	Uart0_IER = 0;
bfc092d8:	3c02bfe8 	lui	v0,0xbfe8
bfc092dc:	34420001 	ori	v0,v0,0x1
bfc092e0:	a0400000 	sb	zero,0(v0)
D:\loongson\projects\ls1d_ucos\devices/uart.c:23
}
bfc092e4:	03c0e821 	move	sp,s8
bfc092e8:	8fbf001c 	lw	ra,28(sp)
bfc092ec:	8fbe0018 	lw	s8,24(sp)
bfc092f0:	27bd0020 	addiu	sp,sp,32
bfc092f4:	03e00008 	jr	ra
bfc092f8:	00000000 	nop

bfc092fc <tgt_putchar>:
tgt_putchar():
D:\loongson\projects\ls1d_ucos\devices/uart.c:27


void tgt_putchar(_u8 chr)
{
bfc092fc:	27bdfff8 	addiu	sp,sp,-8
bfc09300:	afbe0004 	sw	s8,4(sp)
bfc09304:	03a0f021 	move	s8,sp
bfc09308:	00801021 	move	v0,a0
bfc0930c:	a3c20008 	sb	v0,8(s8)
D:\loongson\projects\ls1d_ucos\devices/uart.c:28
	while(!(Uart0_LSR & 0x20)) ;
bfc09310:	3c02bfe8 	lui	v0,0xbfe8
bfc09314:	34420005 	ori	v0,v0,0x5
bfc09318:	90420000 	lbu	v0,0(v0)
bfc0931c:	304200ff 	andi	v0,v0,0xff
bfc09320:	30420020 	andi	v0,v0,0x20
bfc09324:	1040fffa 	beqz	v0,bfc09310 <tgt_putchar+0x14>
bfc09328:	00000000 	nop
D:\loongson\projects\ls1d_ucos\devices/uart.c:29
	Uart0_TxData = chr;
bfc0932c:	3c03bfe8 	lui	v1,0xbfe8
bfc09330:	93c20008 	lbu	v0,8(s8)
bfc09334:	a0620000 	sb	v0,0(v1)
D:\loongson\projects\ls1d_ucos\devices/uart.c:30
}
bfc09338:	03c0e821 	move	sp,s8
bfc0933c:	8fbe0004 	lw	s8,4(sp)
bfc09340:	27bd0008 	addiu	sp,sp,8
bfc09344:	03e00008 	jr	ra
bfc09348:	00000000 	nop

bfc0934c <putchar>:
putchar():
D:\loongson\projects\ls1d_ucos\devices/uart.c:34

int putchar(long c)
{
	tgt_putchar(c);
bfc0934c:	27bdffe8 	addiu	sp,sp,-24
bfc09350:	afbf0014 	sw	ra,20(sp)
bfc09354:	afbe0010 	sw	s8,16(sp)
bfc09358:	03a0f021 	move	s8,sp
bfc0935c:	afc40018 	sw	a0,24(s8)
bfc09360:	8fc20018 	lw	v0,24(s8)
bfc09364:	304200ff 	andi	v0,v0,0xff
bfc09368:	00402021 	move	a0,v0
bfc0936c:	0ff024bf 	jal	bfc092fc <tgt_putchar>
bfc09370:	00000000 	nop
D:\loongson\projects\ls1d_ucos\devices/uart.c:35
	return 0;
bfc09374:	00001021 	move	v0,zero
D:\loongson\projects\ls1d_ucos\devices/uart.c:36
}
bfc09378:	03c0e821 	move	sp,s8
bfc0937c:	8fbf0014 	lw	ra,20(sp)
bfc09380:	8fbe0010 	lw	s8,16(sp)
bfc09384:	27bd0018 	addiu	sp,sp,24
bfc09388:	03e00008 	jr	ra
bfc0938c:	00000000 	nop

bfc09390 <puts>:
puts():
D:\loongson\projects\ls1d_ucos\devices/uart.c:44
int puts(char *s)
{
	char c;
	while((c=*s))
	{
		if(c == '\n') putchar('\r');
bfc09390:	27bdffe0 	addiu	sp,sp,-32
bfc09394:	afbf001c 	sw	ra,28(sp)
bfc09398:	afbe0018 	sw	s8,24(sp)
bfc0939c:	03a0f021 	move	s8,sp
bfc093a0:	afc40020 	sw	a0,32(s8)
bfc093a4:	0bf024f9 	j	bfc093e4 <puts+0x54>
bfc093a8:	00000000 	nop
bfc093ac:	83c30010 	lb	v1,16(s8)
bfc093b0:	2402000a 	li	v0,10
bfc093b4:	14620004 	bne	v1,v0,bfc093c8 <puts+0x38>
bfc093b8:	00000000 	nop
bfc093bc:	2404000d 	li	a0,13
bfc093c0:	0ff024d3 	jal	bfc0934c <putchar>
bfc093c4:	00000000 	nop
D:\loongson\projects\ls1d_ucos\devices/uart.c:45
			putchar(c);
bfc093c8:	83c20010 	lb	v0,16(s8)
bfc093cc:	00402021 	move	a0,v0
bfc093d0:	0ff024d3 	jal	bfc0934c <putchar>
bfc093d4:	00000000 	nop
D:\loongson\projects\ls1d_ucos\devices/uart.c:46
		s++;
bfc093d8:	8fc20020 	lw	v0,32(s8)
bfc093dc:	24420001 	addiu	v0,v0,1
bfc093e0:	afc20020 	sw	v0,32(s8)
D:\loongson\projects\ls1d_ucos\devices/uart.c:42


int puts(char *s)
{
	char c;
	while((c=*s))
bfc093e4:	8fc20020 	lw	v0,32(s8)
bfc093e8:	90420000 	lbu	v0,0(v0)
bfc093ec:	a3c20010 	sb	v0,16(s8)
bfc093f0:	83c20010 	lb	v0,16(s8)
bfc093f4:	1440ffed 	bnez	v0,bfc093ac <puts+0x1c>
bfc093f8:	00000000 	nop
D:\loongson\projects\ls1d_ucos\devices/uart.c:48
	{
		if(c == '\n') putchar('\r');
			putchar(c);
		s++;
	}
	return 0;
bfc093fc:	00001021 	move	v0,zero
D:\loongson\projects\ls1d_ucos\devices/uart.c:49
}
bfc09400:	03c0e821 	move	sp,s8
bfc09404:	8fbf001c 	lw	ra,28(sp)
bfc09408:	8fbe0018 	lw	s8,24(sp)
bfc0940c:	27bd0020 	addiu	sp,sp,32
bfc09410:	03e00008 	jr	ra
bfc09414:	00000000 	nop
bfc09418:	00000000 	nop
bfc0941c:	00000000 	nop

bfc09420 <Uart1_2400B>:
Uart1_2400B():
D:\loongson\projects\ls1d_ucos\devices/infrared.c:5
#include "includes.h"


void Uart1_2400B(void)
{
bfc09420:	27bdffe0 	addiu	sp,sp,-32
bfc09424:	afbf001c 	sw	ra,28(sp)
bfc09428:	afbe0018 	sw	s8,24(sp)
bfc0942c:	03a0f021 	move	s8,sp
D:\loongson\projects\ls1d_ucos\devices/infrared.c:9
#if OS_CRITICAL_METHOD == 3
    OS_CPU_SR     cpu_sr;
#endif
    OS_ENTER_CRITICAL();
bfc09430:	3c02bfc0 	lui	v0,0xbfc0
bfc09434:	245973f0 	addiu	t9,v0,29680
bfc09438:	0320f809 	jalr	t9
bfc0943c:	00000000 	nop
bfc09440:	afc20014 	sw	v0,20(s8)
D:\loongson\projects\ls1d_ucos\devices/infrared.c:10
	PMU_SecToken = PMU_SecToken_chipctrl;
bfc09444:	3c02bfeb 	lui	v0,0xbfeb
bfc09448:	3443007c 	ori	v1,v0,0x7c
bfc0944c:	3c0215da 	lui	v0,0x15da
bfc09450:	3442ed27 	ori	v0,v0,0xed27
bfc09454:	ac620000 	sw	v0,0(v1)
D:\loongson\projects\ls1d_ucos\devices/infrared.c:11
	PMU_ChipCtrl &= ~(1<<3);
bfc09458:	3c02bfeb 	lui	v0,0xbfeb
bfc0945c:	3444000c 	ori	a0,v0,0xc
bfc09460:	3c02bfeb 	lui	v0,0xbfeb
bfc09464:	3442000c 	ori	v0,v0,0xc
bfc09468:	8c430000 	lw	v1,0(v0)
bfc0946c:	2402fff7 	li	v0,-9
bfc09470:	00621024 	and	v0,v1,v0
bfc09474:	ac820000 	sw	v0,0(a0)
D:\loongson\projects\ls1d_ucos\devices/infrared.c:12
	OS_EXIT_CRITICAL();
bfc09478:	8fc40014 	lw	a0,20(s8)
bfc0947c:	3c02bfc0 	lui	v0,0xbfc0
bfc09480:	24597408 	addiu	t9,v0,29704
bfc09484:	0320f809 	jalr	t9
bfc09488:	00000000 	nop
D:\loongson\projects\ls1d_ucos\devices/infrared.c:17
	/*
	 8bit  1stop  2400Baut  odd parity
	*/

	Uart1_FCR = FIFO_ENABLE|FIFO_RCV_RST|FIFO_XMT_RST|FIFO_TRIGGER_1;
bfc0948c:	3c02bfe8 	lui	v0,0xbfe8
bfc09490:	34438002 	ori	v1,v0,0x8002
bfc09494:	24020007 	li	v0,7
bfc09498:	a0620000 	sb	v0,0(v1)
D:\loongson\projects\ls1d_ucos\devices/infrared.c:18
	Uart1_LCR = CFCR_DLAB;
bfc0949c:	3c02bfe8 	lui	v0,0xbfe8
bfc094a0:	34438003 	ori	v1,v0,0x8003
bfc094a4:	2402ff80 	li	v0,-128
bfc094a8:	a0620000 	sb	v0,0(v1)
D:\loongson\projects\ls1d_ucos\devices/infrared.c:19
	Uart1_BaudL = 208;  //set 2400Baut
bfc094ac:	3c02bfe8 	lui	v0,0xbfe8
bfc094b0:	34438000 	ori	v1,v0,0x8000
bfc094b4:	2402ffd0 	li	v0,-48
bfc094b8:	a0620000 	sb	v0,0(v1)
D:\loongson\projects\ls1d_ucos\devices/infrared.c:20
	Uart1_LCR = CFCR_8BITS|CFCR_PENAB|CFCR_PODD;  //8bit, 1stop, odd parity
bfc094bc:	3c02bfe8 	lui	v0,0xbfe8
bfc094c0:	34438003 	ori	v1,v0,0x8003
bfc094c4:	2402000b 	li	v0,11
bfc094c8:	a0620000 	sb	v0,0(v1)
D:\loongson\projects\ls1d_ucos\devices/infrared.c:21
	Uart1_MCR = MCR_DTR|MCR_RTS;
bfc094cc:	3c02bfe8 	lui	v0,0xbfe8
bfc094d0:	34438004 	ori	v1,v0,0x8004
bfc094d4:	24020003 	li	v0,3
bfc094d8:	a0620000 	sb	v0,0(v1)
D:\loongson\projects\ls1d_ucos\devices/infrared.c:22
	Uart1_IER = 0;
bfc094dc:	3c02bfe8 	lui	v0,0xbfe8
bfc094e0:	34428001 	ori	v0,v0,0x8001
bfc094e4:	a0400000 	sb	zero,0(v0)
D:\loongson\projects\ls1d_ucos\devices/infrared.c:24

	INT_POL    |= 0x04;    //low available
bfc094e8:	3c02bfea 	lui	v0,0xbfea
bfc094ec:	34430002 	ori	v1,v0,0x2
bfc094f0:	3c02bfea 	lui	v0,0xbfea
bfc094f4:	34420002 	ori	v0,v0,0x2
bfc094f8:	90420000 	lbu	v0,0(v0)
bfc094fc:	304200ff 	andi	v0,v0,0xff
bfc09500:	34420004 	ori	v0,v0,0x4
bfc09504:	304200ff 	andi	v0,v0,0xff
bfc09508:	a0620000 	sb	v0,0(v1)
D:\loongson\projects\ls1d_ucos\devices/infrared.c:25
	INT_EN     |= 0x04;		//enable uart1 int
bfc0950c:	3c03bfea 	lui	v1,0xbfea
bfc09510:	3c02bfea 	lui	v0,0xbfea
bfc09514:	90420000 	lbu	v0,0(v0)
bfc09518:	304200ff 	andi	v0,v0,0xff
bfc0951c:	34420004 	ori	v0,v0,0x4
bfc09520:	304200ff 	andi	v0,v0,0xff
bfc09524:	a0620000 	sb	v0,0(v1)
D:\loongson\projects\ls1d_ucos\devices/infrared.c:30

	//debugX(2, "Uart1 init...\n");

	_u8 data;
	data = Uart1_RxData;   //clear the receive fifo
bfc09528:	3c02bfe8 	lui	v0,0xbfe8
bfc0952c:	34428000 	ori	v0,v0,0x8000
bfc09530:	90420000 	lbu	v0,0(v0)
bfc09534:	a3c20010 	sb	v0,16(s8)
D:\loongson\projects\ls1d_ucos\devices/infrared.c:31
	Uart1_IER  |= 0x01;    //enable uart1 rx int
bfc09538:	3c02bfe8 	lui	v0,0xbfe8
bfc0953c:	34438001 	ori	v1,v0,0x8001
bfc09540:	3c02bfe8 	lui	v0,0xbfe8
bfc09544:	34428001 	ori	v0,v0,0x8001
bfc09548:	90420000 	lbu	v0,0(v0)
bfc0954c:	304200ff 	andi	v0,v0,0xff
bfc09550:	34420001 	ori	v0,v0,0x1
bfc09554:	304200ff 	andi	v0,v0,0xff
bfc09558:	a0620000 	sb	v0,0(v1)
D:\loongson\projects\ls1d_ucos\devices/infrared.c:32
}
bfc0955c:	03c0e821 	move	sp,s8
bfc09560:	8fbf001c 	lw	ra,28(sp)
bfc09564:	8fbe0018 	lw	s8,24(sp)
bfc09568:	27bd0020 	addiu	sp,sp,32
bfc0956c:	03e00008 	jr	ra
bfc09570:	00000000 	nop

bfc09574 <Infrared1Init>:
Infrared1Init():
D:\loongson\projects\ls1d_ucos\devices/infrared.c:36


void Infrared1Init( )
{
bfc09574:	27bdffe8 	addiu	sp,sp,-24
bfc09578:	afbf0014 	sw	ra,20(sp)
bfc0957c:	afbe0010 	sw	s8,16(sp)
bfc09580:	03a0f021 	move	s8,sp
D:\loongson\projects\ls1d_ucos\devices/infrared.c:37
    PMU_GPIO_OE |= (1 << 10)|(1<<2);  //IRPWR -> GPIO output
bfc09584:	3c02bfeb 	lui	v0,0xbfeb
bfc09588:	34430010 	ori	v1,v0,0x10
bfc0958c:	3c02bfeb 	lui	v0,0xbfeb
bfc09590:	34420010 	ori	v0,v0,0x10
bfc09594:	8c420000 	lw	v0,0(v0)
bfc09598:	34420404 	ori	v0,v0,0x404
bfc0959c:	ac620000 	sw	v0,0(v1)
D:\loongson\projects\ls1d_ucos\devices/infrared.c:38
    PMU_GPIO_O |= (1 << 10)|(1<<2);  //IRPWR -> GPIO output
bfc095a0:	3c02bfeb 	lui	v0,0xbfeb
bfc095a4:	34430014 	ori	v1,v0,0x14
bfc095a8:	3c02bfeb 	lui	v0,0xbfeb
bfc095ac:	34420014 	ori	v0,v0,0x14
bfc095b0:	8c420000 	lw	v0,0(v0)
bfc095b4:	34420404 	ori	v0,v0,0x404
bfc095b8:	ac620000 	sw	v0,0(v1)
D:\loongson\projects\ls1d_ucos\devices/infrared.c:41
	//IR_PWR_ON();

    Uart1_2400B();
bfc095bc:	0ff02508 	jal	bfc09420 <Uart1_2400B>
bfc095c0:	00000000 	nop
D:\loongson\projects\ls1d_ucos\devices/infrared.c:42
    Uart1_MCR |= 0x80; //0xa0;  	//MCR bit7: enable 38k;  bit6: Rx录芦;  bit5: Tx录芦
bfc095c4:	3c02bfe8 	lui	v0,0xbfe8
bfc095c8:	34448004 	ori	a0,v0,0x8004
bfc095cc:	3c02bfe8 	lui	v0,0xbfe8
bfc095d0:	34428004 	ori	v0,v0,0x8004
bfc095d4:	90420000 	lbu	v0,0(v0)
bfc095d8:	304300ff 	andi	v1,v0,0xff
bfc095dc:	2402ff80 	li	v0,-128
bfc095e0:	00621025 	or	v0,v1,v0
bfc095e4:	304200ff 	andi	v0,v0,0xff
bfc095e8:	a0820000 	sb	v0,0(a0)
D:\loongson\projects\ls1d_ucos\devices/infrared.c:44

	memset1d(InfraredBuf,16,0);
bfc095ec:	3c02a000 	lui	v0,0xa000
bfc095f0:	24441268 	addiu	a0,v0,4712
bfc095f4:	24050010 	li	a1,16
bfc095f8:	00003021 	move	a2,zero
bfc095fc:	3c02bfc0 	lui	v0,0xbfc0
bfc09600:	24597e04 	addiu	t9,v0,32260
bfc09604:	0320f809 	jalr	t9
bfc09608:	00000000 	nop
D:\loongson\projects\ls1d_ucos\devices/infrared.c:45
	InfraredCnt	= 0;
bfc0960c:	3c02a000 	lui	v0,0xa000
bfc09610:	a040107d 	sb	zero,4221(v0)
D:\loongson\projects\ls1d_ucos\devices/infrared.c:46
}
bfc09614:	03c0e821 	move	sp,s8
bfc09618:	8fbf0014 	lw	ra,20(sp)
bfc0961c:	8fbe0010 	lw	s8,16(sp)
bfc09620:	27bd0018 	addiu	sp,sp,24
bfc09624:	03e00008 	jr	ra
bfc09628:	00000000 	nop

bfc0962c <Infrared1Disable>:
Infrared1Disable():
D:\loongson\projects\ls1d_ucos\devices/infrared.c:50


void Infrared1Disable( )
{
bfc0962c:	27bdfff8 	addiu	sp,sp,-8
bfc09630:	afbe0004 	sw	s8,4(sp)
bfc09634:	03a0f021 	move	s8,sp
D:\loongson\projects\ls1d_ucos\devices/infrared.c:51
    PMU_GPIO_O &= ~((1 << 10)|(1<<2));  //IRPWR -> GPIO output
bfc09638:	3c02bfeb 	lui	v0,0xbfeb
bfc0963c:	34440014 	ori	a0,v0,0x14
bfc09640:	3c02bfeb 	lui	v0,0xbfeb
bfc09644:	34420014 	ori	v0,v0,0x14
bfc09648:	8c430000 	lw	v1,0(v0)
bfc0964c:	2402fbfb 	li	v0,-1029
bfc09650:	00621024 	and	v0,v1,v0
bfc09654:	ac820000 	sw	v0,0(a0)
D:\loongson\projects\ls1d_ucos\devices/infrared.c:54
	//IR_PWR_OFF();

	INT_EN     &= ~0x08;		//disable uart0 int
bfc09658:	3c03bfea 	lui	v1,0xbfea
bfc0965c:	3c02bfea 	lui	v0,0xbfea
bfc09660:	90420000 	lbu	v0,0(v0)
bfc09664:	304200ff 	andi	v0,v0,0xff
bfc09668:	304200f7 	andi	v0,v0,0xf7
bfc0966c:	a0620000 	sb	v0,0(v1)
D:\loongson\projects\ls1d_ucos\devices/infrared.c:55
}
bfc09670:	03c0e821 	move	sp,s8
bfc09674:	8fbe0004 	lw	s8,4(sp)
bfc09678:	27bd0008 	addiu	sp,sp,8
bfc0967c:	03e00008 	jr	ra
bfc09680:	00000000 	nop
bfc09684:	00000000 	nop
bfc09688:	00000000 	nop
bfc0968c:	00000000 	nop

bfc09690 <ls1d_key_init>:
ls1d_key_init():
D:\loongson\projects\ls1d_ucos\devices/key.c:5

#include "includes.h"

void ls1d_key_init()
{
bfc09690:	27bdfff8 	addiu	sp,sp,-8
bfc09694:	afbe0004 	sw	s8,4(sp)
bfc09698:	03a0f021 	move	s8,sp
D:\loongson\projects\ls1d_ucos\devices/key.c:6
	PMU_SecToken = PMU_SecToken_chipctrl;
bfc0969c:	3c02bfeb 	lui	v0,0xbfeb
bfc096a0:	3443007c 	ori	v1,v0,0x7c
bfc096a4:	3c0215da 	lui	v0,0x15da
bfc096a8:	3442ed27 	ori	v0,v0,0xed27
bfc096ac:	ac620000 	sw	v0,0(v1)
D:\loongson\projects\ls1d_ucos\devices/key.c:7
	PMU_ChipCtrl &= ~0x480;
bfc096b0:	3c02bfeb 	lui	v0,0xbfeb
bfc096b4:	3444000c 	ori	a0,v0,0xc
bfc096b8:	3c02bfeb 	lui	v0,0xbfeb
bfc096bc:	3442000c 	ori	v0,v0,0xc
bfc096c0:	8c430000 	lw	v1,0(v0)
bfc096c4:	2402fb7f 	li	v0,-1153
bfc096c8:	00621024 	and	v0,v1,v0
bfc096cc:	ac820000 	sw	v0,0(a0)
D:\loongson\projects\ls1d_ucos\devices/key.c:8
	PMU_SecToken = PMU_SecToken_command;
bfc096d0:	3c02bfeb 	lui	v0,0xbfeb
bfc096d4:	3443007c 	ori	v1,v0,0x7c
bfc096d8:	3c02cf21 	lui	v0,0xcf21
bfc096dc:	34426e95 	ori	v0,v0,0x6e95
bfc096e0:	ac620000 	sw	v0,0(v1)
D:\loongson\projects\ls1d_ucos\devices/key.c:9
	PMU_Command |= 0x2000;
bfc096e4:	3c02bfeb 	lui	v0,0xbfeb
bfc096e8:	34430004 	ori	v1,v0,0x4
bfc096ec:	3c02bfeb 	lui	v0,0xbfeb
bfc096f0:	34420004 	ori	v0,v0,0x4
bfc096f4:	8c420000 	lw	v0,0(v0)
bfc096f8:	34422000 	ori	v0,v0,0x2000
bfc096fc:	ac620000 	sw	v0,0(v1)
D:\loongson\projects\ls1d_ucos\devices/key.c:10
}
bfc09700:	03c0e821 	move	sp,s8
bfc09704:	8fbe0004 	lw	s8,4(sp)
bfc09708:	27bd0008 	addiu	sp,sp,8
bfc0970c:	03e00008 	jr	ra
bfc09710:	00000000 	nop
bfc09714:	00000000 	nop
bfc09718:	00000000 	nop
bfc0971c:	00000000 	nop
